 Metin2Release

 Timestamp is 60023332 (Sat Jan 16 01:28:34 2021)

 Preferred load address is 00400000

 Start         Length     Name                   Class
 0001:00000000 0003a370H .text                   CODE
 0001:0003a370 00000fc0H .text$di                CODE
 0001:0003b330 0016b530H .text$mn                CODE
 0001:001a6860 0000bc20H .text$x                 CODE
 0001:001b2480 00001794H .text$yd                CODE
 0002:00000000 00000788H .idata$5                DATA
 0002:00000788 00000004H .00cfg                  DATA
 0002:0000078c 00000004H .CRT$XCA                DATA
 0002:00000790 00000004H .CRT$XCAA               DATA
 0002:00000794 0000001cH .CRT$XCC                DATA
 0002:000007b0 00000008H .CRT$XCL                DATA
 0002:000007b8 000001bcH .CRT$XCU                DATA
 0002:00000974 00000004H .CRT$XCZ                DATA
 0002:00000978 00000004H .CRT$XIA                DATA
 0002:0000097c 00000004H .CRT$XIAA               DATA
 0002:00000980 00000004H .CRT$XIAC               DATA
 0002:00000984 0000001cH .CRT$XIC                DATA
 0002:000009a0 00000004H .CRT$XIZ                DATA
 0002:000009a4 00000004H .CRT$XLA                DATA
 0002:000009a8 00000004H .CRT$XLZ                DATA
 0002:000009ac 00000004H .CRT$XPA                DATA
 0002:000009b0 00000008H .CRT$XPX                DATA
 0002:000009b8 00000004H .CRT$XPXA               DATA
 0002:000009bc 00000004H .CRT$XPZ                DATA
 0002:000009c0 00000004H .CRT$XTA                DATA
 0002:000009c4 0000001cH .CRT$XTZ                DATA
 0002:000009c8 00000000H .gfids$y                DATA
 0002:000009e0 00030d20H .rdata                  DATA
 0002:00031700 00000000H .rdata$CastGuardVftablesA DATA
 0002:00031700 00000000H .rdata$CastGuardVftablesC DATA
 0002:00031700 00000018H .rdata$T                DATA
 0002:00031718 000081f0H .rdata$r                DATA
 0002:00039908 00000000H .rdata$zETW0            DATA
 0002:00039908 00000000H .rdata$zETW9            DATA
 0002:00039908 000003c4H .rdata$zzzdbg           DATA
 0002:00039ccc 00000004H .rtc$IAA                DATA
 0002:00039cd0 00000004H .rtc$IZZ                DATA
 0002:00039cd4 00000004H .rtc$TAA                DATA
 0002:00039cd8 00000008H .rtc$TZZ                DATA
 0002:00039ce0 00000020H .tls                    DATA
 0002:00039d00 00000004H .tls$                   DATA
 0002:00039d04 00000004H .tls$ZZZ                DATA
 0002:00039d08 0000a6e0H .xdata$x                DATA
 0002:000443e8 00000000H .edata                  DATA
 0002:000443e8 00000190H .idata$2                DATA
 0002:00044578 00000014H .idata$3                DATA
 0002:0004458c 00000788H .idata$4                DATA
 0002:00044d14 0000298eH .idata$6                DATA
 0003:00000000 0001f6a0H .data                   DATA
 0003:0001f6a0 00000240H .data$r                 DATA
 0003:0001f8e0 000040e0H .data$rs                DATA
 0003:000239c0 00042898H .bss                    DATA
 0004:00000000 000008e0H .data1                  DATA
 0005:00000000 00000780H .rsrc$01                DATA
 0005:00000780 0000aba8H .rsrc$02                DATA

  Address         Publics by Value              Rva+Base       Lib:Object

 0000:00000000       ___guard_eh_cont_count     00000000     <absolute>
 0000:00000000       ___arm64x_extra_rfe_table  00000000     <absolute>
 0000:00000000       ___volatile_metadata       00000000     <absolute>
 0000:00000000       ___guard_longjmp_table     00000000     <absolute>
 0000:00000000       ___hybrid_code_map_count   00000000     <absolute>
 0000:00000000       ___x64_code_ranges_to_entry_points 00000000     <absolute>
 0000:00000000       ___arm64x_native_entrypoint 00000000     <absolute>
 0000:00000000       ___safe_se_handler_table   00000000     <absolute>
 0000:00000000       ___guard_fids_count        00000000     <absolute>
 0000:00000000       ___guard_eh_cont_table     00000000     <absolute>
 0000:00000000       ___guard_iat_count         00000000     <absolute>
 0000:00000000       ___hybrid_code_map         00000000     <absolute>
 0000:00000000       __except_list              00000000     <absolute>
 0000:00000000       ___x64_code_ranges_to_entry_points_count 00000000     <absolute>
 0000:00000000       ___arm64x_extra_rfe_table_size 00000000     <absolute>
 0000:00000000       ___arm64x_redirection_metadata 00000000     <absolute>
 0000:00000000       ___guard_iat_table         00000000     <absolute>
 0000:00000000       ___safe_se_handler_count   00000000     <absolute>
 0000:00000000       ___hybrid_auxiliary_iat    00000000     <absolute>
 0000:00000000       ___dynamic_value_reloc_table 00000000     <absolute>
 0000:00000000       ___guard_longjmp_count     00000000     <absolute>
 0000:00000000       ___arm64x_redirection_metadata_count 00000000     <absolute>
 0000:00000000       ___AbsoluteZero            00000000     <absolute>
 0000:00000000       ___enclave_config          00000000     <absolute>
 0000:00000000       ___guard_fids_table        00000000     <absolute>
 0000:0000002c       __tls_array                0000002c     <absolute>
 0000:00000100       ___guard_flags             00000100     <absolute>
 0000:00000000       ___ImageBase               00400000     <linker-defined>
 0001:0000002d       ?init_D3DXVec2Normalize@@YGPAUD3DXVECTOR2@@PAU1@PBU1@@Z 0040102d f   d3dx8:d3dxmath.obj
 0001:0000003a       _D3DXVec2Normalize@8       0040103a f   d3dx8:d3dxmath.obj
 0001:00000040       ?init_D3DXVec2Hermite@@YGPAUD3DXVECTOR2@@PAU1@PBU1@111M@Z 00401040 f   d3dx8:d3dxmath.obj
 0001:0000006a       ?c_D3DXVec2Hermite@@YGPAUD3DXVECTOR2@@PAU1@PBU1@111M@Z 0040106a f   d3dx8:d3dxmath.obj
 0001:000000f8       ?init_D3DXVec2CatmullRom@@YGPAUD3DXVECTOR2@@PAU1@PBU1@111M@Z 004010f8 f   d3dx8:d3dxmath.obj
 0001:00000122       ?c_D3DXVec2CatmullRom@@YGPAUD3DXVECTOR2@@PAU1@PBU1@111M@Z 00401122 f   d3dx8:d3dxmath.obj
 0001:000001d1       ?init_D3DXVec2BaryCentric@@YGPAUD3DXVECTOR2@@PAU1@PBU1@11MM@Z 004011d1 f   d3dx8:d3dxmath.obj
 0001:00000200       ?c_D3DXVec2BaryCentric@@YGPAUD3DXVECTOR2@@PAU1@PBU1@11MM@Z 00401200 f   d3dx8:d3dxmath.obj
 0001:00000243       ?init_D3DXVec2Transform@@YGPAUD3DXVECTOR4@@PAU1@PBUD3DXVECTOR2@@PBUD3DXMATRIX@@@Z 00401243 f   d3dx8:d3dxmath.obj
 0001:00000250       ?init_D3DXVec2TransformCoord@@YGPAUD3DXVECTOR2@@PAU1@PBU1@PBUD3DXMATRIX@@@Z 00401250 f   d3dx8:d3dxmath.obj
 0001:0000025d       ?init_D3DXVec2TransformNormal@@YGPAUD3DXVECTOR2@@PAU1@PBU1@PBUD3DXMATRIX@@@Z 0040125d f   d3dx8:d3dxmath.obj
 0001:0000026a       ?init_D3DXVec3Normalize@@YGPAUD3DXVECTOR3@@PAU1@PBU1@@Z 0040126a f   d3dx8:d3dxmath.obj
 0001:00000277       _D3DXVec3Normalize@8       00401277 f   d3dx8:d3dxmath.obj
 0001:0000027d       ?init_D3DXVec3Hermite@@YGPAUD3DXVECTOR3@@PAU1@PBU1@111M@Z 0040127d f   d3dx8:d3dxmath.obj
 0001:000002a7       ?c_D3DXVec3Hermite@@YGPAUD3DXVECTOR3@@PAU1@PBU1@111M@Z 004012a7 f   d3dx8:d3dxmath.obj
 0001:00000355       ?init_D3DXVec3CatmullRom@@YGPAUD3DXVECTOR3@@PAU1@PBU1@111M@Z 00401355 f   d3dx8:d3dxmath.obj
 0001:0000037f       ?c_D3DXVec3CatmullRom@@YGPAUD3DXVECTOR3@@PAU1@PBU1@111M@Z 0040137f f   d3dx8:d3dxmath.obj
 0001:00000450       ?init_D3DXVec3BaryCentric@@YGPAUD3DXVECTOR3@@PAU1@PBU1@11MM@Z 00401450 f   d3dx8:d3dxmath.obj
 0001:0000047f       ?c_D3DXVec3BaryCentric@@YGPAUD3DXVECTOR3@@PAU1@PBU1@11MM@Z 0040147f f   d3dx8:d3dxmath.obj
 0001:000004dc       ?init_D3DXVec3Transform@@YGPAUD3DXVECTOR4@@PAU1@PBUD3DXVECTOR3@@PBUD3DXMATRIX@@@Z 004014dc f   d3dx8:d3dxmath.obj
 0001:000004e9       _D3DXVec3Transform@12      004014e9 f   d3dx8:d3dxmath.obj
 0001:000004ef       ?c_D3DXVec3Transform@@YGPAUD3DXVECTOR4@@PAU1@PBUD3DXVECTOR3@@PBUD3DXMATRIX@@@Z 004014ef f   d3dx8:d3dxmath.obj
 0001:0000057a       ?init_D3DXVec3TransformCoord@@YGPAUD3DXVECTOR3@@PAU1@PBU1@PBUD3DXMATRIX@@@Z 0040157a f   d3dx8:d3dxmath.obj
 0001:00000587       _D3DXVec3TransformCoord@12 00401587 f   d3dx8:d3dxmath.obj
 0001:0000058d       ?init_D3DXVec3TransformNormal@@YGPAUD3DXVECTOR3@@PAU1@PBU1@PBUD3DXMATRIX@@@Z 0040158d f   d3dx8:d3dxmath.obj
 0001:0000059a       _D3DXVec3TransformNormal@12 0040159a f   d3dx8:d3dxmath.obj
 0001:000005a0       ?c_D3DXVec3TransformNormal@@YGPAUD3DXVECTOR3@@PAU1@PBU1@PBUD3DXMATRIX@@@Z 004015a0 f   d3dx8:d3dxmath.obj
 0001:00000606       ?init_D3DXVec3Project@@YGPAUD3DXVECTOR3@@PAU1@PBU1@PBU_D3DVIEWPORT8@@PBUD3DXMATRIX@@33@Z 00401606 f   d3dx8:d3dxmath.obj
 0001:00000617       _D3DXVec3Project@24        00401617 f   d3dx8:d3dxmath.obj
 0001:0000061d       ?init_D3DXVec3Unproject@@YGPAUD3DXVECTOR3@@PAU1@PBU1@PBU_D3DVIEWPORT8@@PBUD3DXMATRIX@@33@Z 0040161d f   d3dx8:d3dxmath.obj
 0001:0000062e       ?init_D3DXVec4Cross@@YGPAUD3DXVECTOR4@@PAU1@PBU1@11@Z 0040162e f   d3dx8:d3dxmath.obj
 0001:0000063b       ?c_D3DXVec4Cross@@YGPAUD3DXVECTOR4@@PAU1@PBU1@11@Z 0040163b f   d3dx8:d3dxmath.obj
 0001:0000072b       ?init_D3DXVec4Normalize@@YGPAUD3DXVECTOR4@@PAU1@PBU1@@Z 0040172b f   d3dx8:d3dxmath.obj
 0001:00000738       ?init_D3DXVec4Hermite@@YGPAUD3DXVECTOR4@@PAU1@PBU1@111M@Z 00401738 f   d3dx8:d3dxmath.obj
 0001:00000762       ?c_D3DXVec4Hermite@@YGPAUD3DXVECTOR4@@PAU1@PBU1@111M@Z 00401762 f   d3dx8:d3dxmath.obj
 0001:00000833       ?init_D3DXVec4CatmullRom@@YGPAUD3DXVECTOR4@@PAU1@PBU1@111M@Z 00401833 f   d3dx8:d3dxmath.obj
 0001:0000085d       ?c_D3DXVec4CatmullRom@@YGPAUD3DXVECTOR4@@PAU1@PBU1@111M@Z 0040185d f   d3dx8:d3dxmath.obj
 0001:00000950       ?init_D3DXVec4BaryCentric@@YGPAUD3DXVECTOR4@@PAU1@PBU1@11MM@Z 00401950 f   d3dx8:d3dxmath.obj
 0001:0000097f       ?c_D3DXVec4BaryCentric@@YGPAUD3DXVECTOR4@@PAU1@PBU1@11MM@Z 0040197f f   d3dx8:d3dxmath.obj
 0001:000009f6       ?init_D3DXVec4Transform@@YGPAUD3DXVECTOR4@@PAU1@PBU1@PBUD3DXMATRIX@@@Z 004019f6 f   d3dx8:d3dxmath.obj
 0001:00000a03       _D3DXVec4Transform@12      00401a03 f   d3dx8:d3dxmath.obj
 0001:00000a09       ?c_D3DXVec4Transform@@YGPAUD3DXVECTOR4@@PAU1@PBU1@PBUD3DXMATRIX@@@Z 00401a09 f   d3dx8:d3dxmath.obj
 0001:00000aa8       ?init_D3DXMatrixfDeterminant@@YGMPBUD3DXMATRIX@@@Z 00401aa8 f   d3dx8:d3dxmath.obj
 0001:00000ab5       _D3DXMatrixfDeterminant@4  00401ab5 f   d3dx8:d3dxmath.obj
 0001:00000abb       ?c_D3DXMatrixfDeterminant@@YGMPBUD3DXMATRIX@@@Z 00401abb f   d3dx8:d3dxmath.obj
 0001:00000b85       ?init_D3DXMatrixMultiply@@YGPAUD3DXMATRIX@@PAU1@PBU1@1@Z 00401b85 f   d3dx8:d3dxmath.obj
 0001:00000b92       _D3DXMatrixMultiply@12     00401b92 f   d3dx8:d3dxmath.obj
 0001:00000b98       ?c_D3DXMatrixMultiply@@YGPAUD3DXMATRIX@@PAU1@PBU1@1@Z 00401b98 f   d3dx8:d3dxmath.obj
 0001:00000dce       ?init_D3DXMatrixTranspose@@YGPAUD3DXMATRIX@@PAU1@PBU1@@Z 00401dce f   d3dx8:d3dxmath.obj
 0001:00000ddb       _D3DXMatrixTranspose@8     00401ddb f   d3dx8:d3dxmath.obj
 0001:00000de1       ?c_D3DXMatrixTranspose@@YGPAUD3DXMATRIX@@PAU1@PBU1@@Z 00401de1 f   d3dx8:d3dxmath.obj
 0001:00000e4e       ?init_D3DXMatrixMultiplyTranspose@@YGPAUD3DXMATRIX@@PAU1@PBU1@1@Z 00401e4e f   d3dx8:d3dxmath.obj
 0001:00000e5b       ?c_D3DXMatrixMultiplyTranspose@@YGPAUD3DXMATRIX@@PAU1@PBU1@1@Z 00401e5b f   d3dx8:d3dxmath.obj
 0001:00001091       ?init_D3DXMatrixInverse@@YGPAUD3DXMATRIX@@PAU1@PAMPBU1@@Z 00402091 f   d3dx8:d3dxmath.obj
 0001:0000109e       _D3DXMatrixInverse@12      0040209e f   d3dx8:d3dxmath.obj
 0001:000010a4       ?c_D3DXMatrixInverse@@YGPAUD3DXMATRIX@@PAU1@PAMPBU1@@Z 004020a4 f   d3dx8:d3dxmath.obj
 0001:00001431       ?init_D3DXMatrixScaling@@YGPAUD3DXMATRIX@@PAU1@MMM@Z 00402431 f   d3dx8:d3dxmath.obj
 0001:0000145f       _D3DXMatrixScaling@16      0040245f f   d3dx8:d3dxmath.obj
 0001:00001465       ?c_D3DXMatrixScaling@@YGPAUD3DXMATRIX@@PAU1@MMM@Z 00402465 f   d3dx8:d3dxmath.obj
 0001:000014c1       ?init_D3DXMatrixTranslation@@YGPAUD3DXMATRIX@@PAU1@MMM@Z 004024c1 f   d3dx8:d3dxmath.obj
 0001:000014ef       _D3DXMatrixTranslation@16  004024ef f   d3dx8:d3dxmath.obj
 0001:000014f5       ?c_D3DXMatrixTranslation@@YGPAUD3DXMATRIX@@PAU1@MMM@Z 004024f5 f   d3dx8:d3dxmath.obj
 0001:00001551       ?init_D3DXMatrixRotationX@@YGPAUD3DXMATRIX@@PAU1@M@Z 00402551 f   d3dx8:d3dxmath.obj
 0001:0000156d       _D3DXMatrixRotationX@8     0040256d f   d3dx8:d3dxmath.obj
 0001:00001573       ?c_D3DXMatrixRotationX@@YGPAUD3DXMATRIX@@PAU1@M@Z 00402573 f   d3dx8:d3dxmath.obj
 0001:000015ed       ?init_D3DXMatrixRotationY@@YGPAUD3DXMATRIX@@PAU1@M@Z 004025ed f   d3dx8:d3dxmath.obj
 0001:00001609       ?c_D3DXMatrixRotationY@@YGPAUD3DXMATRIX@@PAU1@M@Z 00402609 f   d3dx8:d3dxmath.obj
 0001:00001684       ?init_D3DXMatrixRotationZ@@YGPAUD3DXMATRIX@@PAU1@M@Z 00402684 f   d3dx8:d3dxmath.obj
 0001:000016a0       _D3DXMatrixRotationZ@8     004026a0 f   d3dx8:d3dxmath.obj
 0001:000016a6       ?c_D3DXMatrixRotationZ@@YGPAUD3DXMATRIX@@PAU1@M@Z 004026a6 f   d3dx8:d3dxmath.obj
 0001:00001722       ?init_D3DXMatrixRotationAxis@@YGPAUD3DXMATRIX@@PAU1@PBUD3DXVECTOR3@@M@Z 00402722 f   d3dx8:d3dxmath.obj
 0001:00001742       _D3DXMatrixRotationAxis@12 00402742 f   d3dx8:d3dxmath.obj
 0001:00001748       ?c_D3DXMatrixRotationAxis@@YGPAUD3DXMATRIX@@PAU1@PBUD3DXVECTOR3@@M@Z 00402748 f   d3dx8:d3dxmath.obj
 0001:0000184a       ?init_D3DXMatrixRotationQuaternion@@YGPAUD3DXMATRIX@@PAU1@PBUD3DXQUATERNION@@@Z 0040284a f   d3dx8:d3dxmath.obj
 0001:00001857       _D3DXMatrixRotationQuaternion@8 00402857 f   d3dx8:d3dxmath.obj
 0001:0000185d       ?c_D3DXMatrixRotationQuaternion@@YGPAUD3DXMATRIX@@PAU1@PBUD3DXQUATERNION@@@Z 0040285d f   d3dx8:d3dxmath.obj
 0001:0000193f       ?init_D3DXMatrixRotationYawPitchRoll@@YGPAUD3DXMATRIX@@PAU1@MMM@Z 0040293f f   d3dx8:d3dxmath.obj
 0001:0000196d       _D3DXMatrixRotationYawPitchRoll@16 0040296d f   d3dx8:d3dxmath.obj
 0001:00001973       ?init_D3DXMatrixTransformation@@YGPAUD3DXMATRIX@@PAU1@PBUD3DXVECTOR3@@PBUD3DXQUATERNION@@1121@Z 00402973 f   d3dx8:d3dxmath.obj
 0001:00001984       ?init_D3DXMatrixAffineTransformation@@YGPAUD3DXMATRIX@@PAU1@MPBUD3DXVECTOR3@@PBUD3DXQUATERNION@@1@Z 00402984 f   d3dx8:d3dxmath.obj
 0001:000019ab       ?c_D3DXMatrixAffineTransformation@@YGPAUD3DXMATRIX@@PAU1@MPBUD3DXVECTOR3@@PBUD3DXQUATERNION@@1@Z 004029ab f   d3dx8:d3dxmath.obj
 0001:00001a91       _D3DXMatrixLookAtRH@16     00402a91 f   d3dx8:d3dxmath.obj
 0001:00001bd9       _D3DXMatrixPerspectiveFovRH@20 00402bd9 f   d3dx8:d3dxmath.obj
 0001:00001c6d       _D3DXMatrixOrthoRH@20      00402c6d f   d3dx8:d3dxmath.obj
 0001:00001cdf       _D3DXMatrixOrthoOffCenterRH@28 00402cdf f   d3dx8:d3dxmath.obj
 0001:00001d81       ?init_D3DXMatrixShadow@@YGPAUD3DXMATRIX@@PAU1@PBUD3DXVECTOR4@@PBUD3DXPLANE@@@Z 00402d81 f   d3dx8:d3dxmath.obj
 0001:00001d8e       ?init_D3DXMatrixReflect@@YGPAUD3DXMATRIX@@PAU1@PBUD3DXPLANE@@@Z 00402d8e f   d3dx8:d3dxmath.obj
 0001:00001d9b       ?init_D3DXQuaternionToAxisAngle@@YGXPBUD3DXQUATERNION@@PAUD3DXVECTOR3@@PAM@Z 00402d9b f   d3dx8:d3dxmath.obj
 0001:00001da8       ?c_D3DXQuaternionToAxisAngle@@YGXPBUD3DXQUATERNION@@PAUD3DXVECTOR3@@PAM@Z 00402da8 f   d3dx8:d3dxmath.obj
 0001:00001e45       ?init_D3DXQuaternionRotationMatrix@@YGPAUD3DXQUATERNION@@PAU1@PBUD3DXMATRIX@@@Z 00402e45 f   d3dx8:d3dxmath.obj
 0001:00001e52       ?c_D3DXQuaternionRotationMatrix@@YGPAUD3DXQUATERNION@@PAU1@PBUD3DXMATRIX@@@Z 00402e52 f   d3dx8:d3dxmath.obj
 0001:00001f86       ?init_D3DXQuaternionRotationAxis@@YGPAUD3DXQUATERNION@@PAU1@PBUD3DXVECTOR3@@M@Z 00402f86 f   d3dx8:d3dxmath.obj
 0001:00001fa6       _D3DXQuaternionRotationAxis@12 00402fa6 f   d3dx8:d3dxmath.obj
 0001:00001fac       ?c_D3DXQuaternionRotationAxis@@YGPAUD3DXQUATERNION@@PAU1@PBUD3DXVECTOR3@@M@Z 00402fac f   d3dx8:d3dxmath.obj
 0001:00002008       ?init_D3DXQuaternionRotationYawPitchRoll@@YGPAUD3DXQUATERNION@@PAU1@MMM@Z 00403008 f   d3dx8:d3dxmath.obj
 0001:00002036       _D3DXQuaternionRotationYawPitchRoll@16 00403036 f   d3dx8:d3dxmath.obj
 0001:0000203c       ?c_D3DXQuaternionRotationYawPitchRoll@@YGPAUD3DXQUATERNION@@PAU1@MMM@Z 0040303c f   d3dx8:d3dxmath.obj
 0001:00002115       ?init_D3DXQuaternionMultiply@@YGPAUD3DXQUATERNION@@PAU1@PBU1@1@Z 00403115 f   d3dx8:d3dxmath.obj
 0001:00002122       _D3DXQuaternionMultiply@12 00403122 f   d3dx8:d3dxmath.obj
 0001:00002128       ?c_D3DXQuaternionMultiply@@YGPAUD3DXQUATERNION@@PAU1@PBU1@1@Z 00403128 f   d3dx8:d3dxmath.obj
 0001:000021be       ?init_D3DXQuaternionNormalize@@YGPAUD3DXQUATERNION@@PAU1@PBU1@@Z 004031be f   d3dx8:d3dxmath.obj
 0001:000021cb       ?c_D3DXQuaternionNormalize@@YGPAUD3DXQUATERNION@@PAU1@PBU1@@Z 004031cb f   d3dx8:d3dxmath.obj
 0001:000021cb       ?c_D3DXVec4Normalize@@YGPAUD3DXVECTOR4@@PAU1@PBU1@@Z 004031cb f   d3dx8:d3dxmath.obj
 0001:00002284       ?init_D3DXQuaternionInverse@@YGPAUD3DXQUATERNION@@PAU1@PBU1@@Z 00403284 f   d3dx8:d3dxmath.obj
 0001:00002291       _D3DXQuaternionInverse@8   00403291 f   d3dx8:d3dxmath.obj
 0001:00002297       ?c_D3DXQuaternionInverse@@YGPAUD3DXQUATERNION@@PAU1@PBU1@@Z 00403297 f   d3dx8:d3dxmath.obj
 0001:0000234b       _D3DXQuaternionLn@8        0040334b f   d3dx8:d3dxmath.obj
 0001:00002351       ?c_D3DXQuaternionLn@@YGPAUD3DXQUATERNION@@PAU1@PBU1@@Z 00403351 f   d3dx8:d3dxmath.obj
 0001:000023cf       _D3DXQuaternionExp@8       004033cf f   d3dx8:d3dxmath.obj
 0001:000023d5       ?c_D3DXQuaternionExp@@YGPAUD3DXQUATERNION@@PAU1@PBU1@@Z 004033d5 f   d3dx8:d3dxmath.obj
 0001:00002470       ?init_D3DXQuaternionSlerp@@YGPAUD3DXQUATERNION@@PAU1@PBU1@1M@Z 00403470 f   d3dx8:d3dxmath.obj
 0001:00002494       _D3DXQuaternionSlerp@16    00403494 f   d3dx8:d3dxmath.obj
 0001:0000249a       ?c_D3DXQuaternionSlerp@@YGPAUD3DXQUATERNION@@PAU1@PBU1@1M@Z 0040349a f   d3dx8:d3dxmath.obj
 0001:0000257d       ?init_D3DXQuaternionSquad@@YGPAUD3DXQUATERNION@@PAU1@PBU1@111M@Z 0040357d f   d3dx8:d3dxmath.obj
 0001:000025a7       ?c_D3DXQuaternionSquad@@YGPAUD3DXQUATERNION@@PAU1@PBU1@111M@Z 004035a7 f   d3dx8:d3dxmath.obj
 0001:000025fe       ?init_D3DXQuaternionSquadSetup@@YGXPAUD3DXQUATERNION@@00PBU1@111@Z 004035fe f   d3dx8:d3dxmath.obj
 0001:0000260f       ?init_D3DXQuaternionBaryCentric@@YGPAUD3DXQUATERNION@@PAU1@PBU1@11MM@Z 0040360f f   d3dx8:d3dxmath.obj
 0001:0000263e       ?c_D3DXQuaternionBaryCentric@@YGPAUD3DXQUATERNION@@PAU1@PBU1@11MM@Z 0040363e f   d3dx8:d3dxmath.obj
 0001:000026c9       ?init_D3DXPlaneNormalize@@YGPAUD3DXPLANE@@PAU1@PBU1@@Z 004036c9 f   d3dx8:d3dxmath.obj
 0001:000026d6       _D3DXPlaneNormalize@8      004036d6 f   d3dx8:d3dxmath.obj
 0001:000026dc       ?c_D3DXPlaneNormalize@@YGPAUD3DXPLANE@@PAU1@PBU1@@Z 004036dc f   d3dx8:d3dxmath.obj
 0001:00002780       ?init_D3DXPlaneIntersectLine@@YGPAUD3DXVECTOR3@@PAU1@PBUD3DXPLANE@@PBU1@2@Z 00403780 f   d3dx8:d3dxmath.obj
 0001:0000278d       ?c_D3DXPlaneIntersectLine@@YGPAUD3DXVECTOR3@@PAU1@PBUD3DXPLANE@@PBU1@2@Z 0040378d f   d3dx8:d3dxmath.obj
 0001:0000282f       ?init_D3DXPlaneFromPointNormal@@YGPAUD3DXPLANE@@PAU1@PBUD3DXVECTOR3@@1@Z 0040382f f   d3dx8:d3dxmath.obj
 0001:0000283c       ?c_D3DXPlaneFromPointNormal@@YGPAUD3DXPLANE@@PAU1@PBUD3DXVECTOR3@@1@Z 0040383c f   d3dx8:d3dxmath.obj
 0001:00002874       ?init_D3DXPlaneFromPoints@@YGPAUD3DXPLANE@@PAU1@PBUD3DXVECTOR3@@11@Z 00403874 f   d3dx8:d3dxmath.obj
 0001:00002881       ?c_D3DXPlaneFromPoints@@YGPAUD3DXPLANE@@PAU1@PBUD3DXVECTOR3@@11@Z 00403881 f   d3dx8:d3dxmath.obj
 0001:00002923       ?init_D3DXPlaneTransform@@YGPAUD3DXPLANE@@PAU1@PBU1@PBUD3DXMATRIX@@@Z 00403923 f   d3dx8:d3dxmath.obj
 0001:00002930       ?c_D3DXPlaneTransform@@YGPAUD3DXPLANE@@PAU1@PBU1@PBUD3DXMATRIX@@@Z 00403930 f   d3dx8:d3dxmath.obj
 0001:000029cf       ?c_D3DXVec2Normalize@@YGPAUD3DXVECTOR2@@PAU1@PBU1@@Z 004039cf f   d3dx8:d3dxmath.obj
 0001:00002a5c       ?c_D3DXVec2Transform@@YGPAUD3DXVECTOR4@@PAU1@PBUD3DXVECTOR2@@PBUD3DXMATRIX@@@Z 00403a5c f   d3dx8:d3dxmath.obj
 0001:00002ac7       ?c_D3DXVec2TransformCoord@@YGPAUD3DXVECTOR2@@PAU1@PBU1@PBUD3DXMATRIX@@@Z 00403ac7 f   d3dx8:d3dxmath.obj
 0001:00002b47       ?c_D3DXVec2TransformNormal@@YGPAUD3DXVECTOR2@@PAU1@PBU1@PBUD3DXMATRIX@@@Z 00403b47 f   d3dx8:d3dxmath.obj
 0001:00002b83       ?c_D3DXVec3Normalize@@YGPAUD3DXVECTOR3@@PAU1@PBU1@@Z 00403b83 f   d3dx8:d3dxmath.obj
 0001:00002c23       ?c_D3DXVec3TransformCoord@@YGPAUD3DXVECTOR3@@PAU1@PBU1@PBUD3DXMATRIX@@@Z 00403c23 f   d3dx8:d3dxmath.obj
 0001:00002ce2       ?c_D3DXVec3Project@@YGPAUD3DXVECTOR3@@PAU1@PBU1@PBU_D3DVIEWPORT8@@PBUD3DXMATRIX@@33@Z 00403ce2 f   d3dx8:d3dxmath.obj
 0001:00002e72       ?c_D3DXVec3Unproject@@YGPAUD3DXVECTOR3@@PAU1@PBU1@PBU_D3DVIEWPORT8@@PBUD3DXMATRIX@@33@Z 00403e72 f   d3dx8:d3dxmath.obj
 0001:00003018       ?c_D3DXMatrixRotationYawPitchRoll@@YGPAUD3DXMATRIX@@PAU1@MMM@Z 00404018 f   d3dx8:d3dxmath.obj
 0001:00003051       ?c_D3DXMatrixTransformation@@YGPAUD3DXMATRIX@@PAU1@PBUD3DXVECTOR3@@PBUD3DXQUATERNION@@1121@Z 00404051 f   d3dx8:d3dxmath.obj
 0001:00003305       ?c_D3DXMatrixShadow@@YGPAUD3DXMATRIX@@PAU1@PBUD3DXVECTOR4@@PBUD3DXPLANE@@@Z 00404305 f   d3dx8:d3dxmath.obj
 0001:000033df       ?c_D3DXMatrixReflect@@YGPAUD3DXMATRIX@@PAU1@PBUD3DXPLANE@@@Z 004043df f   d3dx8:d3dxmath.obj
 0001:0000349e       ?c_D3DXQuaternionSquadSetup@@YGXPAUD3DXQUATERNION@@00PBU1@111@Z 0040449e f   d3dx8:d3dxmath.obj
 0001:00003878       ??_H@YGXPAXIHP6EPAX0@Z@Z   00404878 f i d3dx8:cstack.obj
 0001:0000389a       ?AddRef@CD3DXMatrixStack@@UAGKXZ 0040489a f   d3dx8:cstack.obj
 0001:000038a7       ?Pop@CD3DXMatrixStack@@UAGJXZ 004048a7 f   d3dx8:cstack.obj
 0001:000038bb       ?GetTop@CD3DXMatrixStack@@UAGPAUD3DXMATRIX@@XZ 004048bb f   d3dx8:cstack.obj
 0001:000038cb       ??_U_D3DXMATRIXA16@@SAPAXI@Z 004048cb f i d3dx8:cstack.obj
 0001:000038ef       ??_V_D3DXMATRIXA16@@SAXPAX@Z 004048ef f i d3dx8:cstack.obj
 0001:00003905       ??1CD3DXMatrixStack@@QAE@XZ 00404905 f   d3dx8:cstack.obj
 0001:0000391a       ?Initialize@CD3DXMatrixStack@@QAEJH@Z 0040491a f   d3dx8:cstack.obj
 0001:00003988       ?QueryInterface@CD3DXMatrixStack@@UAGJABU_GUID@@PAPAX@Z 00404988 f   d3dx8:cstack.obj
 0001:000039d7       ??_GCD3DXMatrixStack@@QAEPAXI@Z 004049d7 f i d3dx8:cstack.obj
 0001:000039f3       ?Push@CD3DXMatrixStack@@UAGJXZ 004049f3 f   d3dx8:cstack.obj
 0001:00003aa9       ?LoadIdentity@CD3DXMatrixStack@@UAGJXZ 00404aa9 f   d3dx8:cstack.obj
 0001:00003b0a       ?LoadMatrix@CD3DXMatrixStack@@UAGJPBUD3DXMATRIX@@@Z 00404b0a f   d3dx8:cstack.obj
 0001:00003b29       ?MultMatrix@CD3DXMatrixStack@@UAGJPBUD3DXMATRIX@@@Z 00404b29 f   d3dx8:cstack.obj
 0001:00003b73       ?MultMatrixLocal@CD3DXMatrixStack@@UAGJPBUD3DXMATRIX@@@Z 00404b73 f   d3dx8:cstack.obj
 0001:00003bbd       ?RotateAxis@CD3DXMatrixStack@@UAGJPBUD3DXVECTOR3@@M@Z 00404bbd f   d3dx8:cstack.obj
 0001:00003c2c       ?RotateAxisLocal@CD3DXMatrixStack@@UAGJPBUD3DXVECTOR3@@M@Z 00404c2c f   d3dx8:cstack.obj
 0001:00003c9b       ?RotateYawPitchRoll@CD3DXMatrixStack@@UAGJMMM@Z 00404c9b f   d3dx8:cstack.obj
 0001:00003d17       ?RotateYawPitchRollLocal@CD3DXMatrixStack@@UAGJMMM@Z 00404d17 f   d3dx8:cstack.obj
 0001:00003d93       ?Scale@CD3DXMatrixStack@@UAGJMMM@Z 00404d93 f   d3dx8:cstack.obj
 0001:00003e0f       ?ScaleLocal@CD3DXMatrixStack@@UAGJMMM@Z 00404e0f f   d3dx8:cstack.obj
 0001:00003e8b       ?Translate@CD3DXMatrixStack@@UAGJMMM@Z 00404e8b f   d3dx8:cstack.obj
 0001:00003f07       ?TranslateLocal@CD3DXMatrixStack@@UAGJMMM@Z 00404f07 f   d3dx8:cstack.obj
 0001:00003f83       ??0CD3DXMatrixStack@@QAE@XZ 00404f83 f   d3dx8:cstack.obj
 0001:00003f9e       ?Release@CD3DXMatrixStack@@UAGKXZ 00404f9e f   d3dx8:cstack.obj
 0001:00003fba       _D3DXCreateMatrixStack@8   00404fba f   d3dx8:cstack.obj
 0001:000043f8       _D3DXCreateCylinder@32     004053f8 f   d3dx8:shapes.obj
 0001:00004875       _D3DXCreateSphere@24       00405875 f   d3dx8:shapes.obj
 0001:000049bb       ?D3DXGetFormatInfo@@YAPBU_D3DXFORMAT_INFO@@W4_D3DFORMAT@@@Z 004059bb f   d3dx8:d3dx8tex.obj
 0001:00004a54       ?D3DXFindClosestDeviceFormat@@YA?AW4_D3DFORMAT@@PAUIDirect3DDevice8@@KW4_D3DRESOURCETYPE@@PBU_D3DXFORMAT_INFO@@@Z 00405a54 f   d3dx8:d3dx8tex.obj
 0001:00004b36       ?D3DXFindClosestExternalFormat@@YA?AW4_D3DFORMAT@@W41@@Z 00405b36 f   d3dx8:d3dx8tex.obj
 0001:00004b67       _D3DXLoadSurfaceFromMemory@40 00405b67 f   d3dx8:d3dx8tex.obj
 0001:00004c46       _D3DXLoadVolumeFromMemory@44 00405c46 f   d3dx8:d3dx8tex.obj
 0001:00005043       _D3DXCheckTextureRequirements@28 00406043 f   d3dx8:d3dx8tex.obj
 0001:0000506b       _D3DXCreateTexture@32      0040606b f   d3dx8:d3dx8tex.obj
 0001:000050d1       _D3DXLoadSurfaceFromSurface@32 004060d1 f   d3dx8:d3dx8tex.obj
 0001:00005277       _D3DXLoadVolumeFromVolume@32 00406277 f   d3dx8:d3dx8tex.obj
 0001:000052fd       _D3DXFilterTexture@16      004062fd f   d3dx8:d3dx8tex.obj
 0001:00005c54       _D3DXCreateTextureFromFileInMemoryEx@60 00406c54 f   d3dx8:d3dx8tex.obj
 0001:00005c94       ?SwapFaceNeighbors@@YAXIIPAK@Z 00406c94 f i d3dx8:createmesh.obj
 0001:00005cc8       ?RemapFaceNeighbors@@YAXIPAIPAK@Z 00406cc8 f i d3dx8:createmesh.obj
 0001:00005cf9       ?ReorderNeighborData@@YAJPAIPAKK@Z 00406cf9 f i d3dx8:createmesh.obj
 0001:00005d9d       _D3DXCreateBuffer@8        00406d9d f   d3dx8:createmesh.obj
 0001:00005df0       _D3DXGetFVFVertexSize@4    00406df0 f   d3dx8:createmesh.obj
 0001:00005e98       _D3DXFVFFromDeclarator@8   00406e98 f   d3dx8:createmesh.obj
 0001:00005ffa       ?CmpFunc@@YAHPBX0@Z        00406ffa f   d3dx8:createmesh.obj
 0001:00006007       ??0DXCrackFVF@@QAE@K@Z     00407007 f i d3dx8:createmesh.obj
 0001:000060cf       ?SetNormal@DXCrackFVF@@QAEXPAXPAUD3DXVECTOR3@@@Z 004070cf f i d3dx8:createmesh.obj
 0001:000060eb       ?SetIndices@DXCrackFVF@@QAEXPAXK@Z 004070eb f i d3dx8:createmesh.obj
 0001:00006107       ?CbTexCoordSize@DXCrackFVF@@QAEKK@Z 00407107 f i d3dx8:createmesh.obj
 0001:0000612b       ?GetTexCoordSizes@DXCrackFVF@@QAEXPAK@Z 0040712b f i d3dx8:createmesh.obj
 0001:0000616c       ??1?$GXTri3Mesh@I$0A@$0?0@@QAE@XZ 0040716c f i d3dx8:createmesh.obj
 0001:000061e6       ?AddRef@?$GXTri3Mesh@I$0A@$0?0@@UAGKXZ 004071e6 f i d3dx8:createmesh.obj
 0001:000061e6       ?AddRef@?$GXTri3Mesh@G$00$0PPPP@@@UAGKXZ 004071e6 f i d3dx8:createmesh.obj
 0001:00006202       ?GetDevice@?$GXTri3Mesh@G$00$0PPPP@@@UAGJPAPAUIDirect3DDevice8@@@Z 00407202 f i d3dx8:createmesh.obj
 0001:00006202       ?GetDevice@?$GXTri3Mesh@I$0A@$0?0@@UAGJPAPAUIDirect3DDevice8@@@Z 00407202 f i d3dx8:createmesh.obj
 0001:0000622c       ?LockVertexBuffer@?$GXTri3Mesh@I$0A@$0?0@@UAGJKPAPAE@Z 0040722c f i d3dx8:createmesh.obj
 0001:0000622c       ?LockVertexBuffer@?$GXTri3Mesh@G$00$0PPPP@@@UAGJKPAPAE@Z 0040722c f i d3dx8:createmesh.obj
 0001:0000624f       ?UnlockVertexBuffer@?$GXTri3Mesh@I$0A@$0?0@@UAGJXZ 0040724f f i d3dx8:createmesh.obj
 0001:0000624f       ?UnlockVertexBuffer@?$GXTri3Mesh@G$00$0PPPP@@@UAGJXZ 0040724f f i d3dx8:createmesh.obj
 0001:0000625f       ?LockIndexBuffer@?$GXTri3Mesh@I$0A@$0?0@@UAGJKPAPAE@Z 0040725f f i d3dx8:createmesh.obj
 0001:0000625f       ?LockIndexBuffer@?$GXTri3Mesh@G$00$0PPPP@@@UAGJKPAPAE@Z 0040725f f i d3dx8:createmesh.obj
 0001:00006282       ?UnlockIndexBuffer@?$GXTri3Mesh@I$0A@$0?0@@UAGJXZ 00407282 f i d3dx8:createmesh.obj
 0001:00006282       ?UnlockIndexBuffer@?$GXTri3Mesh@G$00$0PPPP@@@UAGJXZ 00407282 f i d3dx8:createmesh.obj
 0001:00006292       ?LockAttributeBuffer@?$GXTri3Mesh@G$00$0PPPP@@@UAGJKPAPAK@Z 00407292 f i d3dx8:createmesh.obj
 0001:00006292       ?LockAttributeBuffer@?$GXTri3Mesh@I$0A@$0?0@@UAGJKPAPAK@Z 00407292 f i d3dx8:createmesh.obj
 0001:000062d0       _InPlace_OnInPlaceDeactivate@4 004072d0 f i CWebBrowser:CWebBrowser.obj
 0001:000062d0       _InPlace_OnInPlaceActivate@4 004072d0 f i CWebBrowser:CWebBrowser.obj
 0001:000062d0       _InPlace_CanInPlaceActivate@4 004072d0 f i CWebBrowser:CWebBrowser.obj
 0001:000062d0       ?UnlockAttributeBuffer@?$GXTri3Mesh@G$00$0PPPP@@@UAGJXZ 004072d0 f i d3dx8:createmesh.obj
 0001:000062d0       _UI_UpdateUI@4             004072d0 f i CWebBrowser:CWebBrowser.obj
 0001:000062d0       ?UnlockAttributeBuffer@?$GXTri3Mesh@I$0A@$0?0@@UAGJXZ 004072d0 f i d3dx8:createmesh.obj
 0001:000062d0       _InPlace_OnUIActivate@4    004072d0 f i CWebBrowser:CWebBrowser.obj
 0001:000062d0       _UI_HideUI@4               004072d0 f i CWebBrowser:CWebBrowser.obj
 0001:000062d0       _Site_ShowObject@4         004072d0 f i CWebBrowser:CWebBrowser.obj
 0001:000062d5       ?QueryInterface@?$GXTri3Mesh@I$0A@$0?0@@UAGJABU_GUID@@PAPAX@Z 004072d5 f i d3dx8:createmesh.obj
 0001:000062d5       ?QueryInterface@?$GXTri3Mesh@G$00$0PPPP@@@UAGJABU_GUID@@PAPAX@Z 004072d5 f i d3dx8:createmesh.obj
 0001:00006343       ?GetNumFaces@?$GXTri3Mesh@I$0A@$0?0@@UAGKXZ 00407343 f i d3dx8:createmesh.obj
 0001:00006343       ?GetNumFaces@?$GXTri3Mesh@G$00$0PPPP@@@UAGKXZ 00407343 f i d3dx8:createmesh.obj
 0001:0000634d       ?GetNumVertices@?$GXTri3Mesh@I$0A@$0?0@@UAGKXZ 0040734d f i d3dx8:createmesh.obj
 0001:0000634d       ?GetNumVertices@?$GXTri3Mesh@G$00$0PPPP@@@UAGKXZ 0040734d f i d3dx8:createmesh.obj
 0001:00006357       ?GetFVF@?$GXTri3Mesh@G$00$0PPPP@@@UAGKXZ 00407357 f i d3dx8:createmesh.obj
 0001:00006357       ?GetFVF@?$GXTri3Mesh@I$0A@$0?0@@UAGKXZ 00407357 f i d3dx8:createmesh.obj
 0001:00006361       ?GetOptions@?$GXTri3Mesh@G$00$0PPPP@@@UAGKXZ 00407361 f i d3dx8:createmesh.obj
 0001:00006361       ?GetBufferSize@CD3DXBuffer@@UAGKXZ 00407361 f i d3dx8:cd3dxbuffer.obj
 0001:00006361       ?GetOptions@?$GXTri3Mesh@I$0A@$0?0@@UAGKXZ 00407361 f i d3dx8:createmesh.obj
 0001:0000636b       ?CloneMesh@?$GXTri3Mesh@G$00$0PPPP@@@UAGJKPBKPAUIDirect3DDevice8@@PAPAUID3DXMesh@@@Z 0040736b f i d3dx8:createmesh.obj
 0001:0000636b       ?CloneMesh@?$GXTri3Mesh@I$0A@$0?0@@UAGJKPBKPAUIDirect3DDevice8@@PAPAUID3DXMesh@@@Z 0040736b f i d3dx8:createmesh.obj
 0001:000063a5       ?GetVertexBuffer@?$GXTri3Mesh@G$00$0PPPP@@@UAGJPAPAUIDirect3DVertexBuffer8@@@Z 004073a5 f i d3dx8:createmesh.obj
 0001:000063a5       ?GetVertexBuffer@?$GXTri3Mesh@I$0A@$0?0@@UAGJPAPAUIDirect3DVertexBuffer8@@@Z 004073a5 f i d3dx8:createmesh.obj
 0001:000063cb       ?GetIndexBuffer@?$GXTri3Mesh@I$0A@$0?0@@UAGJPAPAUIDirect3DIndexBuffer8@@@Z 004073cb f i d3dx8:createmesh.obj
 0001:000063cb       ?GetIndexBuffer@?$GXTri3Mesh@G$00$0PPPP@@@UAGJPAPAUIDirect3DIndexBuffer8@@@Z 004073cb f i d3dx8:createmesh.obj
 0001:000063f1       ?GetAttributeTable@?$GXTri3Mesh@I$0A@$0?0@@UAGJPAU_D3DXATTRIBUTERANGE@@PAK@Z 004073f1 f i d3dx8:createmesh.obj
 0001:000063f1       ?GetAttributeTable@?$GXTri3Mesh@G$00$0PPPP@@@UAGJPAU_D3DXATTRIBUTERANGE@@PAK@Z 004073f1 f i d3dx8:createmesh.obj
 0001:00006431       ??1?$GXTri3Mesh@G$00$0PPPP@@@QAE@XZ 00407431 f i d3dx8:createmesh.obj
 0001:000064ab       ?LockVB@?$GXTri3Mesh@I$0A@$0?0@@QAEJPAPAEK@Z 004074ab f i d3dx8:createmesh.obj
 0001:000064ab       ?LockVB@?$GXTri3Mesh@G$00$0PPPP@@@QAEJPAPAEK@Z 004074ab f i d3dx8:createmesh.obj
 0001:000064ca       ?LockIB@?$GXTri3Mesh@I$0A@$0?0@@QAEJPAPAEK@Z 004074ca f i d3dx8:createmesh.obj
 0001:000064ca       ?LockIB@?$GXTri3Mesh@G$00$0PPPP@@@QAEJPAPAEK@Z 004074ca f i d3dx8:createmesh.obj
 0001:000064e9       ??0?$CFaceListIter@G$00$0PPPP@@@QAE@PAV?$GXTri3Mesh@G$00$0PPPP@@@@Z 004074e9 f i d3dx8:createmesh.obj
 0001:0000650e       ?FindWedge@?$GXTri3Mesh@I$0A@$0?0@@ABEIPAII@Z 0040750e f i d3dx8:createmesh.obj
 0001:00006537       ?FindWedge@?$GXTri3Mesh@G$00$0PPPP@@@ABEIPAGI@Z 00407537 f i d3dx8:createmesh.obj
 0001:0000656b       ?ResizeDynamicArray@@YAHPAPAV?$NeighborInfo@I@@IIPAI@Z 0040756b f i d3dx8:createmesh.obj
 0001:00006663       ?ResizeDynamicArray@@YAHPAPAKIIPAI@Z 00407663 f i d3dx8:createmesh.obj
 0001:00006663       ?ResizeDynamicArray@@YAHPAPAIIIPAI@Z 00407663 f i d3dx8:createmesh.obj
 0001:000066ed       ?ResizeDynamicArray@@YAHPAPAGIIPAI@Z 004076ed f i d3dx8:createmesh.obj
 0001:00006774       ?FindEdge@@YAIPBKK@Z       00407774 f i d3dx8:createmesh.obj
 0001:00006774       ?FindEdge@@YAIPAII@Z       00407774 f i d3dx8:createmesh.obj
 0001:0000678a       ?ResizeDynamicArray@@YAHPAPAV?$NeighborInfo@G@@IIPAI@Z 0040778a f i d3dx8:createmesh.obj
 0001:00006880       ?FindEdge@@YAIPAGG@Z       00407880 f i d3dx8:createmesh.obj
 0001:00006898       ?Compact@?$GXTri3Mesh@I$0A@$0?0@@AAEJPAI00@Z 00407898 f i d3dx8:createmesh.obj
 0001:00006950       ?VertexOptimize@?$GXTri3Mesh@I$0A@$0?0@@AAEJPAI0@Z 00407950 f i d3dx8:createmesh.obj
 0001:000069b6       ?CollectAttributeIds@?$GXTri3Mesh@I$0A@$0?0@@AAEJPAPAKPAK@Z 004079b6 f i d3dx8:createmesh.obj
 0001:00006ae4       ?Compact@?$GXTri3Mesh@G$00$0PPPP@@@AAEJPAI00@Z 00407ae4 f i d3dx8:createmesh.obj
 0001:00006bca       ?VertexOptimize@?$GXTri3Mesh@G$00$0PPPP@@@AAEJPAI0@Z 00407bca f i d3dx8:createmesh.obj
 0001:00006c4c       ?CollectAttributeIds@?$GXTri3Mesh@G$00$0PPPP@@@AAEJPAPAKPAK@Z 00407c4c f i d3dx8:createmesh.obj
 0001:00006d7c       ?AddToDynamicArray@@YAHPAPAKABKPAI2@Z 00407d7c f i d3dx8:createmesh.obj
 0001:00006d7c       ?AddToDynamicArray@@YAHPAPAIABIPAI2@Z 00407d7c f i d3dx8:createmesh.obj
 0001:00006e1a       ?AddToDynamicArray@@YAHPAPAGABGPAI2@Z 00407e1a f i d3dx8:createmesh.obj
 0001:00006ebb       ?RemapVertex@?$GXTri3Mesh@I$0A@$0?0@@AAEXIPAI@Z 00407ebb f i d3dx8:createmesh.obj
 0001:00006ed9       ?RemapFace@?$GXTri3Mesh@I$0A@$0?0@@AAEXIPAI0@Z 00407ed9 f i d3dx8:createmesh.obj
 0001:00006f30       ?SwapVertex@?$GXTri3Mesh@I$0A@$0?0@@AAEXIIPAE@Z 00407f30 f i d3dx8:createmesh.obj
 0001:00006fca       ?SwapFace@?$GXTri3Mesh@I$0A@$0?0@@AAEXII@Z 00407fca f i d3dx8:createmesh.obj
 0001:0000709d       ??0?$CMeshStatus@I$0A@$0?0@@QAE@PAV?$GXTri3Mesh@I$0A@$0?0@@PAV?$NeighborInfo@I@@I@Z 0040809d f i d3dx8:createmesh.obj
 0001:000070be       ??1?$CMeshStatus@I$0A@$0?0@@QAE@XZ 004080be f i d3dx8:createmesh.obj
 0001:000070d5       ?RemapVertex@?$GXTri3Mesh@G$00$0PPPP@@@AAEXIPAI@Z 004080d5 f i d3dx8:createmesh.obj
 0001:000070f6       ?RemapFace@?$GXTri3Mesh@G$00$0PPPP@@@AAEXIPAI0@Z 004080f6 f i d3dx8:createmesh.obj
 0001:0000715a       ?SwapVertex@?$GXTri3Mesh@G$00$0PPPP@@@AAEXIIPAE@Z 0040815a f i d3dx8:createmesh.obj
 0001:000071f7       ?SwapFace@?$GXTri3Mesh@G$00$0PPPP@@@AAEXII@Z 004081f7 f i d3dx8:createmesh.obj
 0001:000072d3       ??0?$CMeshStatus@G$00$0PPPP@@@QAE@PAV?$GXTri3Mesh@G$00$0PPPP@@@PAV?$NeighborInfo@G@@G@Z 004082d3 f i d3dx8:createmesh.obj
 0001:000072f6       ??1?$CMeshStatus@G$00$0PPPP@@@QAE@XZ 004082f6 f i d3dx8:createmesh.obj
 0001:0000730d       ?IFindInitialFace@?$CMeshStatus@I$0A@$0?0@@QAEIXZ 0040830d f i d3dx8:createmesh.obj
 0001:0000732c       ?IFindInitialFace@?$CMeshStatus@G$00$0PPPP@@@QAEGXZ 0040832c f i d3dx8:createmesh.obj
 0001:00007355       ?Init@?$CIndexQueue@I$0?0@@QAEJXZ 00408355 f i d3dx8:createmesh.obj
 0001:0000739c       ?BElementPresent@?$CIndexQueue@I$0?0@@QAE_NI@Z 0040839c f i d3dx8:createmesh.obj
 0001:000073c3       ?InsertElement@?$CIndexQueue@I$0?0@@QAEXI@Z 004083c3 f i d3dx8:createmesh.obj
 0001:000073e7       ?Init@?$CIndexQueue@G$0PPPP@@@QAEJXZ 004083e7 f i d3dx8:createmesh.obj
 0001:0000742f       ?BElementPresent@?$CIndexQueue@G$0PPPP@@@QAE_NG@Z 0040842f f i d3dx8:createmesh.obj
 0001:00007457       ?InsertElement@?$CIndexQueue@G$0PPPP@@@QAEXG@Z 00408457 f i d3dx8:createmesh.obj
 0001:0000747d       ?ClwFaceCorner@?$GXTri3Mesh@I$0A@$0?0@@AAE?AUSFaceCorner@@AAU2@@Z 0040847d f i d3dx8:createmesh.obj
 0001:0000747d       ?ClwFaceCorner@?$GXTri3Mesh@G$00$0PPPP@@@AAE?AUSFaceCorner@@AAU2@@Z 0040847d f i d3dx8:createmesh.obj
 0001:0000749d       ?CcwCorner@?$GXTri3Mesh@I$0A@$0?0@@AAE?AUSFaceCorner@@AAU2@PAV?$CMeshStatus@I$0A@$0?0@@@Z 0040849d f i d3dx8:createmesh.obj
 0001:000074e8       ?CcwCorner@?$GXTri3Mesh@G$00$0PPPP@@@AAE?AUSFaceCorner@@AAU2@PAV?$CMeshStatus@G$00$0PPPP@@@@Z 004084e8 f i d3dx8:createmesh.obj
 0001:0000753b       ?RemoveElement@?$CMeshStatus@I$0A@$0?0@@AAEXI@Z 0040853b f i d3dx8:createmesh.obj
 0001:000075a2       ?PrependElement@?$CMeshStatus@I$0A@$0?0@@AAEXI@Z 004085a2 f i d3dx8:createmesh.obj
 0001:000075e1       ?DecrementCount@?$CMeshStatus@I$0A@$0?0@@AAEXI@Z 004085e1 f i d3dx8:createmesh.obj
 0001:0000760b       ?RemoveElement@?$CMeshStatus@G$00$0PPPP@@@AAEXG@Z 0040860b f i d3dx8:createmesh.obj
 0001:0000768f       ?PrependElement@?$CMeshStatus@G$00$0PPPP@@@AAEXG@Z 0040868f f i d3dx8:createmesh.obj
 0001:000076db       ?DecrementCount@?$CMeshStatus@G$00$0PPPP@@@AAEXG@Z 004086db f i d3dx8:createmesh.obj
 0001:0000770c       ??0SVertexCopyContext@@QAE@KK@Z 0040870c f i d3dx8:createmesh.obj
 0001:00007874       ?CopyVertex@SVertexCopyContext@@QAEXPAE0@Z 00408874 f i d3dx8:createmesh.obj
 0001:00007a9f       ?FVFSize@@YAKK@Z           00408a9f f i d3dx8:createmesh.obj
 0001:00007ab5       _D3DXDeclaratorFromFVF@8   00408ab5 f   d3dx8:createmesh.obj
 0001:00007bd8       ?DrawSubset@?$GXTri3Mesh@I$0A@$0?0@@UAGJK@Z 00408bd8 f i d3dx8:createmesh.obj
 0001:00007ea4       ?GetDeclaration@?$GXTri3Mesh@G$00$0PPPP@@@UAGJQAK@Z 00408ea4 f i d3dx8:createmesh.obj
 0001:00007ea4       ?GetDeclaration@?$GXTri3Mesh@I$0A@$0?0@@UAGJQAK@Z 00408ea4 f i d3dx8:createmesh.obj
 0001:00007eb7       ?ConvertPointRepsToAdjacency@?$GXTri3Mesh@I$0A@$0?0@@UAGJPBKPAK@Z 00408eb7 f i d3dx8:createmesh.obj
 0001:000082e4       ?HashRemove@@YAXKKKPAPAUhashentry@@K@Z 004092e4 f i d3dx8:createmesh.obj
 0001:00008332       ?HashFind@@YAKKKKPAPAUhashentry@@KKPAEK@Z 00409332 f i d3dx8:createmesh.obj
 0001:00008410       ?CalculateDiff@@YAMKKKKKKPAEK@Z 00409410 f i d3dx8:createmesh.obj
 0001:00008556       ?Resize@?$GXTri3Mesh@I$0A@$0?0@@QAEJII@Z 00409556 f i d3dx8:createmesh.obj
 0001:00008a25       ?BValid@?$GXTri3Mesh@I$0A@$0?0@@EAE_NPAV?$GXTri3Face@I@@@Z 00409a25 f i d3dx8:createmesh.obj
 0001:00008bfe       ?BValidAttributeGroups@?$GXTri3Mesh@G$00$0PPPP@@@AAE_NPAV?$GXTri3Face@G@@@Z 00409bfe f i d3dx8:createmesh.obj
 0001:00008bfe       ?BValidAttributeGroups@?$GXTri3Mesh@I$0A@$0?0@@AAE_NPAV?$GXTri3Face@I@@@Z 00409bfe f i d3dx8:createmesh.obj
 0001:00008c58       ?DrawSubset@?$GXTri3Mesh@G$00$0PPPP@@@UAGJK@Z 00409c58 f i d3dx8:createmesh.obj
 0001:00008d7e       ?ConvertPointRepsToAdjacency@?$GXTri3Mesh@G$00$0PPPP@@@UAGJPBKPAK@Z 00409d7e f i d3dx8:createmesh.obj
 0001:000091b8       ?Resize@?$GXTri3Mesh@G$00$0PPPP@@@QAEJII@Z 0040a1b8 f i d3dx8:createmesh.obj
 0001:0000966c       ?BValid@?$GXTri3Mesh@G$00$0PPPP@@@EAE_NPAV?$GXTri3Face@G@@@Z 0040a66c f i d3dx8:createmesh.obj
 0001:00009877       ?Init@?$CFaceListIter@I$0A@$0?0@@QAEXIIE@Z 0040a877 f i d3dx8:createmesh.obj
 0001:000098d5       ?Init@?$CFaceListIter@G$00$0PPPP@@@QAEXGGE@Z 0040a8d5 f i d3dx8:createmesh.obj
 0001:00009943       ?CopyMesh@?$GXTri3Mesh@I$0A@$0?0@@AAEJPAV1@@Z 0040a943 f i d3dx8:createmesh.obj
 0001:00009b48       ?CopyMesh@?$GXTri3Mesh@G$00$0PPPP@@@AAEJPAV1@@Z 0040ab48 f i d3dx8:createmesh.obj
 0001:00009d4e       ?GetNextFace@?$CFaceListIter@I$0A@$0?0@@QAEIXZ 0040ad4e f i d3dx8:createmesh.obj
 0001:00009e11       ?GetNextFace@?$CFaceListIter@G$00$0PPPP@@@QAEGXZ 0040ae11 f i d3dx8:createmesh.obj
 0001:00009efd       ?AttributeSort@?$GXTri3Mesh@I$0A@$0?0@@AAEJPAI00H@Z 0040aefd f i d3dx8:createmesh.obj
 0001:0000a2ce       ?SplitSharedVertices@?$GXTri3Mesh@I$0A@$0?0@@AAEJPAPAKPAI@Z 0040b2ce f i d3dx8:createmesh.obj
 0001:0000a521       ?ReorderVertexData@?$GXTri3Mesh@I$0A@$0?0@@AAEJPAIPAE@Z 0040b521 f i d3dx8:createmesh.obj
 0001:0000a648       ?ReorderFaceData@?$GXTri3Mesh@I$0A@$0?0@@AAEJPAI0@Z 0040b648 f i d3dx8:createmesh.obj
 0001:0000a729       ?AttributeSort@?$GXTri3Mesh@G$00$0PPPP@@@AAEJPAI00H@Z 0040b729 f i d3dx8:createmesh.obj
 0001:0000ab22       ?SplitSharedVertices@?$GXTri3Mesh@G$00$0PPPP@@@AAEJPAPAKPAI@Z 0040bb22 f i d3dx8:createmesh.obj
 0001:0000ad92       ?ReorderVertexData@?$GXTri3Mesh@G$00$0PPPP@@@AAEJPAIPAE@Z 0040bd92 f i d3dx8:createmesh.obj
 0001:0000aed7       ?ReorderFaceData@?$GXTri3Mesh@G$00$0PPPP@@@AAEJPAI0@Z 0040bed7 f i d3dx8:createmesh.obj
 0001:0000afc1       ??1?$CSimVertexCache@I$0?0@@QAE@XZ 0040bfc1 f i d3dx8:createmesh.obj
 0001:0000afc1       ??1?$CSimVertexCache@G$0PPPP@@@QAE@XZ 0040bfc1 f i d3dx8:createmesh.obj
 0001:0000afcb       ?AccessVertex@?$CSimVertexCache@I$0?0@@QAEXIAA_N@Z 0040bfcb f i d3dx8:createmesh.obj
 0001:0000aff0       ?AccessVertex@?$CSimVertexCache@G$0PPPP@@@QAEXGAA_N@Z 0040bff0 f i d3dx8:createmesh.obj
 0001:0000b015       ?Init@?$CMeshStatus@I$0A@$0?0@@QAEJII_N@Z 0040c015 f i d3dx8:createmesh.obj
 0001:0000b101       ?MarkAsProcessed@?$CMeshStatus@I$0A@$0?0@@QAEXI@Z 0040c101 f i d3dx8:createmesh.obj
 0001:0000b166       ?IFindNextFace@?$CMeshStatus@I$0A@$0?0@@QAEII@Z 0040c166 f i d3dx8:createmesh.obj
 0001:0000b23e       ?Init@?$CMeshStatus@G$00$0PPPP@@@QAEJGG_N@Z 0040c23e f i d3dx8:createmesh.obj
 0001:0000b33a       ?MarkAsProcessed@?$CMeshStatus@G$00$0PPPP@@@QAEXG@Z 0040c33a f i d3dx8:createmesh.obj
 0001:0000b3b5       ?IFindNextFace@?$CMeshStatus@G$00$0PPPP@@@QAEGG@Z 0040c3b5 f i d3dx8:createmesh.obj
 0001:0000b4ad       ?Release@?$GXTri3Mesh@I$0A@$0?0@@UAGKXZ 0040c4ad f i d3dx8:createmesh.obj
 0001:0000b4e5       ?Release@?$GXTri3Mesh@G$00$0PPPP@@@UAGKXZ 0040c4e5 f i d3dx8:createmesh.obj
 0001:0000b51d       ??0?$GXTri3Mesh@I$0A@$0?0@@QAE@PAUIDirect3DDevice8@@KK@Z 0040c51d f i d3dx8:createmesh.obj
 0001:0000b67d       ?ConvertAdjacencyToPointReps@?$GXTri3Mesh@I$0A@$0?0@@UAGJPBKPAK@Z 0040c67d f i d3dx8:createmesh.obj
 0001:0000b8f0       ?GenerateAdjacency@?$GXTri3Mesh@I$0A@$0?0@@UAGJMPAK@Z 0040c8f0 f i d3dx8:createmesh.obj
 0001:0000bd67       ?IndexedHeapSort@@YAXPAKPAMK@Z 0040cd67 f i d3dx8:createmesh.obj
 0001:0000be92       ?VertexHashAdd@@YAHPAUD3DXVECTOR3@@KPAPAUSVertexHashEntry@@PAU2@KPAK3PAV?$GXTri3Face@I@@33@Z 0040ce92 f i d3dx8:createmesh.obj
 0001:0000bf55       ??0?$GXTri3Mesh@G$00$0PPPP@@@QAE@PAUIDirect3DDevice8@@KK@Z 0040cf55 f i d3dx8:createmesh.obj
 0001:0000c0b5       ?CloneMeshFVF@?$GXTri3Mesh@G$00$0PPPP@@@UAGJKKPAUIDirect3DDevice8@@PAPAUID3DXMesh@@@Z 0040d0b5 f i d3dx8:createmesh.obj
 0001:0000c27e       ?CloneHelper16@?$GXTri3Mesh@G$00$0PPPP@@@AAEJPAV1@@Z 0040d27e f i d3dx8:createmesh.obj
 0001:0000c43b       ?CloneHelper32@?$GXTri3Mesh@G$00$0PPPP@@@AAEJPAV?$GXTri3Mesh@I$0A@$0?0@@@Z 0040d43b f i d3dx8:createmesh.obj
 0001:0000c60a       ?CloneVertexBuffer@?$GXTri3Mesh@I$0A@$0?0@@AAEJKPAUIDirect3DVertexBuffer8@@@Z 0040d60a f i d3dx8:createmesh.obj
 0001:0000c60a       ?CloneVertexBuffer@?$GXTri3Mesh@G$00$0PPPP@@@AAEJKPAUIDirect3DVertexBuffer8@@@Z 0040d60a f i d3dx8:createmesh.obj
 0001:0000c6df       ?ConvertAdjacencyToPointReps@?$GXTri3Mesh@G$00$0PPPP@@@UAGJPBKPAK@Z 0040d6df f i d3dx8:createmesh.obj
 0001:0000c953       ?GenerateAdjacency@?$GXTri3Mesh@G$00$0PPPP@@@UAGJMPAK@Z 0040d953 f i d3dx8:createmesh.obj
 0001:0000cdd1       ?VertexHashAdd@@YAHPAUD3DXVECTOR3@@KPAPAUSVertexHashEntry@@PAU2@KPAK3PAV?$GXTri3Face@G@@33@Z 0040ddd1 f i d3dx8:createmesh.obj
 0001:0000ce9d       ?CloneHelper16@?$GXTri3Mesh@I$0A@$0?0@@AAEJPAV?$GXTri3Mesh@G$00$0PPPP@@@@Z 0040de9d f i d3dx8:createmesh.obj
 0001:0000d06d       ?CloneHelper32@?$GXTri3Mesh@I$0A@$0?0@@AAEJPAV1@@Z 0040e06d f i d3dx8:createmesh.obj
 0001:0000d220       ?SGIStripReorder@?$GXTri3Mesh@I$0A@$0?0@@AAEJPAV?$CMeshStatus@I$0A@$0?0@@PAI1@Z 0040e220 f i d3dx8:createmesh.obj
 0001:0000d2f6       ?VCacheStripReorder@?$GXTri3Mesh@I$0A@$0?0@@AAEJPAV?$CMeshStatus@I$0A@$0?0@@PAI1K@Z 0040e2f6 f i d3dx8:createmesh.obj
 0001:0000d5f3       ?SGIStripReorder@?$GXTri3Mesh@G$00$0PPPP@@@AAEJPAV?$CMeshStatus@G$00$0PPPP@@@PAI1@Z 0040e5f3 f i d3dx8:createmesh.obj
 0001:0000d6e9       ?VCacheStripReorder@?$GXTri3Mesh@G$00$0PPPP@@@AAEJPAV?$CMeshStatus@G$00$0PPPP@@@PAI1K@Z 0040e6e9 f i d3dx8:createmesh.obj
 0001:0000da36       _D3DXCreateMeshFVF@24      0040ea36 f   d3dx8:createmesh.obj
 0001:0000db21       ?CloneMeshFVF@?$GXTri3Mesh@I$0A@$0?0@@UAGJKKPAUIDirect3DDevice8@@PAPAUID3DXMesh@@@Z 0040eb21 f i d3dx8:createmesh.obj
 0001:0000dcea       ?StripReorder@?$GXTri3Mesh@I$0A@$0?0@@AAEJKPAI0PBK@Z 0040ecea f i d3dx8:createmesh.obj
 0001:0000dfea       ?StripReorder@?$GXTri3Mesh@G$00$0PPPP@@@AAEJKPAI0PBK@Z 0040efea f i d3dx8:createmesh.obj
 0001:0000e2e8       ?OptimizeInternal@?$GXTri3Mesh@I$0A@$0?0@@AAEJKPBKPAK1PAPAUID3DXBuffer@@PAUIDirect3DVertexBuffer8@@K@Z 0040f2e8 f i d3dx8:createmesh.obj
 0001:0000e95e       ?OptimizeInternal@?$GXTri3Mesh@G$00$0PPPP@@@AAEJKPBKPAK1PAPAUID3DXBuffer@@PAUIDirect3DVertexBuffer8@@K@Z 0040f95e f i d3dx8:createmesh.obj
 0001:0000efe6       ?Optimize@?$GXTri3Mesh@I$0A@$0?0@@UAGJKPBKPAK1PAPAUID3DXBuffer@@PAPAUID3DXMesh@@@Z 0040ffe6 f i d3dx8:createmesh.obj
 0001:0000f188       ?OptimizeInplace@?$GXTri3Mesh@I$0A@$0?0@@UAGJKPBKPAK1PAPAUID3DXBuffer@@@Z 00410188 f i d3dx8:createmesh.obj
 0001:0000f201       ?Optimize@?$GXTri3Mesh@G$00$0PPPP@@@UAGJKPBKPAK1PAPAUID3DXBuffer@@PAPAUID3DXMesh@@@Z 00410201 f i d3dx8:createmesh.obj
 0001:0000f3a3       ?OptimizeInplace@?$GXTri3Mesh@G$00$0PPPP@@@UAGJKPBKPAK1PAPAUID3DXBuffer@@@Z 004103a3 f i d3dx8:createmesh.obj
 0001:0000f478       ?_asm_isMMX@@YAHXZ         00410478 f   d3dx8:cpudetect.obj
 0001:0000f49d       ?isMMXprocessor@@YAHXZ     0041049d f   d3dx8:cpudetect.obj
 0001:0000f6c7       _D3DXCpuOptimizations@4    004106c7 f   d3dx8:cpudetect.obj
 0001:0000f7a4       ?D3DXDebugMute@@YAXH@Z     004107a4 f   d3dx8:d3dx8dbg.obj
 0001:0000f834       ??0CD3DXImage@@QAE@XZ      00410834 f   d3dx8:cd3dximage.obj
 0001:0000f84d       ??1CD3DXImage@@QAE@XZ      0041084d f   d3dx8:cd3dximage.obj
 0001:0000f8a6       ??_GCD3DXImage@@QAEPAXI@Z  004108a6 f i d3dx8:cd3dximage.obj
 0001:0000f8c2       ?LoadDIB@CD3DXImage@@AAEJPBXK@Z 004108c2 f   d3dx8:cd3dximage.obj
 0001:0000fff4       ?QuantizeColorKey@CD3DXCodecYUV@@MAEXXZ 00410ff4 f   d3dx8:cd3dxcodec.obj
 0001:0000fff4       ?jpeg_mem_term@D3DX@@YAXPAUjpeg_common_struct@1@@Z 00410ff4 f   d3dx8:jmemnobs.obj
 0001:00010038       ?LoadJPG@CD3DXImage@@AAEJPBXK@Z 00411038 f   d3dx8:cd3dximage.obj
 0001:000102a8       ?LoadTGA@CD3DXImage@@AAEJPBXK@Z 004112a8 f   d3dx8:cd3dximage.obj
 0001:0001074f       ?LoadPPM@CD3DXImage@@AAEJPBXK@Z 0041174f f   d3dx8:cd3dximage.obj
 0001:00010a24       ?LoadPNG@CD3DXImage@@AAEJPBXK@Z 00411a24 f   d3dx8:cd3dximage.obj
 0001:00010fba       ?LoadDDS@CD3DXImage@@AAEJPBXK@Z 00411fba f   d3dx8:cd3dximage.obj
 0001:000112fb       ?LoadBMP@CD3DXImage@@AAEJPBXK@Z 004122fb f   d3dx8:cd3dximage.obj
 0001:0001132b       ?Load@CD3DXImage@@QAEJPBXKPAU_D3DXIMAGE_INFO@@H@Z 0041232b f   d3dx8:cd3dximage.obj
 0001:00011500       ??0CD3DXBlt@@QAE@XZ        00412500 f   d3dx8:cd3dxblt.obj
 0001:0001150a       ??1CD3DXBlt@@QAE@XZ        0041250a f   d3dx8:cd3dxblt.obj
 0001:00011528       ??0TF_Row@@QAE@XZ          00412528 f i d3dx8:cd3dxblt.obj
 0001:00011535       ??1TF_Row@@QAE@XZ          00412535 f i d3dx8:cd3dxblt.obj
 0001:000117fb       ??_ETF_Row@@QAEPAXI@Z      004127fb f i d3dx8:cd3dxblt.obj
 0001:00011847       ?BltTriangle3D@CD3DXBlt@@IAEJXZ 00412847 f   d3dx8:cd3dxblt.obj
 0001:00011cbb       ?BltSame_DXTn@CD3DXBlt@@IAEJXZ 00412cbb f   d3dx8:cd3dxblt.obj
 0001:00011e49       ?c_BoxFilter2D_A8R8G8B8@@YAJPAI0IIII@Z 00412e49 f   d3dx8:cd3dxblt.obj
 0001:00011f6f       ?BltBox2D_A8R8G8B8@CD3DXBlt@@IAEJXZ 00412f6f f   d3dx8:cd3dxblt.obj
 0001:00011fa0       ?c_BoxFilter2D_X8R8G8B8@@YAJPAI0IIII@Z 00412fa0 f   d3dx8:cd3dxblt.obj
 0001:00012088       ?mmx_BoxFilter2D_A8R8G8B8@@YAJPAI0IIII@Z 00413088 f   d3dx8:cd3dxblt.obj
 0001:0001219e       ?init_BoxFilter2D_A8R8G8B8@@YAJPAI0IIII@Z 0041319e f   d3dx8:cd3dxblt.obj
 0001:000121d6       ?init_BoxFilter2D_X8R8G8B8@@YAJPAI0IIII@Z 004131d6 f   d3dx8:cd3dxblt.obj
 0001:00012205       ?BltBox2D_X8R8G8B8@CD3DXBlt@@IAEJXZ 00413205 f   d3dx8:cd3dxblt.obj
 0001:00012236       ?BltBox2D_R5G6B5@CD3DXBlt@@IAEJXZ 00413236 f   d3dx8:cd3dxblt.obj
 0001:00012386       ?BltBox2D_X1R5G5B5@CD3DXBlt@@IAEJXZ 00413386 f   d3dx8:cd3dxblt.obj
 0001:000124aa       ?BltBox2D_A1R5G5B5@CD3DXBlt@@IAEJXZ 004134aa f   d3dx8:cd3dxblt.obj
 0001:000125f9       ?BltBox2D_A4R4G4B4@CD3DXBlt@@IAEJXZ 004135f9 f   d3dx8:cd3dxblt.obj
 0001:0001274c       ?BltBox2D_R3G3B2@CD3DXBlt@@IAEJXZ 0041374c f   d3dx8:cd3dxblt.obj
 0001:0001288b       ?BltBox2D_A8@CD3DXBlt@@IAEJXZ 0041388b f   d3dx8:cd3dxblt.obj
 0001:00012926       ?BltBox2D_A8R3G3B2@CD3DXBlt@@IAEJXZ 00413926 f   d3dx8:cd3dxblt.obj
 0001:00012a72       ?BltBox2D_X4R4G4B4@CD3DXBlt@@IAEJXZ 00413a72 f   d3dx8:cd3dxblt.obj
 0001:00012b93       ?BltBox2D_A8L8@CD3DXBlt@@IAEJXZ 00413b93 f   d3dx8:cd3dxblt.obj
 0001:00012cdf       ?BltBox2D_A4L4@CD3DXBlt@@IAEJXZ 00413cdf f   d3dx8:cd3dxblt.obj
 0001:00012e1e       ?BltSame@CD3DXBlt@@IAEJXZ  00413e1e f   d3dx8:cd3dxblt.obj
 0001:00012f56       ?BltCopy@CD3DXBlt@@IAEJXZ  00413f56 f   d3dx8:cd3dxblt.obj
 0001:00013047       ?BltNone@CD3DXBlt@@IAEJXZ  00414047 f   d3dx8:cd3dxblt.obj
 0001:00013249       ?BltPoint@CD3DXBlt@@IAEJXZ 00414249 f   d3dx8:cd3dxblt.obj
 0001:0001344d       ?BltBox2D@CD3DXBlt@@IAEJXZ 0041444d f   d3dx8:cd3dxblt.obj
 0001:00013870       ?BltBox3D@CD3DXBlt@@IAEJXZ 00414870 f   d3dx8:cd3dxblt.obj
 0001:00013e02       ?BltLinear2D@CD3DXBlt@@IAEJXZ 00414e02 f   d3dx8:cd3dxblt.obj
 0001:000141e8       ?BltLinear3D@CD3DXBlt@@IAEJXZ 004151e8 f   d3dx8:cd3dxblt.obj
 0001:00014919       ?BltTriangle2D@CD3DXBlt@@IAEJXZ 00415919 f   d3dx8:cd3dxblt.obj
 0001:00014cbb       ?Blt@CD3DXBlt@@QAEJPAUD3DX_BLT@@0K@Z 00415cbb f   d3dx8:cd3dxblt.obj
 0001:00014dd5       ??0CD3DXLockSurface@@QAE@XZ 00415dd5 f   d3dx8:cd3dxlock.obj
 0001:00014de5       ?Unlock@CD3DXLockSurface@@QAEJXZ 00415de5 f   d3dx8:cd3dxlock.obj
 0001:00014e4e       ??0CD3DXLockVolume@@QAE@XZ 00415e4e f   d3dx8:cd3dxlock.obj
 0001:00014e54       ?Unlock@CD3DXLockVolume@@QAEJXZ 00415e54 f   d3dx8:cd3dxlock.obj
 0001:00014e6a       ??1CD3DXLockSurface@@QAE@XZ 00415e6a f   d3dx8:cd3dxlock.obj
 0001:00014e6f       ?Lock@CD3DXLockSurface@@QAEJPAUD3DX_BLT@@PAUIDirect3DSurface8@@PBUtagPALETTEENTRY@@PBUtagRECT@@KK@Z 00415e6f f   d3dx8:cd3dxlock.obj
 0001:00015282       ??1CD3DXLockVolume@@QAE@XZ 00416282 f   d3dx8:cd3dxlock.obj
 0001:00015287       ?Lock@CD3DXLockVolume@@QAEJPAUD3DX_BLT@@PAUIDirect3DVolume8@@PBUtagPALETTEENTRY@@PBU_D3DBOX@@KK@Z 00416287 f   d3dx8:cd3dxlock.obj
 0001:000155e2       ??1CD3DXCodec@@UAE@XZ      004165e2 f   d3dx8:cd3dxcodec.obj
 0001:000155f5       ?Convert@CD3DXCodec@@IAEPAUD3DXCOLOR@@PAU2@@Z 004165f5 f   d3dx8:cd3dxcodec.obj
 0001:000158ec       ??1CD3DXCodecDXT@@UAE@XZ   004168ec f   d3dx8:cd3dxcodec.obj
 0001:0001598c       ?Encode@CD3DXCodecDXT@@UAEXIIPAUD3DXCOLOR@@@Z 0041698c f   d3dx8:cd3dxcodec.obj
 0001:00015da9       ??0CD3DXCodec@@IAE@PAUD3DX_BLT@@IK@Z 00416da9 f   d3dx8:cd3dxcodec.obj
 0001:00015ff5       ??_GCD3DXCodec@@UAEPAXI@Z  00416ff5 f i d3dx8:cd3dxcodec.obj
 0001:00015ff5       ??_ECD3DXCodec@@UAEPAXI@Z  00416ff5 f i d3dx8:cd3dxcodec.obj
 0001:00016011       ?ConvertFrom@CD3DXCodec@@QAEJPAV1@@Z 00417011 f   d3dx8:cd3dxcodec.obj
 0001:0001608c       ?QuantizeColorKey@CD3DXCodec@@MAEXXZ 0041708c f   d3dx8:cd3dxcodec.obj
 0001:00016158       ?ColorKey@CD3DXCodec@@IAEXPAUD3DXCOLOR@@@Z 00417158 f   d3dx8:cd3dxcodec.obj
 0001:000161c8       ?Encode@CD3DXCodec_R8G8B8@@UAEXIIPAUD3DXCOLOR@@@Z 004171c8 f   d3dx8:cd3dxcodec.obj
 0001:000162b4       ?Encode@CD3DXCodec_A8R8G8B8@@UAEXIIPAUD3DXCOLOR@@@Z 004172b4 f   d3dx8:cd3dxcodec.obj
 0001:000163d7       ?Encode@CD3DXCodec_X8R8G8B8@@UAEXIIPAUD3DXCOLOR@@@Z 004173d7 f   d3dx8:cd3dxcodec.obj
 0001:000164d8       ?Encode@CD3DXCodec_R5G6B5@@UAEXIIPAUD3DXCOLOR@@@Z 004174d8 f   d3dx8:cd3dxcodec.obj
 0001:000165d9       ?Encode@CD3DXCodec_X1R5G5B5@@UAEXIIPAUD3DXCOLOR@@@Z 004175d9 f   d3dx8:cd3dxcodec.obj
 0001:000166da       ?Encode@CD3DXCodec_A1R5G5B5@@UAEXIIPAUD3DXCOLOR@@@Z 004176da f   d3dx8:cd3dxcodec.obj
 0001:000167f7       ?Encode@CD3DXCodec_A4R4G4B4@@UAEXIIPAUD3DXCOLOR@@@Z 004177f7 f   d3dx8:cd3dxcodec.obj
 0001:0001691a       ?Encode@CD3DXCodec_R3G3B2@@UAEXIIPAUD3DXCOLOR@@@Z 0041791a f   d3dx8:cd3dxcodec.obj
 0001:00016a18       ?Encode@CD3DXCodec_A8@@UAEXIIPAUD3DXCOLOR@@@Z 00417a18 f   d3dx8:cd3dxcodec.obj
 0001:00016ac1       ?Encode@CD3DXCodec_A8R3G3B2@@UAEXIIPAUD3DXCOLOR@@@Z 00417ac1 f   d3dx8:cd3dxcodec.obj
 0001:00016be4       ?Encode@CD3DXCodec_X4R4G4B4@@UAEXIIPAUD3DXCOLOR@@@Z 00417be4 f   d3dx8:cd3dxcodec.obj
 0001:00016ce5       ?Encode@CD3DXCodec_A2B10G10R10@@UAEXIIPAUD3DXCOLOR@@@Z 00417ce5 f   d3dx8:cd3dxcodec.obj
 0001:00016e08       ?Encode@CD3DXCodec_G16R16@@UAEXIIPAUD3DXCOLOR@@@Z 00417e08 f   d3dx8:cd3dxcodec.obj
 0001:00016ed8       ?Encode@CD3DXCodec_A8P8@@UAEXIIPAUD3DXCOLOR@@@Z 00417ed8 f   d3dx8:cd3dxcodec.obj
 0001:00016ff0       ?Encode@CD3DXCodec_P8@@UAEXIIPAUD3DXCOLOR@@@Z 00417ff0 f   d3dx8:cd3dxcodec.obj
 0001:000170b5       ?Encode@CD3DXCodec_L8@@UAEXIIPAUD3DXCOLOR@@@Z 004180b5 f   d3dx8:cd3dxcodec.obj
 0001:0001717a       ?Encode@CD3DXCodec_A8L8@@UAEXIIPAUD3DXCOLOR@@@Z 0041817a f   d3dx8:cd3dxcodec.obj
 0001:00017270       ?Encode@CD3DXCodec_A4L4@@UAEXIIPAUD3DXCOLOR@@@Z 00418270 f   d3dx8:cd3dxcodec.obj
 0001:0001735b       ?Encode@CD3DXCodec_V8U8@@UAEXIIPAUD3DXCOLOR@@@Z 0041835b f   d3dx8:cd3dxcodec.obj
 0001:00017430       ?Encode@CD3DXCodec_L6V5U5@@UAEXIIPAUD3DXCOLOR@@@Z 00418430 f   d3dx8:cd3dxcodec.obj
 0001:00017535       ?Encode@CD3DXCodec_X8L8V8U8@@UAEXIIPAUD3DXCOLOR@@@Z 00418535 f   d3dx8:cd3dxcodec.obj
 0001:00017640       ?Encode@CD3DXCodec_Q8W8V8U8@@UAEXIIPAUD3DXCOLOR@@@Z 00418640 f   d3dx8:cd3dxcodec.obj
 0001:0001777a       ?Encode@CD3DXCodec_V16U16@@UAEXIIPAUD3DXCOLOR@@@Z 0041877a f   d3dx8:cd3dxcodec.obj
 0001:00017850       ?Encode@CD3DXCodec_W11V11U10@@UAEXIIPAUD3DXCOLOR@@@Z 00418850 f   d3dx8:cd3dxcodec.obj
 0001:0001795a       ?Encode@CD3DXCodec_A2W10V10U10@@UAEXIIPAUD3DXCOLOR@@@Z 0041895a f   d3dx8:cd3dxcodec.obj
 0001:00017a90       ?Encode@CD3DXCodec_D3DX_L16@@UAEXIIPAUD3DXCOLOR@@@Z 00418a90 f   d3dx8:cd3dxcodec.obj
 0001:00017a90       ?Encode@CD3DXCodec_D16_LOCKABLE@@UAEXIIPAUD3DXCOLOR@@@Z 00418a90 f   d3dx8:cd3dxcodec.obj
 0001:00017b57       ?Encode@CD3DXCodec_D3DX_A16L16@@UAEXIIPAUD3DXCOLOR@@@Z 00418b57 f   d3dx8:cd3dxcodec.obj
 0001:00017c45       ?Encode@CD3DXCodec_D3DX_R16G16B16@@UAEXIIPAUD3DXCOLOR@@@Z 00418c45 f   d3dx8:cd3dxcodec.obj
 0001:00017d34       ?Encode@CD3DXCodec_D3DX_A16R16G16B16@@UAEXIIPAUD3DXCOLOR@@@Z 00418d34 f   d3dx8:cd3dxcodec.obj
 0001:00017e90       ?Decode@CD3DXCodec_R8G8B8@@UAEXIIPAUD3DXCOLOR@@@Z 00418e90 f   d3dx8:cd3dxcodec.obj
 0001:00017f1c       ?Decode@CD3DXCodec_A8R8G8B8@@UAEXIIPAUD3DXCOLOR@@@Z 00418f1c f   d3dx8:cd3dxcodec.obj
 0001:00017fc2       ?Decode@CD3DXCodec_X8R8G8B8@@UAEXIIPAUD3DXCOLOR@@@Z 00418fc2 f   d3dx8:cd3dxcodec.obj
 0001:0001805e       ?Decode@CD3DXCodec_R5G6B5@@UAEXIIPAUD3DXCOLOR@@@Z 0041905e f   d3dx8:cd3dxcodec.obj
 0001:00018103       ?Decode@CD3DXCodec_X1R5G5B5@@UAEXIIPAUD3DXCOLOR@@@Z 00419103 f   d3dx8:cd3dxcodec.obj
 0001:000181a5       ?Decode@CD3DXCodec_A1R5G5B5@@UAEXIIPAUD3DXCOLOR@@@Z 004191a5 f   d3dx8:cd3dxcodec.obj
 0001:00018255       ?Decode@CD3DXCodec_A4R4G4B4@@UAEXIIPAUD3DXCOLOR@@@Z 00419255 f   d3dx8:cd3dxcodec.obj
 0001:00018304       ?Decode@CD3DXCodec_A2B10G10R10@@UAEXIIPAUD3DXCOLOR@@@Z 00419304 f   d3dx8:cd3dxcodec.obj
 0001:000183da       ?Decode@CD3DXCodec_G16R16@@UAEXIIPAUD3DXCOLOR@@@Z 004193da f   d3dx8:cd3dxcodec.obj
 0001:0001846c       ?Decode@CD3DXCodec_R3G3B2@@UAEXIIPAUD3DXCOLOR@@@Z 0041946c f   d3dx8:cd3dxcodec.obj
 0001:0001850e       ?Decode@CD3DXCodec_A8@@UAEXIIPAUD3DXCOLOR@@@Z 0041950e f   d3dx8:cd3dxcodec.obj
 0001:00018580       ?Decode@CD3DXCodec_A8R3G3B2@@UAEXIIPAUD3DXCOLOR@@@Z 00419580 f   d3dx8:cd3dxcodec.obj
 0001:00018632       ?Decode@CD3DXCodec_X4R4G4B4@@UAEXIIPAUD3DXCOLOR@@@Z 00419632 f   d3dx8:cd3dxcodec.obj
 0001:000186d1       ?Decode@CD3DXCodec_A8P8@@UAEXIIPAUD3DXCOLOR@@@Z 004196d1 f   d3dx8:cd3dxcodec.obj
 0001:00018758       ?Decode@CD3DXCodec_P8@@UAEXIIPAUD3DXCOLOR@@@Z 00419758 f   d3dx8:cd3dxcodec.obj
 0001:000187bc       ?Decode@CD3DXCodec_L8@@UAEXIIPAUD3DXCOLOR@@@Z 004197bc f   d3dx8:cd3dxcodec.obj
 0001:0001882a       ?Decode@CD3DXCodec_A8L8@@UAEXIIPAUD3DXCOLOR@@@Z 0041982a f   d3dx8:cd3dxcodec.obj
 0001:000188b3       ?Decode@CD3DXCodec_A4L4@@UAEXIIPAUD3DXCOLOR@@@Z 004198b3 f   d3dx8:cd3dxcodec.obj
 0001:0001893c       ?Decode@CD3DXCodec_V8U8@@UAEXIIPAUD3DXCOLOR@@@Z 0041993c f   d3dx8:cd3dxcodec.obj
 0001:000189be       ?Decode@CD3DXCodec_L6V5U5@@UAEXIIPAUD3DXCOLOR@@@Z 004199be f   d3dx8:cd3dxcodec.obj
 0001:00018a6f       ?Decode@CD3DXCodec_X8L8V8U8@@UAEXIIPAUD3DXCOLOR@@@Z 00419a6f f   d3dx8:cd3dxcodec.obj
 0001:00018b00       ?Decode@CD3DXCodec_Q8W8V8U8@@UAEXIIPAUD3DXCOLOR@@@Z 00419b00 f   d3dx8:cd3dxcodec.obj
 0001:00018b97       ?Decode@CD3DXCodec_V16U16@@UAEXIIPAUD3DXCOLOR@@@Z 00419b97 f   d3dx8:cd3dxcodec.obj
 0001:00018c1a       ?Decode@CD3DXCodec_W11V11U10@@UAEXIIPAUD3DXCOLOR@@@Z 00419c1a f   d3dx8:cd3dxcodec.obj
 0001:00018cd4       ?Decode@CD3DXCodec_A2W10V10U10@@UAEXIIPAUD3DXCOLOR@@@Z 00419cd4 f   d3dx8:cd3dxcodec.obj
 0001:00018da7       ?Decode@CD3DXCodec_D16_LOCKABLE@@UAEXIIPAUD3DXCOLOR@@@Z 00419da7 f   d3dx8:cd3dxcodec.obj
 0001:00018da7       ?Decode@CD3DXCodec_D3DX_L16@@UAEXIIPAUD3DXCOLOR@@@Z 00419da7 f   d3dx8:cd3dxcodec.obj
 0001:00018e17       ?Decode@CD3DXCodec_D3DX_A16L16@@UAEXIIPAUD3DXCOLOR@@@Z 00419e17 f   d3dx8:cd3dxcodec.obj
 0001:00018ea5       ?Decode@CD3DXCodec_D3DX_R16G16B16@@UAEXIIPAUD3DXCOLOR@@@Z 00419ea5 f   d3dx8:cd3dxcodec.obj
 0001:00018f31       ?Decode@CD3DXCodec_D3DX_A16R16G16B16@@UAEXIIPAUD3DXCOLOR@@@Z 00419f31 f   d3dx8:cd3dxcodec.obj
 0001:00019011       ??0CD3DXCodec_R8G8B8@@QAE@PAUD3DX_BLT@@@Z 0041a011 f i d3dx8:cd3dxcodec.obj
 0001:0001902d       ??0CD3DXCodecYUV@@QAE@PAUD3DX_BLT@@@Z 0041a02d f   d3dx8:cd3dxcodec.obj
 0001:00019125       ??_GCD3DXCodec_G16R16@@UAEPAXI@Z 0041a125 f i d3dx8:cd3dxcodec.obj
 0001:00019125       ??_GCD3DXCodec_L8@@UAEPAXI@Z 0041a125 f i d3dx8:cd3dxcodec.obj
 0001:00019125       ??_GCD3DXCodec_L6V5U5@@UAEPAXI@Z 0041a125 f i d3dx8:cd3dxcodec.obj
 0001:00019125       ??_ECD3DXCodec_D16_LOCKABLE@@UAEPAXI@Z 0041a125 f i d3dx8:cd3dxcodec.obj
 0001:00019125       ??_GCD3DXCodec_R8G8B8@@UAEPAXI@Z 0041a125 f i d3dx8:cd3dxcodec.obj
 0001:00019125       ??_ECD3DXCodec_X1R5G5B5@@UAEPAXI@Z 0041a125 f i d3dx8:cd3dxcodec.obj
 0001:00019125       ??_GCD3DXCodec_X4R4G4B4@@UAEPAXI@Z 0041a125 f i d3dx8:cd3dxcodec.obj
 0001:00019125       ??_GCD3DXCodec_D3DX_A16R16G16B16@@UAEPAXI@Z 0041a125 f i d3dx8:cd3dxcodec.obj
 0001:00019125       ??_GCD3DXCodec_R5G6B5@@UAEPAXI@Z 0041a125 f i d3dx8:cd3dxcodec.obj
 0001:00019125       ??_GCD3DXCodec_A2W10V10U10@@UAEPAXI@Z 0041a125 f i d3dx8:cd3dxcodec.obj
 0001:00019125       ??_ECD3DXCodec_A8@@UAEPAXI@Z 0041a125 f i d3dx8:cd3dxcodec.obj
 0001:00019125       ??_ECD3DXCodec_R5G6B5@@UAEPAXI@Z 0041a125 f i d3dx8:cd3dxcodec.obj
 0001:00019125       ??_ECD3DXCodec_A2W10V10U10@@UAEPAXI@Z 0041a125 f i d3dx8:cd3dxcodec.obj
 0001:00019125       ??_ECD3DXCodec_D3DX_R16G16B16@@UAEPAXI@Z 0041a125 f i d3dx8:cd3dxcodec.obj
 0001:00019125       ??_ECD3DXCodec_R8G8B8@@UAEPAXI@Z 0041a125 f i d3dx8:cd3dxcodec.obj
 0001:00019125       ??_ECD3DXCodec_A8P8@@UAEPAXI@Z 0041a125 f i d3dx8:cd3dxcodec.obj
 0001:00019125       ??_ECD3DXCodec_X4R4G4B4@@UAEPAXI@Z 0041a125 f i d3dx8:cd3dxcodec.obj
 0001:00019125       ??_GCD3DXCodec_A2B10G10R10@@UAEPAXI@Z 0041a125 f i d3dx8:cd3dxcodec.obj
 0001:00019125       ??_ECD3DXCodec_A4R4G4B4@@UAEPAXI@Z 0041a125 f i d3dx8:cd3dxcodec.obj
 0001:00019125       ??_ECD3DXCodec_V16U16@@UAEPAXI@Z 0041a125 f i d3dx8:cd3dxcodec.obj
 0001:00019125       ??_GCD3DXCodec_A8R3G3B2@@UAEPAXI@Z 0041a125 f i d3dx8:cd3dxcodec.obj
 0001:00019125       ??_GCD3DXCodec_V8U8@@UAEPAXI@Z 0041a125 f i d3dx8:cd3dxcodec.obj
 0001:00019125       ??_ECD3DXCodec_A2B10G10R10@@UAEPAXI@Z 0041a125 f i d3dx8:cd3dxcodec.obj
 0001:00019125       ??_ECD3DXCodec_A4L4@@UAEPAXI@Z 0041a125 f i d3dx8:cd3dxcodec.obj
 0001:00019125       ??_ECD3DXCodec_L6V5U5@@UAEPAXI@Z 0041a125 f i d3dx8:cd3dxcodec.obj
 0001:00019125       ??_GCD3DXCodec_A4R4G4B4@@UAEPAXI@Z 0041a125 f i d3dx8:cd3dxcodec.obj
 0001:00019125       ??_GCD3DXCodec_A4L4@@UAEPAXI@Z 0041a125 f i d3dx8:cd3dxcodec.obj
 0001:00019125       ??_ECD3DXCodec_X8L8V8U8@@UAEPAXI@Z 0041a125 f i d3dx8:cd3dxcodec.obj
 0001:00019125       ??_GCD3DXCodec_R3G3B2@@UAEPAXI@Z 0041a125 f i d3dx8:cd3dxcodec.obj
 0001:00019125       ??_GCD3DXCodec_A8R8G8B8@@UAEPAXI@Z 0041a125 f i d3dx8:cd3dxcodec.obj
 0001:00019125       ??_GCD3DXCodec_X8L8V8U8@@UAEPAXI@Z 0041a125 f i d3dx8:cd3dxcodec.obj
 0001:00019125       ??_GCD3DXCodec_A8P8@@UAEPAXI@Z 0041a125 f i d3dx8:cd3dxcodec.obj
 0001:00019125       ??_GCD3DXCodec_A8L8@@UAEPAXI@Z 0041a125 f i d3dx8:cd3dxcodec.obj
 0001:00019125       ??_ECD3DXCodec_W11V11U10@@UAEPAXI@Z 0041a125 f i d3dx8:cd3dxcodec.obj
 0001:00019125       ??_ECD3DXCodec_A8R3G3B2@@UAEPAXI@Z 0041a125 f i d3dx8:cd3dxcodec.obj
 0001:00019125       ??_ECD3DXCodec_P8@@UAEPAXI@Z 0041a125 f i d3dx8:cd3dxcodec.obj
 0001:00019125       ??_ECD3DXCodec_D3DX_A16L16@@UAEPAXI@Z 0041a125 f i d3dx8:cd3dxcodec.obj
 0001:00019125       ??_ECD3DXCodec_R3G3B2@@UAEPAXI@Z 0041a125 f i d3dx8:cd3dxcodec.obj
 0001:00019125       ??_ECD3DXCodec_A8R8G8B8@@UAEPAXI@Z 0041a125 f i d3dx8:cd3dxcodec.obj
 0001:00019125       ??_GCD3DXCodec_W11V11U10@@UAEPAXI@Z 0041a125 f i d3dx8:cd3dxcodec.obj
 0001:00019125       ??_ECD3DXCodec_D3DX_L16@@UAEPAXI@Z 0041a125 f i d3dx8:cd3dxcodec.obj
 0001:00019125       ??_ECD3DXCodec_A1R5G5B5@@UAEPAXI@Z 0041a125 f i d3dx8:cd3dxcodec.obj
 0001:00019125       ??_GCD3DXCodec_Q8W8V8U8@@UAEPAXI@Z 0041a125 f i d3dx8:cd3dxcodec.obj
 0001:00019125       ??_ECD3DXCodec_Q8W8V8U8@@UAEPAXI@Z 0041a125 f i d3dx8:cd3dxcodec.obj
 0001:00019125       ??_ECD3DXCodec_V8U8@@UAEPAXI@Z 0041a125 f i d3dx8:cd3dxcodec.obj
 0001:00019125       ??_ECD3DXCodec_A8L8@@UAEPAXI@Z 0041a125 f i d3dx8:cd3dxcodec.obj
 0001:00019125       ??_GCD3DXCodec_D3DX_A16L16@@UAEPAXI@Z 0041a125 f i d3dx8:cd3dxcodec.obj
 0001:00019125       ??_GCD3DXCodec_X1R5G5B5@@UAEPAXI@Z 0041a125 f i d3dx8:cd3dxcodec.obj
 0001:00019125       ??_GCD3DXCodec_D16_LOCKABLE@@UAEPAXI@Z 0041a125 f i d3dx8:cd3dxcodec.obj
 0001:00019125       ??_GCD3DXCodec_D3DX_L16@@UAEPAXI@Z 0041a125 f i d3dx8:cd3dxcodec.obj
 0001:00019125       ??_ECD3DXCodec_G16R16@@UAEPAXI@Z 0041a125 f i d3dx8:cd3dxcodec.obj
 0001:00019125       ??_GCD3DXCodec_P8@@UAEPAXI@Z 0041a125 f i d3dx8:cd3dxcodec.obj
 0001:00019125       ??_GCD3DXCodec_D3DX_R16G16B16@@UAEPAXI@Z 0041a125 f i d3dx8:cd3dxcodec.obj
 0001:00019125       ??_ECD3DXCodec_X8R8G8B8@@UAEPAXI@Z 0041a125 f i d3dx8:cd3dxcodec.obj
 0001:00019125       ??_GCD3DXCodec_A1R5G5B5@@UAEPAXI@Z 0041a125 f i d3dx8:cd3dxcodec.obj
 0001:00019125       ??_ECD3DXCodec_D3DX_A16R16G16B16@@UAEPAXI@Z 0041a125 f i d3dx8:cd3dxcodec.obj
 0001:00019125       ??_GCD3DXCodec_V16U16@@UAEPAXI@Z 0041a125 f i d3dx8:cd3dxcodec.obj
 0001:00019125       ??_GCD3DXCodec_A8@@UAEPAXI@Z 0041a125 f i d3dx8:cd3dxcodec.obj
 0001:00019125       ??_ECD3DXCodec_L8@@UAEPAXI@Z 0041a125 f i d3dx8:cd3dxcodec.obj
 0001:00019125       ??_GCD3DXCodec_X8R8G8B8@@UAEPAXI@Z 0041a125 f i d3dx8:cd3dxcodec.obj
 0001:00019141       ??1CD3DXCodec_A2W10V10U10@@UAE@XZ 0041a141 f i d3dx8:cd3dxcodec.obj
 0001:00019141       ??1CD3DXCodec_D3DX_R16G16B16@@UAE@XZ 0041a141 f i d3dx8:cd3dxcodec.obj
 0001:00019141       ??1CD3DXCodec_A2B10G10R10@@UAE@XZ 0041a141 f i d3dx8:cd3dxcodec.obj
 0001:00019141       ??1CD3DXCodec_V8U8@@UAE@XZ 0041a141 f i d3dx8:cd3dxcodec.obj
 0001:00019141       ??1CD3DXCodec_A8@@UAE@XZ   0041a141 f i d3dx8:cd3dxcodec.obj
 0001:00019141       ??1CD3DXCodec_D3DX_A16R16G16B16@@UAE@XZ 0041a141 f i d3dx8:cd3dxcodec.obj
 0001:00019141       ??1CD3DXCodec_A4L4@@UAE@XZ 0041a141 f i d3dx8:cd3dxcodec.obj
 0001:00019141       ??1CD3DXCodec_L6V5U5@@UAE@XZ 0041a141 f i d3dx8:cd3dxcodec.obj
 0001:00019141       ??1CD3DXCodec_P8@@UAE@XZ   0041a141 f i d3dx8:cd3dxcodec.obj
 0001:00019141       ??1CD3DXCodec_D16_LOCKABLE@@UAE@XZ 0041a141 f i d3dx8:cd3dxcodec.obj
 0001:00019141       ??1CD3DXCodec_A1R5G5B5@@UAE@XZ 0041a141 f i d3dx8:cd3dxcodec.obj
 0001:00019141       ??1CD3DXCodec_G16R16@@UAE@XZ 0041a141 f i d3dx8:cd3dxcodec.obj
 0001:00019141       ??1CD3DXCodec_R8G8B8@@UAE@XZ 0041a141 f i d3dx8:cd3dxcodec.obj
 0001:00019141       ??1CD3DXCodec_Q8W8V8U8@@UAE@XZ 0041a141 f i d3dx8:cd3dxcodec.obj
 0001:00019141       ??1CD3DXCodec_A8R3G3B2@@UAE@XZ 0041a141 f i d3dx8:cd3dxcodec.obj
 0001:00019141       ??1CD3DXCodec_W11V11U10@@UAE@XZ 0041a141 f i d3dx8:cd3dxcodec.obj
 0001:00019141       ??1CD3DXCodec_X8R8G8B8@@UAE@XZ 0041a141 f i d3dx8:cd3dxcodec.obj
 0001:00019141       ??1CD3DXCodec_A8P8@@UAE@XZ 0041a141 f i d3dx8:cd3dxcodec.obj
 0001:00019141       ??1CD3DXCodec_A8L8@@UAE@XZ 0041a141 f i d3dx8:cd3dxcodec.obj
 0001:00019141       ??1CD3DXCodec_X1R5G5B5@@UAE@XZ 0041a141 f i d3dx8:cd3dxcodec.obj
 0001:00019141       ??1CD3DXCodec_A8R8G8B8@@UAE@XZ 0041a141 f i d3dx8:cd3dxcodec.obj
 0001:00019141       ??1CD3DXCodec_A4R4G4B4@@UAE@XZ 0041a141 f i d3dx8:cd3dxcodec.obj
 0001:00019141       ??1CD3DXCodec_D3DX_L16@@UAE@XZ 0041a141 f i d3dx8:cd3dxcodec.obj
 0001:00019141       ??1CD3DXCodec_R5G6B5@@UAE@XZ 0041a141 f i d3dx8:cd3dxcodec.obj
 0001:00019141       ??1CD3DXCodec_D3DX_A16L16@@UAE@XZ 0041a141 f i d3dx8:cd3dxcodec.obj
 0001:00019141       ??1CD3DXCodec_L8@@UAE@XZ   0041a141 f i d3dx8:cd3dxcodec.obj
 0001:00019141       ??1CD3DXCodec_R3G3B2@@UAE@XZ 0041a141 f i d3dx8:cd3dxcodec.obj
 0001:00019141       ??1CD3DXCodec_X8L8V8U8@@UAE@XZ 0041a141 f i d3dx8:cd3dxcodec.obj
 0001:00019141       ??1CD3DXCodec_X4R4G4B4@@UAE@XZ 0041a141 f i d3dx8:cd3dxcodec.obj
 0001:00019141       ??1CD3DXCodec_V16U16@@UAE@XZ 0041a141 f i d3dx8:cd3dxcodec.obj
 0001:00019146       ??0CD3DXCodec_A8R8G8B8@@QAE@PAUD3DX_BLT@@@Z 0041a146 f i d3dx8:cd3dxcodec.obj
 0001:00019162       ??0CD3DXCodec_X8R8G8B8@@QAE@PAUD3DX_BLT@@@Z 0041a162 f i d3dx8:cd3dxcodec.obj
 0001:0001917e       ??0CD3DXCodec_R5G6B5@@QAE@PAUD3DX_BLT@@@Z 0041a17e f i d3dx8:cd3dxcodec.obj
 0001:0001919a       ?Commit@CD3DXCodecYUV@@QAEJXZ 0041a19a f   d3dx8:cd3dxcodec.obj
 0001:00019386       ??0CD3DXCodec_X1R5G5B5@@QAE@PAUD3DX_BLT@@@Z 0041a386 f i d3dx8:cd3dxcodec.obj
 0001:000193a2       ??0CD3DXCodec_A1R5G5B5@@QAE@PAUD3DX_BLT@@@Z 0041a3a2 f i d3dx8:cd3dxcodec.obj
 0001:000193be       ?Fetch@CD3DXCodecYUV@@QAEJIIH@Z 0041a3be f   d3dx8:cd3dxcodec.obj
 0001:0001968f       ??0CD3DXCodec_A4R4G4B4@@QAE@PAUD3DX_BLT@@@Z 0041a68f f i d3dx8:cd3dxcodec.obj
 0001:000196ab       ??0CD3DXCodec_R3G3B2@@QAE@PAUD3DX_BLT@@@Z 0041a6ab f i d3dx8:cd3dxcodec.obj
 0001:000196c7       ??0CD3DXCodec_A8@@QAE@PAUD3DX_BLT@@@Z 0041a6c7 f i d3dx8:cd3dxcodec.obj
 0001:000196e3       ??0CD3DXCodec_A8R3G3B2@@QAE@PAUD3DX_BLT@@@Z 0041a6e3 f i d3dx8:cd3dxcodec.obj
 0001:000196ff       ??0CD3DXCodec_X4R4G4B4@@QAE@PAUD3DX_BLT@@@Z 0041a6ff f i d3dx8:cd3dxcodec.obj
 0001:0001971b       ?Encode@CD3DXCodecYUV@@UAEXIIPAUD3DXCOLOR@@@Z 0041a71b f   d3dx8:cd3dxcodec.obj
 0001:000197a8       ??0CD3DXCodec_A2B10G10R10@@QAE@PAUD3DX_BLT@@@Z 0041a7a8 f i d3dx8:cd3dxcodec.obj
 0001:000197c4       ?Decode@CD3DXCodecYUV@@UAEXIIPAUD3DXCOLOR@@@Z 0041a7c4 f   d3dx8:cd3dxcodec.obj
 0001:00019833       ??0CD3DXCodec_G16R16@@QAE@PAUD3DX_BLT@@@Z 0041a833 f i d3dx8:cd3dxcodec.obj
 0001:0001984f       ??0CD3DXCodecDXT@@QAE@PAUD3DX_BLT@@@Z 0041a84f f   d3dx8:cd3dxcodec.obj
 0001:00019a41       ??0CD3DXCodec_A8P8@@QAE@PAUD3DX_BLT@@@Z 0041aa41 f i d3dx8:cd3dxcodec.obj
 0001:00019a5d       ??0CD3DXCodec_P8@@QAE@PAUD3DX_BLT@@@Z 0041aa5d f i d3dx8:cd3dxcodec.obj
 0001:00019a79       ??0CD3DXCodec_L8@@QAE@PAUD3DX_BLT@@@Z 0041aa79 f i d3dx8:cd3dxcodec.obj
 0001:00019a95       ??0CD3DXCodec_A8L8@@QAE@PAUD3DX_BLT@@@Z 0041aa95 f i d3dx8:cd3dxcodec.obj
 0001:00019ab1       ??_ECD3DXCodecDXT@@UAEPAXI@Z 0041aab1 f i d3dx8:cd3dxcodec.obj
 0001:00019ab1       ??_GCD3DXCodecDXT@@UAEPAXI@Z 0041aab1 f i d3dx8:cd3dxcodec.obj
 0001:00019acd       ??0CD3DXCodec_A4L4@@QAE@PAUD3DX_BLT@@@Z 0041aacd f i d3dx8:cd3dxcodec.obj
 0001:00019ae9       ?QuantizeColorKey@CD3DXCodecDXT@@MAEXXZ 0041aae9 f   d3dx8:cd3dxcodec.obj
 0001:00019bea       ??0CD3DXCodec_V8U8@@QAE@PAUD3DX_BLT@@@Z 0041abea f i d3dx8:cd3dxcodec.obj
 0001:00019c06       ??0CD3DXCodec_L6V5U5@@QAE@PAUD3DX_BLT@@@Z 0041ac06 f i d3dx8:cd3dxcodec.obj
 0001:00019c22       ??0CD3DXCodec_X8L8V8U8@@QAE@PAUD3DX_BLT@@@Z 0041ac22 f i d3dx8:cd3dxcodec.obj
 0001:00019c3e       ??0CD3DXCodec_Q8W8V8U8@@QAE@PAUD3DX_BLT@@@Z 0041ac3e f i d3dx8:cd3dxcodec.obj
 0001:00019c5a       ??0CD3DXCodec_V16U16@@QAE@PAUD3DX_BLT@@@Z 0041ac5a f i d3dx8:cd3dxcodec.obj
 0001:00019c76       ??0CD3DXCodec_W11V11U10@@QAE@PAUD3DX_BLT@@@Z 0041ac76 f i d3dx8:cd3dxcodec.obj
 0001:00019c92       ??0CD3DXCodec_A2W10V10U10@@QAE@PAUD3DX_BLT@@@Z 0041ac92 f i d3dx8:cd3dxcodec.obj
 0001:00019cae       ??0CD3DXCodec_D3DX_L16@@QAE@PAUD3DX_BLT@@@Z 0041acae f i d3dx8:cd3dxcodec.obj
 0001:00019cae       ??0CD3DXCodec_D16_LOCKABLE@@QAE@PAUD3DX_BLT@@@Z 0041acae f i d3dx8:cd3dxcodec.obj
 0001:00019cca       ?Decode@CD3DXCodecDXT@@UAEXIIPAUD3DXCOLOR@@@Z 0041acca f   d3dx8:cd3dxcodec.obj
 0001:00019f73       ??0CD3DXCodec_D3DX_A16L16@@QAE@PAUD3DX_BLT@@@Z 0041af73 f i d3dx8:cd3dxcodec.obj
 0001:00019f8f       ??0CD3DXCodec_D3DX_R16G16B16@@QAE@PAUD3DX_BLT@@@Z 0041af8f f i d3dx8:cd3dxcodec.obj
 0001:00019fab       ??0CD3DXCodec_D3DX_A16R16G16B16@@QAE@PAUD3DX_BLT@@@Z 0041afab f i d3dx8:cd3dxcodec.obj
 0001:00019fc7       ??0CD3DXCodec_DXT4@@QAE@PAUD3DX_BLT@@@Z 0041afc7 f i d3dx8:cd3dxcodec.obj
 0001:00019fc7       ??0CD3DXCodec_DXT1@@QAE@PAUD3DX_BLT@@@Z 0041afc7 f i d3dx8:cd3dxcodec.obj
 0001:00019fc7       ??0CD3DXCodec_DXT2@@QAE@PAUD3DX_BLT@@@Z 0041afc7 f i d3dx8:cd3dxcodec.obj
 0001:00019fc7       ??0CD3DXCodec_DXT5@@QAE@PAUD3DX_BLT@@@Z 0041afc7 f i d3dx8:cd3dxcodec.obj
 0001:00019fc7       ??0CD3DXCodec_DXT3@@QAE@PAUD3DX_BLT@@@Z 0041afc7 f i d3dx8:cd3dxcodec.obj
 0001:00019fdf       ??_ECD3DXCodec_DXT3@@UAEPAXI@Z 0041afdf f i d3dx8:cd3dxcodec.obj
 0001:00019fdf       ??_GCD3DXCodec_DXT2@@UAEPAXI@Z 0041afdf f i d3dx8:cd3dxcodec.obj
 0001:00019fdf       ??_ECD3DXCodec_DXT5@@UAEPAXI@Z 0041afdf f i d3dx8:cd3dxcodec.obj
 0001:00019fdf       ??_GCD3DXCodec_DXT1@@UAEPAXI@Z 0041afdf f i d3dx8:cd3dxcodec.obj
 0001:00019fdf       ??_ECD3DXCodec_DXT2@@UAEPAXI@Z 0041afdf f i d3dx8:cd3dxcodec.obj
 0001:00019fdf       ??_GCD3DXCodec_DXT5@@UAEPAXI@Z 0041afdf f i d3dx8:cd3dxcodec.obj
 0001:00019fdf       ??_ECD3DXCodec_DXT4@@UAEPAXI@Z 0041afdf f i d3dx8:cd3dxcodec.obj
 0001:00019fdf       ??_GCD3DXCodec_DXT4@@UAEPAXI@Z 0041afdf f i d3dx8:cd3dxcodec.obj
 0001:00019fdf       ??_ECD3DXCodec_DXT1@@UAEPAXI@Z 0041afdf f i d3dx8:cd3dxcodec.obj
 0001:00019fdf       ??_GCD3DXCodec_DXT3@@UAEPAXI@Z 0041afdf f i d3dx8:cd3dxcodec.obj
 0001:00019ffb       ??1CD3DXCodec_DXT2@@UAE@XZ 0041affb f i d3dx8:cd3dxcodec.obj
 0001:00019ffb       ??1CD3DXCodec_DXT3@@UAE@XZ 0041affb f i d3dx8:cd3dxcodec.obj
 0001:00019ffb       ??1CD3DXCodec_DXT5@@UAE@XZ 0041affb f i d3dx8:cd3dxcodec.obj
 0001:00019ffb       ??1CD3DXCodec_DXT4@@UAE@XZ 0041affb f i d3dx8:cd3dxcodec.obj
 0001:00019ffb       ??1CD3DXCodec_DXT1@@UAE@XZ 0041affb f i d3dx8:cd3dxcodec.obj
 0001:0001a000       ??1CD3DXCodecYUV@@UAE@XZ   0041b000 f   d3dx8:cd3dxcodec.obj
 0001:0001a049       ??0CD3DXCodec_YUY2@@QAE@PAUD3DX_BLT@@@Z 0041b049 f i d3dx8:cd3dxcodec.obj
 0001:0001a049       ??0CD3DXCodec_UYVY@@QAE@PAUD3DX_BLT@@@Z 0041b049 f i d3dx8:cd3dxcodec.obj
 0001:0001a061       ?Create@CD3DXCodec@@SAPAV1@PAUD3DX_BLT@@@Z 0041b061 f   d3dx8:cd3dxcodec.obj
 0001:0001a7bd       ??_GCD3DXCodecYUV@@UAEPAXI@Z 0041b7bd f i d3dx8:cd3dxcodec.obj
 0001:0001a7bd       ??_ECD3DXCodecYUV@@UAEPAXI@Z 0041b7bd f i d3dx8:cd3dxcodec.obj
 0001:0001a7d9       ??_GCD3DXCodec_UYVY@@UAEPAXI@Z 0041b7d9 f i d3dx8:cd3dxcodec.obj
 0001:0001a7d9       ??_GCD3DXCodec_YUY2@@UAEPAXI@Z 0041b7d9 f i d3dx8:cd3dxcodec.obj
 0001:0001a7d9       ??_ECD3DXCodec_UYVY@@UAEPAXI@Z 0041b7d9 f i d3dx8:cd3dxcodec.obj
 0001:0001a7d9       ??_ECD3DXCodec_YUY2@@UAEPAXI@Z 0041b7d9 f i d3dx8:cd3dxcodec.obj
 0001:0001a7f5       ??1CD3DXCodec_YUY2@@UAE@XZ 0041b7f5 f i d3dx8:cd3dxcodec.obj
 0001:0001a7f5       ??1CD3DXCodec_UYVY@@UAE@XZ 0041b7f5 f i d3dx8:cd3dxcodec.obj
 0001:0001a7fa       ??1CD3DXBuffer@@UAE@XZ     0041b7fa f   d3dx8:cd3dxbuffer.obj
 0001:0001a80f       ?Init@CD3DXBuffer@@UAEJK@Z 0041b80f f   d3dx8:cd3dxbuffer.obj
 0001:0001a835       ?AddRef@CD3DXBuffer@@UAGKXZ 0041b835 f   d3dx8:cd3dxbuffer.obj
 0001:0001a842       ?Release@CD3DXBuffer@@UAGKXZ 0041b842 f   d3dx8:cd3dxbuffer.obj
 0001:0001a862       ?GetBufferPointer@CD3DXBuffer@@UAGPAXXZ 0041b862 f   d3dx8:cd3dxbuffer.obj
 0001:0001a86c       ??_GCD3DXBuffer@@UAEPAXI@Z 0041b86c f i d3dx8:cd3dxbuffer.obj
 0001:0001a86c       ??_ECD3DXBuffer@@UAEPAXI@Z 0041b86c f i d3dx8:cd3dxbuffer.obj
 0001:0001a888       ?QueryInterface@CD3DXBuffer@@UAGJABU_GUID@@PAPAX@Z 0041b888 f   d3dx8:cd3dxbuffer.obj
 0001:0001a8cf       ??0CD3DXBuffer@@QAE@XZ     0041b8cf f   d3dx8:cd3dxbuffer.obj
 0001:0001a8f0       ?sse_D3DXInitFastTable@@YAXPAUD3DXFASTTABLE@@@Z 0041b8f0 f   d3dx8:ssefasttable.obj
 0001:0001aa00       ?sse2_D3DXInitFastTable@@YAXPAUD3DXFASTTABLE@@@Z 0041ba00 f   d3dx8:ssefasttable2.obj
 0001:0001ab10       ?get_feature_flags@@YAIXZ  0041bb10 f   d3dx8:d3dxmathx3d.obj
 0001:0001abe5       ?x3d_D3DXInitFastTable@@YAXPAUD3DXFASTTABLE@@@Z 0041bbe5 f   d3dx8:d3dxmathx3d.obj
 0001:0001ae0b       ?x86_D3DXVec2Transform@@YGPAUD3DXVECTOR4@@PAU1@PBUD3DXVECTOR2@@PBUD3DXMATRIX@@@Z 0041be0b f   d3dx8:d3dxmathx86.obj
 0001:0001ae74       ?x86_D3DXVec2TransformNormal@@YGPAUD3DXVECTOR2@@PAU1@PBU1@PBUD3DXMATRIX@@@Z 0041be74 f   d3dx8:d3dxmathx86.obj
 0001:0001aea9       ?x86_D3DXVec3Transform@@YGPAUD3DXVECTOR4@@PAU1@PBUD3DXVECTOR3@@PBUD3DXMATRIX@@@Z 0041bea9 f   d3dx8:d3dxmathx86.obj
 0001:0001af34       ?x86_D3DXVec3TransformNormal@@YGPAUD3DXVECTOR3@@PAU1@PBU1@PBUD3DXMATRIX@@@Z 0041bf34 f   d3dx8:d3dxmathx86.obj
 0001:0001af93       ?x86_D3DXVec4Transform@@YGPAUD3DXVECTOR4@@PAU1@PBU1@PBUD3DXMATRIX@@@Z 0041bf93 f   d3dx8:d3dxmathx86.obj
 0001:0001b02c       ?x86_D3DXVec3Normalize@@YGPAUD3DXVECTOR3@@PAU1@PBU1@@Z 0041c02c f   d3dx8:d3dxmathx86.obj
 0001:0001b0f6       ?x86_D3DXMatrixMultiply@@YGPAUD3DXMATRIX@@PAU1@PBU1@1@Z 0041c0f6 f   d3dx8:d3dxmathx86.obj
 0001:0001b1d9       ?x86_D3DXMatrixMultiplyTranspose@@YGPAUD3DXMATRIX@@PAU1@PBU1@1@Z 0041c1d9 f   d3dx8:d3dxmathx86.obj
 0001:0001b267       ?x86_D3DXInitFastTable@@YAXPAUD3DXFASTTABLE@@@Z 0041c267 f   d3dx8:d3dxmathx86.obj
 0001:0001b2a3       ?jpeg_CreateDecompress@D3DX@@YAXPAUjpeg_decompress_struct@1@HI@Z 0041c2a3 f   d3dx8:jdapimin.obj
 0001:0001b363       ?jpeg_destroy_decompress@D3DX@@YAXPAUjpeg_decompress_struct@1@@Z 0041c363 f   d3dx8:jdapimin.obj
 0001:0001b4db       ?jpeg_consume_input@D3DX@@YAHPAUjpeg_decompress_struct@1@@Z 0041c4db f   d3dx8:jdapimin.obj
 0001:0001b575       ?jpeg_finish_decompress@D3DX@@YAEPAUjpeg_decompress_struct@1@@Z 0041c575 f   d3dx8:jdapimin.obj
 0001:0001b61c       ?jpeg_read_header@D3DX@@YAHPAUjpeg_decompress_struct@1@E@Z 0041c61c f   d3dx8:jdapimin.obj
 0001:0001b728       ?jpeg_read_scanlines@D3DX@@YAIPAUjpeg_decompress_struct@1@PAPAEI@Z 0041c728 f   d3dx8:jdapistd.obj
 0001:0001b7ac       ?jpeg_start_decompress@D3DX@@YAEPAUjpeg_decompress_struct@1@@Z 0041c7ac f   d3dx8:jdapistd.obj
 0001:0001cdbe       ?jpeg_resync_to_restart@D3DX@@YAEPAUjpeg_decompress_struct@1@H@Z 0041ddbe f   d3dx8:jdmarker.obj
 0001:0001ced7       ?jinit_marker_reader@D3DX@@YAXPAUjpeg_decompress_struct@1@@Z 0041ded7 f   d3dx8:jdmarker.obj
 0001:0001d048       ?jpeg_std_error@D3DX@@YAPAUjpeg_error_mgr@1@PAU21@@Z 0041e048 f   d3dx8:jerror.obj
 0001:0001d11b       ?png_set_error_fn@D3DX@@YAXPAUpng_struct_def@1@PAXP6AX0PBD@Z3@Z 0041e11b f   d3dx8:pngerror.obj
 0001:0001d135       ?png_error@D3DX@@YAXPAUpng_struct_def@1@PBD@Z 0041e135 f   d3dx8:pngerror.obj
 0001:0001d153       ?png_warning@D3DX@@YAXPAUpng_struct_def@1@PBD@Z 0041e153 f   d3dx8:pngerror.obj
 0001:0001d168       ?png_chunk_error@D3DX@@YAXPAUpng_struct_def@1@PBD@Z 0041e168 f   d3dx8:pngerror.obj
 0001:0001d18d       ?png_chunk_warning@D3DX@@YAXPAUpng_struct_def@1@PBD@Z 0041e18d f   d3dx8:pngerror.obj
 0001:0001d1b2       ?png_create_read_struct@D3DX@@YAPAUpng_struct_def@1@PBDPAXP6AXPAU21@0@Z3@Z 0041e1b2 f   d3dx8:pngread.obj
 0001:0001d2b5       ?png_read_info@D3DX@@YAXPAUpng_struct_def@1@PAUpng_info_struct@1@@Z 0041e2b5 f   d3dx8:pngread.obj
 0001:0001d428       ?png_read_update_info@D3DX@@YAXPAUpng_struct_def@1@PAUpng_info_struct@1@@Z 0041e428 f   d3dx8:pngread.obj
 0001:0001d448       ?png_read_row@D3DX@@YAXPAUpng_struct_def@1@PAE1@Z 0041e448 f   d3dx8:pngread.obj
 0001:0001d7ef       ?png_read_image@D3DX@@YAXPAUpng_struct_def@1@PAPAE@Z 0041e7ef f   d3dx8:pngread.obj
 0001:0001d83c       ?png_read_destroy@D3DX@@YAXPAUpng_struct_def@1@PAUpng_info_struct@1@1@Z 0041e83c f   d3dx8:pngread.obj
 0001:0001d95f       ?png_destroy_read_struct@D3DX@@YAXPAPAUpng_struct_def@1@PAPAUpng_info_struct@1@1@Z 0041e95f f   d3dx8:pngread.obj
 0001:0001d9e0       ?png_get_valid@D3DX@@YAKPAUpng_struct_def@1@PAUpng_info_struct@1@K@Z 0041e9e0 f   d3dx8:pngget.obj
 0001:0001d9fa       ?png_get_rowbytes@D3DX@@YAKPAUpng_struct_def@1@PAUpng_info_struct@1@@Z 0041e9fa f   d3dx8:pngget.obj
 0001:0001da10       ?png_get_channels@D3DX@@YAEPAUpng_struct_def@1@PAUpng_info_struct@1@@Z 0041ea10 f   d3dx8:pngget.obj
 0001:0001da26       ?png_get_gAMA@D3DX@@YAKPAUpng_struct_def@1@PAUpng_info_struct@1@PAN@Z 0041ea26 f   d3dx8:pngget.obj
 0001:0001da4f       ?png_get_sRGB@D3DX@@YAKPAUpng_struct_def@1@PAUpng_info_struct@1@PAH@Z 0041ea4f f   d3dx8:pngget.obj
 0001:0001da7a       ?png_get_IHDR@D3DX@@YAKPAUpng_struct_def@1@PAUpng_info_struct@1@PAK2PAH3333@Z 0041ea7a f   d3dx8:pngget.obj
 0001:0001db4b       ?png_get_PLTE@D3DX@@YAKPAUpng_struct_def@1@PAUpng_info_struct@1@PAPAUpng_color_struct@1@PAH@Z 0041eb4b f   d3dx8:pngget.obj
 0001:0001db7e       ?png_get_tRNS@D3DX@@YAKPAUpng_struct_def@1@PAUpng_info_struct@1@PAPAEPAHPAPAUpng_color_16_struct@1@@Z 0041eb7e f   d3dx8:pngget.obj
 0001:0001dbe5       ?png_set_bgr@D3DX@@YAXPAUpng_struct_def@1@@Z 0041ebe5 f   d3dx8:pngtrans.obj
 0001:0001dbee       ?png_set_swap@D3DX@@YAXPAUpng_struct_def@1@@Z 0041ebee f   d3dx8:pngtrans.obj
 0001:0001dc00       ?png_set_packing@D3DX@@YAXPAUpng_struct_def@1@@Z 0041ec00 f   d3dx8:pngtrans.obj
 0001:0001dc19       ?png_set_interlace_handling@D3DX@@YAHPAUpng_struct_def@1@@Z 0041ec19 f   d3dx8:pngtrans.obj
 0001:0001dc32       ?png_set_filler@D3DX@@YAXPAUpng_struct_def@1@KH@Z 0041ec32 f   d3dx8:pngtrans.obj
 0001:0001dc7f       ?png_do_swap@D3DX@@YAXPAUpng_row_info_struct@1@PAE@Z 0041ec7f f   d3dx8:pngtrans.obj
 0001:0001dcac       ?png_do_bgr@D3DX@@YAXPAUpng_row_info_struct@1@PAE@Z 0041ecac f   d3dx8:pngtrans.obj
 0001:0001dd6b       ?png_set_gamma@D3DX@@YAXPAUpng_struct_def@1@NN@Z 0041ed6b f   d3dx8:pngrtran.obj
 0001:0001dda1       ?png_set_tRNS_to_alpha@D3DX@@YAXPAUpng_struct_def@1@@Z 0041eda1 f   d3dx8:pngrtran.obj
 0001:0001dda1       ?png_set_gray_1_2_4_to_8@D3DX@@YAXPAUpng_struct_def@1@@Z 0041eda1 f   d3dx8:pngrtran.obj
 0001:0001ddaa       ?png_read_transform_info@D3DX@@YAXPAUpng_struct_def@1@PAUpng_info_struct@1@@Z 0041edaa f   d3dx8:pngrtran.obj
 0001:0001de95       ?png_do_unpack@D3DX@@YAXPAUpng_row_info_struct@1@PAE@Z 0041ee95 f   d3dx8:pngrtran.obj
 0001:0001dfa5       ?png_do_unshift@D3DX@@YAXPAUpng_row_info_struct@1@PAEPAUpng_color_8_struct@1@@Z 0041efa5 f   d3dx8:pngrtran.obj
 0001:0001e11c       ?png_do_chop@D3DX@@YAXPAUpng_row_info_struct@1@PAE@Z 0041f11c f   d3dx8:pngrtran.obj
 0001:0001e160       ?png_do_read_filler@D3DX@@YAXPAUpng_row_info_struct@1@PAEKK@Z 0041f160 f   d3dx8:pngrtran.obj
 0001:0001e398       ?png_do_gamma@D3DX@@YAXPAUpng_row_info_struct@1@PAE1PAPAGH@Z 0041f398 f   d3dx8:pngrtran.obj
 0001:0001e6e6       ?png_do_expand_palette@D3DX@@YAXPAUpng_row_info_struct@1@PAEPAUpng_color_struct@1@1H@Z 0041f6e6 f   d3dx8:pngrtran.obj
 0001:0001e8ee       ?png_do_expand@D3DX@@YAXPAUpng_row_info_struct@1@PAEPAUpng_color_16_struct@1@@Z 0041f8ee f   d3dx8:pngrtran.obj
 0001:0001ec40       ?png_do_dither@D3DX@@YAXPAUpng_row_info_struct@1@PAE11@Z 0041fc40 f   d3dx8:pngrtran.obj
 0001:0001ed4e       ?png_build_gamma_table@D3DX@@YAXPAUpng_struct_def@1@@Z 0041fd4e f   d3dx8:pngrtran.obj
 0001:0001f057       ?png_init_read_transformations@D3DX@@YAXPAUpng_struct_def@1@@Z 00420057 f   d3dx8:pngrtran.obj
 0001:0001f16a       ?png_do_read_transformations@D3DX@@YAXPAUpng_struct_def@1@@Z 0042016a f   d3dx8:pngrtran.obj
 0001:0001f322       ?png_set_gAMA@D3DX@@YAXPAUpng_struct_def@1@PAUpng_info_struct@1@N@Z 00420322 f   d3dx8:pngset.obj
 0001:0001f33d       ?png_set_IHDR@D3DX@@YAXPAUpng_struct_def@1@PAUpng_info_struct@1@KKHHHHH@Z 0042033d f   d3dx8:pngset.obj
 0001:0001f3de       ?png_set_PLTE@D3DX@@YAXPAUpng_struct_def@1@PAUpng_info_struct@1@PAUpng_color_struct@1@H@Z 004203de f   d3dx8:pngset.obj
 0001:0001f402       ?png_set_sRGB@D3DX@@YAXPAUpng_struct_def@1@PAUpng_info_struct@1@H@Z 00420402 f   d3dx8:pngset.obj
 0001:0001f41d       ?png_set_sRGB_gAMA_and_cHRM@D3DX@@YAXPAUpng_struct_def@1@PAUpng_info_struct@1@H@Z 0042041d f   d3dx8:pngset.obj
 0001:0001f456       ?png_set_tRNS@D3DX@@YAXPAUpng_struct_def@1@PAUpng_info_struct@1@PAEHPAUpng_color_16_struct@1@@Z 00420456 f   d3dx8:pngset.obj
 0001:0001f49d       ?png_read_data@D3DX@@YAXPAUpng_struct_def@1@PAEI@Z 0042049d f   d3dx8:pngrio.obj
 0001:0001f4c5       ?png_set_read_fn@D3DX@@YAXPAUpng_struct_def@1@PAXP6AX0PAEI@Z@Z 004204c5 f   d3dx8:pngrio.obj
 0001:0001f504       ?png_sig_cmp@D3DX@@YAHPAEII@Z 00420504 f   d3dx8:png.obj
 0001:0001f54c       ?png_zalloc@D3DX@@YAPAXPAXII@Z 0042054c f   d3dx8:png.obj
 0001:0001f59f       ?png_zfree@D3DX@@YAXPAX0@Z 0042059f f   d3dx8:png.obj
 0001:0001f5a4       ?png_reset_crc@D3DX@@YAXPAUpng_struct_def@1@@Z 004205a4 f   d3dx8:png.obj
 0001:0001f5bc       ?png_calculate_crc@D3DX@@YAXPAUpng_struct_def@1@PAEI@Z 004205bc f   d3dx8:png.obj
 0001:0001f5fb       ?png_info_destroy@D3DX@@YAXPAUpng_struct_def@1@PAUpng_info_struct@1@@Z 004205fb f   d3dx8:png.obj
 0001:0001f609       ?png_create_info_struct@D3DX@@YAPAUpng_info_struct@1@PAUpng_struct_def@1@@Z 00420609 f   d3dx8:png.obj
 0001:000208ba       ?D3DXDecodeDXT1@@YAJPAUD3DXCOLOR@@PBE@Z 004218ba f   d3dx8:dxtn.obj
 0001:000209f8       ?D3DXDecodeDXT3@@YAJPAUD3DXCOLOR@@PBE@Z 004219f8 f   d3dx8:dxtn.obj
 0001:00020a7b       ?D3DXDecodeDXT5@@YAJPAUD3DXCOLOR@@PBE@Z 00421a7b f   d3dx8:dxtn.obj
 0001:00020bb7       ?D3DXEncodeDXT1@@YAJPAEPBUD3DXCOLOR@@@Z 00421bb7 f   d3dx8:dxtn.obj
 0001:00020bcf       ?D3DXEncodeDXT3@@YAJPAEPBUD3DXCOLOR@@@Z 00421bcf f   d3dx8:dxtn.obj
 0001:00020ce3       ?D3DXEncodeDXT5@@YAJPAEPBUD3DXCOLOR@@@Z 00421ce3 f   d3dx8:dxtn.obj
 0001:00021135       ?D3DXDecodeDXT2@@YAJPAUD3DXCOLOR@@PBE@Z 00422135 f   d3dx8:dxtn.obj
 0001:00021158       ?D3DXDecodeDXT4@@YAJPAUD3DXCOLOR@@PBE@Z 00422158 f   d3dx8:dxtn.obj
 0001:0002117b       ?D3DXEncodeDXT2@@YAJPAEPBUD3DXCOLOR@@@Z 0042217b f   d3dx8:dxtn.obj
 0001:000211af       ?D3DXEncodeDXT4@@YAJPAEPBUD3DXCOLOR@@@Z 004221af f   d3dx8:dxtn.obj
 0001:000211f0       ?sse_D3DXVec2Transform@@YGPAUD3DXVECTOR4@@PAU1@PBUD3DXVECTOR2@@PBUD3DXMATRIX@@@Z 004221f0 f   d3dx8:d3dxmathsse.obj
 0001:00021230       ?sse_D3DXVec2TransformCoord@@YGPAUD3DXVECTOR2@@PAU1@PBU1@PBUD3DXMATRIX@@@Z 00422230 f   d3dx8:d3dxmathsse.obj
 0001:00021290       ?sse_D3DXVec2TransformNormal@@YGPAUD3DXVECTOR2@@PAU1@PBU1@PBUD3DXMATRIX@@@Z 00422290 f   d3dx8:d3dxmathsse.obj
 0001:000212d0       ?sse_D3DXVec3TransformNormal@@YGPAUD3DXVECTOR3@@PAU1@PBU1@PBUD3DXMATRIX@@@Z 004222d0 f   d3dx8:d3dxmathsse.obj
 0001:000212d0       ?sse2_D3DXVec3TransformNormal@@YGPAUD3DXVECTOR3@@PAU1@PBU1@PBUD3DXMATRIX@@@Z 004222d0 f   d3dx8:d3dxmathsse2.obj
 0001:00021390       ?sse2_D3DXVec3Transform@@YGPAUD3DXVECTOR4@@PAU1@PBUD3DXVECTOR3@@PBUD3DXMATRIX@@@Z 00422390 f   d3dx8:d3dxmathsse2.obj
 0001:00021390       ?sse_D3DXVec3Transform@@YGPAUD3DXVECTOR4@@PAU1@PBUD3DXVECTOR3@@PBUD3DXMATRIX@@@Z 00422390 f   d3dx8:d3dxmathsse.obj
 0001:00021450       ?sse2_D3DXVec3TransformCoord@@YGPAUD3DXVECTOR3@@PAU1@PBU1@PBUD3DXMATRIX@@@Z 00422450 f   d3dx8:d3dxmathsse2.obj
 0001:00021450       ?sse_D3DXVec3TransformCoord@@YGPAUD3DXVECTOR3@@PAU1@PBU1@PBUD3DXMATRIX@@@Z 00422450 f   d3dx8:d3dxmathsse.obj
 0001:00021550       ?sse2_D3DXVec4Transform@@YGPAUD3DXVECTOR4@@PAU1@PBU1@PBUD3DXMATRIX@@@Z 00422550 f   d3dx8:d3dxmathsse2.obj
 0001:00021550       ?sse_D3DXVec4Transform@@YGPAUD3DXVECTOR4@@PAU1@PBU1@PBUD3DXMATRIX@@@Z 00422550 f   d3dx8:d3dxmathsse.obj
 0001:00021610       ?sse_D3DXMatrixMultiply@@YGPAUD3DXMATRIX@@PAU1@PBU1@1@Z 00422610 f   d3dx8:d3dxmathsse.obj
 0001:00021610       ?sse2_D3DXMatrixMultiply@@YGPAUD3DXMATRIX@@PAU1@PBU1@1@Z 00422610 f   d3dx8:d3dxmathsse2.obj
 0001:00021760       ?sse_D3DXVec3Normalize@@YGPAUD3DXVECTOR3@@PAU1@PBU1@@Z 00422760 f   d3dx8:d3dxmathsse.obj
 0001:00021830       ?sse_D3DXPlaneNormalize@@YGPAUD3DXPLANE@@PAU1@PBU1@@Z 00422830 f   d3dx8:d3dxmathsse.obj
 0001:00021910       ?sse2_D3DXMatrixInverse@@YGPAUD3DXMATRIX@@PAU1@PAMPBU1@@Z 00422910 f   d3dx8:d3dxmathsse2.obj
 0001:00021910       ?sse_D3DXMatrixInverse@@YGPAUD3DXMATRIX@@PAU1@PAMPBU1@@Z 00422910 f   d3dx8:d3dxmathsse.obj
 0001:00021bd0       ?sse_D3DXMatrixMultiplyTranspose@@YGPAUD3DXMATRIX@@PAU1@PBU1@1@Z 00422bd0 f   d3dx8:d3dxmathsse.obj
 0001:00021bd0       ?sse2_D3DXMatrixMultiplyTranspose@@YGPAUD3DXMATRIX@@PAU1@PBU1@1@Z 00422bd0 f   d3dx8:d3dxmathsse2.obj
 0001:00021d30       ?sse_D3DXVec4Cross@@YGPAUD3DXVECTOR4@@PAU1@PBU1@11@Z 00422d30 f   d3dx8:d3dxmathsse.obj
 0001:00021de0       ?sse_D3DXVec4Normalize@@YGPAUD3DXVECTOR4@@PAU1@PBU1@@Z 00422de0 f   d3dx8:d3dxmathsse.obj
 0001:00021e80       ?sse_D3DXVec3CatmullRom@@YGPAUD3DXVECTOR3@@PAU1@PBU1@111M@Z 00422e80 f   d3dx8:d3dxmathsse.obj
 0001:00021f40       ?sse_D3DXVec2CatmullRom@@YGPAUD3DXVECTOR2@@PAU1@PBU1@111M@Z 00422f40 f   d3dx8:d3dxmathsse.obj
 0001:00021fe0       ?sse_D3DXVec4CatmullRom@@YGPAUD3DXVECTOR4@@PAU1@PBU1@111M@Z 00422fe0 f   d3dx8:d3dxmathsse.obj
 0001:00022090       ?sse_D3DXVec3Hermite@@YGPAUD3DXVECTOR3@@PAU1@PBU1@111M@Z 00423090 f   d3dx8:d3dxmathsse.obj
 0001:00022150       ?sse_D3DXVec4Hermite@@YGPAUD3DXVECTOR4@@PAU1@PBU1@111M@Z 00423150 f   d3dx8:d3dxmathsse.obj
 0001:000221f0       ?sse_D3DXVec2Hermite@@YGPAUD3DXVECTOR2@@PAU1@PBU1@111M@Z 004231f0 f   d3dx8:d3dxmathsse.obj
 0001:00022280       ?sse_D3DXVec3BaryCentric@@YGPAUD3DXVECTOR3@@PAU1@PBU1@11MM@Z 00423280 f   d3dx8:d3dxmathsse.obj
 0001:000222e0       ?sse_D3DXVec4BaryCentric@@YGPAUD3DXVECTOR4@@PAU1@PBU1@11MM@Z 004232e0 f   d3dx8:d3dxmathsse.obj
 0001:00022330       ?sse_D3DXVec2BaryCentric@@YGPAUD3DXVECTOR2@@PAU1@PBU1@11MM@Z 00423330 f   d3dx8:d3dxmathsse.obj
 0001:00022390       ?sse_D3DXPlaneIntersectLine@@YGPAUD3DXVECTOR3@@PAU1@PBUD3DXPLANE@@PBU1@2@Z 00423390 f   d3dx8:d3dxmathsse.obj
 0001:00022450       ?sse_D3DXMatrixDeterminant@@YGMPBUD3DXMATRIX@@@Z 00423450 f   d3dx8:d3dxmathsse.obj
 0001:00022450       ?sse2_D3DXMatrixDeterminant@@YGMPBUD3DXMATRIX@@@Z 00423450 f   d3dx8:d3dxmathsse2.obj
 0001:00022520       ?sse_D3DXPlaneFromPoints@@YGPAUD3DXPLANE@@PAU1@PBUD3DXVECTOR3@@11@Z 00423520 f   d3dx8:d3dxmathsse.obj
 0001:00022610       ?sse_D3DXMatrixShadow@@YGPAU_D3DMATRIX@@PAU1@PBUD3DXVECTOR4@@PBUD3DXPLANE@@@Z 00423610 f   d3dx8:d3dxmathsse.obj
 0001:000227a0       ?sse_D3DXMatrixReflect@@YGPAUD3DXMATRIX@@PAU1@PBUD3DXPLANE@@@Z 004237a0 f   d3dx8:d3dxmathsse.obj
 0001:00022880       ?sse_D3DXQuaternionMultiply@@YGPAUD3DXQUATERNION@@PAU1@PBU1@1@Z 00423880 f   d3dx8:d3dxquatsse.obj
 0001:00022910       ?sse_D3DXQuaternionNormalize@@YGPAUD3DXQUATERNION@@PAU1@PBU1@@Z 00423910 f   d3dx8:d3dxquatsse.obj
 0001:000229b0       ?sse_D3DXQuaternionInverse@@YGPAUD3DXQUATERNION@@PAU1@PBU1@@Z 004239b0 f   d3dx8:d3dxquatsse.obj
 0001:00022a20       ?sse_D3DXQuaternionRotationMatrix@@YGPAUD3DXQUATERNION@@PAU1@PBUD3DXMATRIX@@@Z 00423a20 f   d3dx8:d3dxquatsse.obj
 0001:00022b40       ?sse_D3DXQuaternionRotationYawPitchRoll@@YGPAUD3DXQUATERNION@@PAU1@MMM@Z 00423b40 f   d3dx8:d3dxquatsse.obj
 0001:00022c10       ?sse2_D3DXVec3Normalize@@YGPAUD3DXVECTOR3@@PAU1@PBU1@@Z 00423c10 f   d3dx8:d3dxmathsse2.obj
 0001:00022ce0       ?sse2_D3DXPlaneNormalize@@YGPAUD3DXPLANE@@PAU1@PBU1@@Z 00423ce0 f   d3dx8:d3dxmathsse2.obj
 0001:00022dc0       ?sse2_D3DXVec4Cross@@YGPAUD3DXVECTOR4@@PAU1@PBU1@11@Z 00423dc0 f   d3dx8:d3dxmathsse2.obj
 0001:00022e70       ?sse2_D3DXMatrixRotationX@@YGPAUD3DXMATRIX@@PAU1@M@Z 00423e70 f   d3dx8:d3dxmathsse2.obj
 0001:00022ef0       ?sse2_D3DXMatrixRotationY@@YGPAUD3DXMATRIX@@PAU1@M@Z 00423ef0 f   d3dx8:d3dxmathsse2.obj
 0001:00022f80       ?sse2_D3DXPlaneFromPoints@@YGPAUD3DXPLANE@@PAU1@PBUD3DXVECTOR3@@11@Z 00423f80 f   d3dx8:d3dxmathsse2.obj
 0001:00023070       ?sse2_D3DXMatrixShadow@@YGPAU_D3DMATRIX@@PAU1@PBUD3DXVECTOR4@@PBUD3DXPLANE@@@Z 00424070 f   d3dx8:d3dxmathsse2.obj
 0001:00023200       ?sse2_D3DXMatrixReflect@@YGPAUD3DXMATRIX@@PAU1@PBUD3DXPLANE@@@Z 00424200 f   d3dx8:d3dxmathsse2.obj
 0001:000232e0       ?sse2_D3DXQuaternionRotationMatrix@@YGPAUD3DXQUATERNION@@PAU1@PBUD3DXMATRIX@@@Z 004242e0 f   d3dx8:d3dxquatsse2.obj
 0001:00023400       ?sse2_D3DXQuaternionRotationYawPitchRoll@@YGPAUD3DXQUATERNION@@PAU1@MMM@Z 00424400 f   d3dx8:d3dxquatsse2.obj
 0001:000234d0       ?x3d_D3DXQuaternionMultiply@@YGPAUD3DXQUATERNION@@PAU1@PBU1@1@Z 004244d0 f   d3dx8:x3d_quat.obj
 0001:00023569       ?x3d_D3DXQuaternionNormalize@@YGPAUD3DXQUATERNION@@PAU1@PBU1@@Z 00424569 f   d3dx8:x3d_quat.obj
 0001:000235c6       ?x3d_D3DXQuaternionToAxisAngle@@YGXPBUD3DXQUATERNION@@PAUD3DXVECTOR3@@PAM@Z 004245c6 f   d3dx8:x3d_quat.obj
 0001:00023679       ?x3d_D3DXQuaternionRotationMatrix@@YGPAUD3DXQUATERNION@@PAU1@PBUD3DXMATRIX@@@Z 00424679 f   d3dx8:x3d_quat.obj
 0001:00023895       ?x3d_D3DXQuaternionRotationMatrix_K7@@YGPAUD3DXQUATERNION@@PAU1@PBUD3DXMATRIX@@@Z 00424895 f   d3dx8:x3d_quat.obj
 0001:00023aaa       ?x3d_D3DXQuaternionRotationYawPitchRoll@@YGPAUD3DXQUATERNION@@PAU1@MMM@Z 00424aaa f   d3dx8:x3d_quat.obj
 0001:00023b6f       ?x3d_D3DXQuaternionRotationAxis@@YGPAUD3DXQUATERNION@@PAU1@PBUD3DXVECTOR3@@M@Z 00424b6f f   d3dx8:x3d_quat.obj
 0001:00023bdb       ?x3d_D3DXQuaternionSlerp@@YGPAUD3DXQUATERNION@@PAU1@PBU1@1M@Z 00424bdb f   d3dx8:x3d_quat.obj
 0001:00023d12       ?x3d_D3DXQuaternionBaryCentric@@YGPAUD3DXQUATERNION@@PAU1@PBU1@11MM@Z 00424d12 f   d3dx8:x3d_quat.obj
 0001:00023d9f       ?x3d_D3DXQuaternionSquad@@YGPAUD3DXQUATERNION@@PAU1@PBU1@111M@Z 00424d9f f   d3dx8:x3d_quat.obj
 0001:00023e31       ?x3d_D3DXQuaternionInverse@@YGPAUD3DXQUATERNION@@PAU1@PBU1@@Z 00424e31 f   d3dx8:x3d_quat.obj
 0001:00023e95       ?x3d_D3DXQuaternionLn@@YGPAUD3DXQUATERNION@@PAU1@PBU1@@Z 00424e95 f   d3dx8:x3d_quat.obj
 0001:00023f3c       ?x3d_D3DXQuaternionExp@@YGPAUD3DXQUATERNION@@PAU1@PBU1@@Z 00424f3c f   d3dx8:x3d_quat.obj
 0001:00023fe1       ?x3d_D3DXQuaternionSquadSetup@@YGXPAUD3DXQUATERNION@@00PBU1@111@Z 00424fe1 f   d3dx8:x3d_quat.obj
 0001:00024a3a       ?x3d_D3DXMatrixMultiply@@YGPAUD3DXMATRIX@@PAU1@PBU1@1@Z 00425a3a f   d3dx8:x3d_matx.obj
 0001:00024c6c       ?x3d_D3DXMatrixfDeterminant@@YGMPBUD3DXMATRIX@@@Z 00425c6c f   d3dx8:x3d_matx.obj
 0001:00024d3b       ?x3d_D3DXMatrixTranslation@@YGPAUD3DXMATRIX@@PAU1@MMM@Z 00425d3b f   d3dx8:x3d_matx.obj
 0001:00024d8b       ?x3d_D3DXMatrixShadow@@YGPAUD3DXMATRIX@@PAU1@PBUD3DXVECTOR4@@PBUD3DXPLANE@@@Z 00425d8b f   d3dx8:x3d_matx.obj
 0001:00024e76       ?x3d_D3DXMatrixReflect@@YGPAUD3DXMATRIX@@PAU1@PBUD3DXPLANE@@@Z 00425e76 f   d3dx8:x3d_matx.obj
 0001:00024f52       ?x3d_D3DXMatrixRotationX@@YGPAUD3DXMATRIX@@PAU1@M@Z 00425f52 f   d3dx8:x3d_matx.obj
 0001:00024fb8       ?x3d_D3DXMatrixRotationY@@YGPAUD3DXMATRIX@@PAU1@M@Z 00425fb8 f   d3dx8:x3d_matx.obj
 0001:00025016       ?x3d_D3DXMatrixRotationZ@@YGPAUD3DXMATRIX@@PAU1@M@Z 00426016 f   d3dx8:x3d_matx.obj
 0001:0002506f       ?x3d_D3DXMatrixScaling@@YGPAUD3DXMATRIX@@PAU1@MMM@Z 0042606f f   d3dx8:x3d_matx.obj
 0001:000250b6       ?x3d_D3DXMatrixTranspose@@YGPAUD3DXMATRIX@@PAU1@PBU1@@Z 004260b6 f   d3dx8:x3d_matx.obj
 0001:00025125       ?x3d_D3DXMatrixIdentity@@YAPAUD3DXMATRIX@@PAU1@@Z 00426125 f   d3dx8:x3d_matx.obj
 0001:0002515e       ?x3d_D3DXMatrixRotationQuaternion@@YGPAUD3DXMATRIX@@PAU1@PBUD3DXQUATERNION@@@Z 0042615e f   d3dx8:x3d_matx.obj
 0001:00025230       ?x3d_D3DXMatrixRotationQuaternion_K7@@YGPAUD3DXMATRIX@@PAU1@PBUD3DXQUATERNION@@@Z 00426230 f   d3dx8:x3d_matx.obj
 0001:000252e5       ?x3d_D3DXMatrixTransformation@@YGPAUD3DXMATRIX@@PAU1@PBUD3DXVECTOR3@@PBUD3DXQUATERNION@@1121@Z 004262e5 f   d3dx8:x3d_matx.obj
 0001:0002647d       ?x3d_D3DXMatrixRotationYawPitchRoll@@YGPAUD3DXMATRIX@@PAU1@MMM@Z 0042747d f   d3dx8:x3d_matx.obj
 0001:00026622       ?x3d_D3DXMatrixAffineTransformation@@YGPAUD3DXMATRIX@@PAU1@MPBUD3DXVECTOR3@@PBUD3DXQUATERNION@@1@Z 00427622 f   d3dx8:x3d_matx.obj
 0001:00026b56       ?x3d_D3DXMatrixRotationAxis@@YGPAUD3DXMATRIX@@PAU1@PBUD3DXVECTOR3@@M@Z 00427b56 f   d3dx8:x3d_matx.obj
 0001:00026c6f       ?x3d_D3DXMatrixTransformation_K7@@YGPAUD3DXMATRIX@@PAU1@PBUD3DXVECTOR3@@PBUD3DXQUATERNION@@1121@Z 00427c6f f   d3dx8:x3d_matx.obj
 0001:00027dc5       ?x3d_D3DXMatrixInverse_K7@@YGPAUD3DXMATRIX@@PAU1@PAMPBU1@@Z 00428dc5 f   d3dx8:x3d_matx.obj
 0001:000280a7       ?x3d_D3DXMatrixMultiplyTranspose@@YGPAUD3DXMATRIX@@PAU1@PBU1@1@Z 004290a7 f   d3dx8:x3d_matx.obj
 0001:0002849f       ?x3d_D3DXMatrixInverse_inline@@YGPAUD3DXMATRIX@@PAU1@PAMPBU1@@Z 0042949f f i d3dx8:x3d_matx.obj
 0001:000287d3       ?x3d_D3DXMatrixInverse@@YGPAUD3DXMATRIX@@PAU1@PAMPBU1@@Z 004297d3 f   d3dx8:x3d_matx.obj
 0001:000287ef       ?x3d_D3DXVec3Transform@@YGPAUD3DXVECTOR4@@PAU1@PBUD3DXVECTOR3@@PBUD3DXMATRIX@@@Z 004297ef f   d3dx8:x3d_vec3.obj
 0001:00028860       ?x3d_D3DXVec3TransformNormal@@YGPAUD3DXVECTOR3@@PAU1@PBU1@PBUD3DXMATRIX@@@Z 00429860 f   d3dx8:x3d_vec3.obj
 0001:000288c7       ?x3d_D3DXVec3Normalize@@YGPAUD3DXVECTOR3@@PAU1@PBU1@@Z 004298c7 f   d3dx8:x3d_vec3.obj
 0001:00028926       ?x3d_D3DXVec3BaryCentric@@YGPAUD3DXVECTOR3@@PAU1@PBU1@11MM@Z 00429926 f   d3dx8:x3d_vec3.obj
 0001:00028997       ?x3d_D3DXVec3Hermite@@YGPAUD3DXVECTOR3@@PAU1@PBU1@111M@Z 00429997 f   d3dx8:x3d_vec3.obj
 0001:00028a6b       ?x3d_D3DXVec3CatmullRom@@YGPAUD3DXVECTOR3@@PAU1@PBU1@111M@Z 00429a6b f   d3dx8:x3d_vec3.obj
 0001:00028b55       ?x3d_D3DXVec3TransformCoord_inline@@YGPAUD3DXVECTOR3@@PAU1@PBU1@PBUD3DXMATRIX@@@Z 00429b55 f i d3dx8:x3d_vec3.obj
 0001:00028be0       ?x3d_D3DXMatrixMultiply_inline@@YGPAUD3DXMATRIX@@PAU1@PBU1@1@Z 00429be0 f i d3dx8:x3d_vec3.obj
 0001:00028da7       ?x3d_D3DXVec3TransformCoord@@YGPAUD3DXVECTOR3@@PAU1@PBU1@PBUD3DXMATRIX@@@Z 00429da7 f   d3dx8:x3d_vec3.obj
 0001:00028dac       ?x3d_D3DXVec3Project@@YGPAUD3DXVECTOR3@@PAU1@PBU1@PBU_D3DVIEWPORT8@@PBUD3DXMATRIX@@33@Z 00429dac f   d3dx8:x3d_vec3.obj
 0001:00028f34       ?x3d_D3DXVec3Unproject@@YGPAUD3DXVECTOR3@@PAU1@PBU1@PBU_D3DVIEWPORT8@@PBUD3DXMATRIX@@33@Z 00429f34 f   d3dx8:x3d_vec3.obj
 0001:0002915a       ?x3d_D3DXVec3Unproject_K7@@YGPAUD3DXVECTOR3@@PAU1@PBU1@PBU_D3DVIEWPORT8@@PBUD3DXMATRIX@@33@Z 0042a15a f   d3dx8:x3d_vec3.obj
 0001:000292ad       ?x3d_D3DXVec2Transform@@YGPAUD3DXVECTOR4@@PAU1@PBUD3DXVECTOR2@@PBUD3DXMATRIX@@@Z 0042a2ad f   d3dx8:x3d_vec2.obj
 0001:00029302       ?x3d_D3DXVec2TransformNormal@@YGPAUD3DXVECTOR2@@PAU1@PBU1@PBUD3DXMATRIX@@@Z 0042a302 f   d3dx8:x3d_vec2.obj
 0001:0002933b       ?x3d_D3DXVec2TransformCoord@@YGPAUD3DXVECTOR2@@PAU1@PBU1@PBUD3DXMATRIX@@@Z 0042a33b f   d3dx8:x3d_vec2.obj
 0001:0002939f       ?x3d_D3DXVec2Hermite@@YGPAUD3DXVECTOR2@@PAU1@PBU1@111M@Z 0042a39f f   d3dx8:x3d_vec2.obj
 0001:00029437       ?x3d_D3DXVec2BaryCentric@@YGPAUD3DXVECTOR2@@PAU1@PBU1@11MM@Z 0042a437 f   d3dx8:x3d_vec2.obj
 0001:00029480       ?x3d_D3DXVec2Normalize@@YGPAUD3DXVECTOR2@@PAU1@PBU1@@Z 0042a480 f   d3dx8:x3d_vec2.obj
 0001:000294c3       ?x3d_D3DXVec2CatmullRom@@YGPAUD3DXVECTOR2@@PAU1@PBU1@111M@Z 0042a4c3 f   d3dx8:x3d_vec2.obj
 0001:0002956e       ?x3d_D3DXVec4Transform@@YGPAUD3DXVECTOR4@@PAU1@PBU1@PBUD3DXMATRIX@@@Z 0042a56e f   d3dx8:x3d_vec4.obj
 0001:000295f0       ?x3d_D3DXVec4Normalize@@YGPAUD3DXVECTOR4@@PAU1@PBU1@@Z 0042a5f0 f   d3dx8:x3d_vec4.obj
 0001:0002964f       ?x3d_D3DXVec4Cross@@YGPAUD3DXVECTOR4@@PAU1@PBU1@11@Z 0042a64f f   d3dx8:x3d_vec4.obj
 0001:00029781       ?x3d_D3DXVec4BaryCentric@@YGPAUD3DXVECTOR4@@PAU1@PBU1@11MM@Z 0042a781 f   d3dx8:x3d_vec4.obj
 0001:000297f2       ?x3d_D3DXVec4Hermite@@YGPAUD3DXVECTOR4@@PAU1@PBU1@111M@Z 0042a7f2 f   d3dx8:x3d_vec4.obj
 0001:000298ba       ?x3d_D3DXVec4CatmullRom@@YGPAUD3DXVECTOR4@@PAU1@PBU1@111M@Z 0042a8ba f   d3dx8:x3d_vec4.obj
 0001:00029998       ?x3d_D3DXPlaneFromPointNormal@@YGPAUD3DXPLANE@@PAU1@PBUD3DXVECTOR3@@1@Z 0042a998 f   d3dx8:x3d_plane.obj
 0001:000299db       ?x3d_D3DXPlaneFromPoints@@YGPAUD3DXPLANE@@PAU1@PBUD3DXVECTOR3@@11@Z 0042a9db f   d3dx8:x3d_plane.obj
 0001:00029abf       ?x3d_D3DXPlaneIntersectLine@@YGPAUD3DXVECTOR3@@PAU1@PBUD3DXPLANE@@PBU1@2@Z 0042aabf f   d3dx8:x3d_plane.obj
 0001:00029b7d       ?x3d_D3DXPlaneNormalize@@YGPAUD3DXPLANE@@PAU1@PBU1@@Z 0042ab7d f   d3dx8:x3d_plane.obj
 0001:00029be1       ?x3d_D3DXPlaneTransform@@YGPAUD3DXPLANE@@PAU1@PBU1@PBUD3DXMATRIX@@@Z 0042abe1 f   d3dx8:x3d_plane.obj
 0001:00029c5f       ?jdiv_round_up@D3DX@@YAJJJ@Z 0042ac5f f   d3dx8:jutils.obj
 0001:00029c6f       ?jround_up@D3DX@@YAJJJ@Z   0042ac6f f   d3dx8:jutils.obj
 0001:00029c87       ?jcopy_sample_rows@D3DX@@YAXPAPAEH0HHI@Z 0042ac87 f   d3dx8:jutils.obj
 0001:00029cce       ?jcopy_block_row@D3DX@@YAXPAY0EA@F0I@Z 0042acce f   d3dx8:jutils.obj
 0001:00029cf0       ?jzero_far@D3DX@@YAXPAXI@Z 0042acf0 f   d3dx8:jutils.obj
 0001:00029d0b       ?IsMMX@D3DX@@YAHXZ         0042ad0b f   d3dx8:jutils.obj
 0001:0002a215       ?jinit_input_controller@D3DX@@YAXPAUjpeg_decompress_struct@1@@Z 0042b215 f   d3dx8:jdinput.obj
 0001:0002abcb       ?jinit_memory_mgr@D3DX@@YAXPAUjpeg_common_struct@1@@Z 0042bbcb f   d3dx8:jmemmgr.obj
 0001:0002ac7f       ?jpeg_abort@D3DX@@YAXPAUjpeg_common_struct@1@@Z 0042bc7f f   d3dx8:jcomapi.obj
 0001:0002aca1       ?jpeg_destroy@D3DX@@YAXPAUjpeg_common_struct@1@@Z 0042bca1 f   d3dx8:jcomapi.obj
 0001:0002acbc       ?jpeg_alloc_quant_table@D3DX@@YAPAUJQUANT_TBL@1@PAUjpeg_common_struct@1@@Z 0042bcbc f   d3dx8:jcomapi.obj
 0001:0002acd8       ?jpeg_alloc_huff_table@D3DX@@YAPAUJHUFF_TBL@1@PAUjpeg_common_struct@1@@Z 0042bcd8 f   d3dx8:jcomapi.obj
 0001:0002ad65       ?jpeg_calc_output_dimensions@D3DX@@YAXPAUjpeg_decompress_struct@1@@Z 0042bd65 f   d3dx8:jdmaster.obj
 0001:0002b2be       ?jinit_master_decompress@D3DX@@YAXPAUjpeg_decompress_struct@1@@Z 0042c2be f   d3dx8:jdmaster.obj
 0001:0002b2ee       ?inflateReset@D3DX@@YAHPAUz_stream_s@1@@Z 0042c2ee f   d3dx8:inflate.obj
 0001:0002b32d       ?inflateEnd@D3DX@@YAHPAUz_stream_s@1@@Z 0042c32d f   d3dx8:inflate.obj
 0001:0002b36b       ?inflateInit2_@D3DX@@YAHPAUz_stream_s@1@HPBDH@Z 0042c36b f   d3dx8:inflate.obj
 0001:0002b450       ?inflateInit_@D3DX@@YAHPAUz_stream_s@1@PBDH@Z 0042c450 f   d3dx8:inflate.obj
 0001:0002b467       ?inflate@D3DX@@YAHPAUz_stream_s@1@H@Z 0042c467 f   d3dx8:inflate.obj
 0001:0002b7ce       ?png_create_struct@D3DX@@YAPAXH@Z 0042c7ce f   d3dx8:pngmem.obj
 0001:0002b810       ?png_destroy_struct@D3DX@@YAXPAX@Z 0042c810 f   d3dx8:pngmem.obj
 0001:0002b81d       ?png_malloc@D3DX@@YAPAXPAUpng_struct_def@1@K@Z 0042c81d f   d3dx8:pngmem.obj
 0001:0002b853       ?png_free@D3DX@@YAXPAUpng_struct_def@1@PAX@Z 0042c853 f   d3dx8:pngmem.obj
 0001:0002b86c       ?png_memcpy_check@D3DX@@YAPAXPAUpng_struct_def@1@PAX1K@Z 0042c86c f   d3dx8:pngmem.obj
 0001:0002b88f       ?png_memset_check@D3DX@@YAPAXPAUpng_struct_def@1@PAXHK@Z 0042c88f f   d3dx8:pngmem.obj
 0001:0002b8c0       ?png_get_uint_32@D3DX@@YAKPAE@Z 0042c8c0 f   d3dx8:pngrutil.obj
 0001:0002b8e3       ?png_crc_read@D3DX@@YAXPAUpng_struct_def@1@PAEI@Z 0042c8e3 f   d3dx8:pngrutil.obj
 0001:0002b8fd       ?png_crc_error@D3DX@@YAHPAUpng_struct_def@1@@Z 0042c8fd f   d3dx8:pngrutil.obj
 0001:0002b95b       ?png_check_chunk_name@D3DX@@YAXPAUpng_struct_def@1@PAE@Z 0042c95b f   d3dx8:pngrutil.obj
 0001:0002b9bd       ?png_combine_row@D3DX@@YAXPAUpng_struct_def@1@PAEH@Z 0042c9bd f   d3dx8:pngrutil.obj
 0001:0002bbd3       ?png_do_read_interlace@D3DX@@YAXPAUpng_row_info_struct@1@PAEHK@Z 0042cbd3 f   d3dx8:pngrutil.obj
 0001:0002be9c       ?png_read_filter_row@D3DX@@YAXPAUpng_struct_def@1@PAUpng_row_info_struct@1@PAE2H@Z 0042ce9c f   d3dx8:pngrutil.obj
 0001:0002c017       ?png_read_start_row@D3DX@@YAXPAUpng_struct_def@1@@Z 0042d017 f   d3dx8:pngrutil.obj
 0001:0002c1b3       ?png_crc_finish@D3DX@@YAHPAUpng_struct_def@1@K@Z 0042d1b3 f   d3dx8:pngrutil.obj
 0001:0002c23f       ?png_handle_IHDR@D3DX@@YAXPAUpng_struct_def@1@PAUpng_info_struct@1@K@Z 0042d23f f   d3dx8:pngrutil.obj
 0001:0002c435       ?png_handle_PLTE@D3DX@@YAXPAUpng_struct_def@1@PAUpng_info_struct@1@K@Z 0042d435 f   d3dx8:pngrutil.obj
 0001:0002c55f       ?png_handle_IEND@D3DX@@YAXPAUpng_struct_def@1@PAUpng_info_struct@1@K@Z 0042d55f f   d3dx8:pngrutil.obj
 0001:0002c5a9       ?png_handle_gAMA@D3DX@@YAXPAUpng_struct_def@1@PAUpng_info_struct@1@K@Z 0042d5a9 f   d3dx8:pngrutil.obj
 0001:0002c6b4       ?png_handle_sRGB@D3DX@@YAXPAUpng_struct_def@1@PAUpng_info_struct@1@K@Z 0042d6b4 f   d3dx8:pngrutil.obj
 0001:0002c7a3       ?png_handle_tRNS@D3DX@@YAXPAUpng_struct_def@1@PAUpng_info_struct@1@K@Z 0042d7a3 f   d3dx8:pngrutil.obj
 0001:0002c95a       ?png_handle_unknown@D3DX@@YAXPAUpng_struct_def@1@PAUpng_info_struct@1@K@Z 0042d95a f   d3dx8:pngrutil.obj
 0001:0002c9a4       ?png_read_finish_row@D3DX@@YAXPAUpng_struct_def@1@@Z 0042d9a4 f   d3dx8:pngrutil.obj
 0001:0002cbc8       ?crc32@D3DX@@YAKKPBEI@Z    0042dbc8 f   d3dx8:crc32.obj
 0001:0002cce0       ?sse_SinCos4@@YAXQBMQAM1@Z 0042dce0 f   d3dx8:d3dxtrigsse.obj
 0001:0002ced0       ?sse2_sincos@@YG_K_K@Z     0042ded0 f   d3dx8:d3dxtrigsse2.obj
 0001:0002cfc0       ?sse2_SinCos4@@YAXQBMQAM1@Z 0042dfc0 f   d3dx8:d3dxtrigsse2.obj
 0001:0002d140       _a_atan                    0042e140 f   d3dx8:math.obj
 0001:0002d200       _a_atan2                   0042e200 f   d3dx8:math.obj
 0001:0002d300       _a_acos                    0042e300 f   d3dx8:math.obj
 0001:0002d400       _a_asin                    0042e400 f   d3dx8:math.obj
 0001:0002d500       _a_log                     0042e500 f   d3dx8:math.obj
 0001:0002d600       _a_log10                   0042e600 f   d3dx8:math.obj
 0001:0002d620       _a_exp                     0042e620 f   d3dx8:math.obj
 0001:0002d700       _a_sqrt                    0042e700 f   d3dx8:math.obj
 0001:0002d720       _a_fabs                    0042e720 f   d3dx8:math.obj
 0001:0002d740       _a_ceil                    0042e740 f   d3dx8:math.obj
 0001:0002d780       _a_floor                   0042e780 f   d3dx8:math.obj
 0001:0002d7c0       _a_frexp                   0042e7c0 f   d3dx8:math.obj
 0001:0002d800       _a_ldexp                   0042e800 f   d3dx8:math.obj
 0001:0002d860       _a_modf                    0042e860 f   d3dx8:math.obj
 0001:0002d880       _a_fmod                    0042e880 f   d3dx8:math.obj
 0001:0002d8e0       _a_sincos                  0042e8e0 f   d3dx8:math.obj
 0001:0002d8e0       _a_cos                     0042e8e0 f   d3dx8:math.obj
 0001:0002da00       _a_sin                     0042ea00 f   d3dx8:math.obj
 0001:0002db20       _a_tan                     0042eb20 f   d3dx8:math.obj
 0001:0002dc60       _a_pow                     0042ec60 f   d3dx8:math.obj
 0001:0002ddf8       ?jpeg_get_small@D3DX@@YAPAXPAUjpeg_common_struct@1@I@Z 0042edf8 f   d3dx8:jmemnobs.obj
 0001:0002ddf8       ?jpeg_get_large@D3DX@@YAPAXPAUjpeg_common_struct@1@I@Z 0042edf8 f   d3dx8:jmemnobs.obj
 0001:0002de03       ?jpeg_free_large@D3DX@@YAXPAUjpeg_common_struct@1@PAXI@Z 0042ee03 f   d3dx8:jmemnobs.obj
 0001:0002de03       ?zcfree@D3DX@@YAXPAX0@Z    0042ee03 f   d3dx8:zutil.obj
 0001:0002de03       ?jpeg_free_small@D3DX@@YAXPAUjpeg_common_struct@1@PAXI@Z 0042ee03 f   d3dx8:jmemnobs.obj
 0001:0002de0e       ?jpeg_mem_available@D3DX@@YAJPAUjpeg_common_struct@1@JJJ@Z 0042ee0e f   d3dx8:jmemnobs.obj
 0001:0002de13       ?jpeg_open_backing_store@D3DX@@YAXPAUjpeg_common_struct@1@PAUbacking_store_struct@1@J@Z 0042ee13 f   d3dx8:jmemnobs.obj
 0001:0002de30       __matherr                  0042ee30 f   LIBCMT:matherr.obj
 0001:0002de30       ?IsWindow@CLayer@UI@@UAEHXZ 0042ee30 f   EterPythonLib:PythonWindowManager.obj
 0001:0002de30       ___scrt_initialize_winrt   0042ee30 f   LIBCMT:utility_desktop.obj
 0001:0002de30       __get_startup_thread_locale_mode 0042ee30 f   LIBCMT:thread_locale.obj
 0001:0002de30       ___scrt_stub_for_initialize_mta 0042ee30 f   LIBCMT:utility_desktop.obj
 0001:0002de30       ___scrt_exe_initialize_mta 0042ee30 f   LIBCMT:utility_desktop.obj
 0001:0002de30       ?sync@?$basic_streambuf@_WU?$char_traits@_W@std@@@std@@MAEHXZ 0042ee30 f   EterPack:EterPack.obj
 0001:0002de30       __get_startup_commit_mode  0042ee30 f   LIBCMT:commit_mode.obj
 0001:0002de30       ?jpeg_mem_init@D3DX@@YAJPAUjpeg_common_struct@1@@Z 0042ee30 f   d3dx8:jmemnobs.obj
 0001:0002de30       __get_startup_new_mode     0042ee30 f   LIBCMT:new_mode.obj
 0001:0002e371       ?jinit_d_main_controller@D3DX@@YAXPAUjpeg_decompress_struct@1@E@Z 0042f371 f   d3dx8:jdmainct.obj
 0001:0002efad       ?jinit_d_coef_controller@D3DX@@YAXPAUjpeg_decompress_struct@1@E@Z 0042ffad f   d3dx8:jdcoefct.obj
 0001:0002f0a5       ?jpeg_make_d_derived_tbl@D3DX@@YAXPAUjpeg_decompress_struct@1@PAUJHUFF_TBL@1@PAPAUd_derived_tbl@1@@Z 004300a5 f   d3dx8:jdhuff.obj
 0001:0002f24f       ?jpeg_fill_bit_buffer@D3DX@@YAEPAUbitread_working_state@1@JHH@Z 0043024f f   d3dx8:jdhuff.obj
 0001:0002f339       ?jpeg_huff_decode@D3DX@@YAHPAUbitread_working_state@1@JHPAUd_derived_tbl@1@H@Z 00430339 f   d3dx8:jdhuff.obj
 0001:0002f97d       ?jinit_huff_decoder@D3DX@@YAXPAUjpeg_decompress_struct@1@@Z 0043097d f   d3dx8:jdhuff.obj
 0001:0003052b       ?jinit_phuff_decoder@D3DX@@YAXPAUjpeg_decompress_struct@1@@Z 0043152b f   d3dx8:jdphuff.obj
 0001:00030743       ?jinit_inverse_dct@D3DX@@YAXPAUjpeg_decompress_struct@1@@Z 00431743 f   d3dx8:jddctmgr.obj
 0001:000309de       ?jinit_d_post_controller@D3DX@@YAXPAUjpeg_decompress_struct@1@E@Z 004319de f   d3dx8:jdpostct.obj
 0001:00030e9d       ?jinit_upsampler@D3DX@@YAXPAUjpeg_decompress_struct@1@@Z 00431e9d f   d3dx8:jdsample.obj
 0001:000312ce       ?MYCbCr2RGB@D3DX@@YAXHPAE000@Z 004322ce f   d3dx8:jdcolor.obj
 0001:00031628       ?jinit_color_deconverter@D3DX@@YAXPAUjpeg_decompress_struct@1@@Z 00432628 f   d3dx8:jdcolor.obj
 0001:00031c21       ?jinit_merged_upsampler@D3DX@@YAXPAUjpeg_decompress_struct@1@@Z 00432c21 f   d3dx8:jdmerge.obj
 0001:00032b96       ?jinit_2pass_quantizer@D3DX@@YAXPAUjpeg_decompress_struct@1@@Z 00433b96 f   d3dx8:jquant2.obj
 0001:00033628       ?jinit_1pass_quantizer@D3DX@@YAXPAUjpeg_decompress_struct@1@@Z 00434628 f   d3dx8:jquant1.obj
 0001:000336af       ?inflate_blocks_reset@D3DX@@YAXPAUinflate_blocks_state@1@PAUz_stream_s@1@PAK@Z 004346af f   d3dx8:infblock.obj
 0001:0003371a       ?inflate_blocks_new@D3DX@@YAPAUinflate_blocks_state@1@PAUz_stream_s@1@P6AKKPBEI@ZI@Z 0043471a f   d3dx8:infblock.obj
 0001:000337a7       ?inflate_blocks@D3DX@@YAHPAUinflate_blocks_state@1@PAUz_stream_s@1@H@Z 004347a7 f   d3dx8:infblock.obj
 0001:00033f42       ?inflate_blocks_free@D3DX@@YAHPAUinflate_blocks_state@1@PAUz_stream_s@1@@Z 00434f42 f   d3dx8:infblock.obj
 0001:00033f76       ?adler32@D3DX@@YAKKPBEI@Z  00434f76 f   d3dx8:adler32.obj
 0001:0003408f       ?zcalloc@D3DX@@YAPAXPAXII@Z 0043508f f   d3dx8:zutil.obj
 0001:0003409f       ?jpeg_idct_4x4@D3DX@@YAXPAUjpeg_decompress_struct@1@PAUjpeg_component_info@1@PAFPAPAEI@Z 0043509f f   d3dx8:jidctred.obj
 0001:000343b4       ?jpeg_idct_2x2@D3DX@@YAXPAUjpeg_decompress_struct@1@PAUjpeg_component_info@1@PAFPAPAEI@Z 004353b4 f   d3dx8:jidctred.obj
 0001:00034572       ?jpeg_idct_1x1@D3DX@@YAXPAUjpeg_decompress_struct@1@PAUjpeg_component_info@1@PAFPAPAEI@Z 00435572 f   d3dx8:jidctred.obj
 0001:000345af       ?jpeg_idct_islow@D3DX@@YAXPAUjpeg_decompress_struct@1@PAUjpeg_component_info@1@PAFPAPAEI@Z 004355af f   d3dx8:jidctint.obj
 0001:000345fb       ?jpeg_idct_ifast@D3DX@@YAXPAUjpeg_decompress_struct@1@PAUjpeg_component_info@1@PAFPAPAEI@Z 004355fb f   d3dx8:jidctfst.obj
 0001:00034647       ?jpeg_idct_float@D3DX@@YAXPAUjpeg_decompress_struct@1@PAUjpeg_component_info@1@PAFPAPAEI@Z 00435647 f   d3dx8:jidctflt.obj
 0001:00034a28       ?inflate_codes_new@D3DX@@YAPAUinflate_codes_state@1@IIPAUinflate_huft_s@1@0PAUz_stream_s@1@@Z 00435a28 f   d3dx8:infcodes.obj
 0001:00034a5c       ?inflate_codes@D3DX@@YAHPAUinflate_blocks_state@1@PAUz_stream_s@1@H@Z 00435a5c f   d3dx8:infcodes.obj
 0001:00034fc0       ?inflate_codes_free@D3DX@@YAXPAUinflate_codes_state@1@PAUz_stream_s@1@@Z 00435fc0 f   d3dx8:infcodes.obj
 0001:00035356       ?inflate_trees_bits@D3DX@@YAHPAI0PAPAUinflate_huft_s@1@PAU21@PAUz_stream_s@1@@Z 00436356 f   d3dx8:inftrees.obj
 0001:000353d5       ?inflate_trees_dynamic@D3DX@@YAHIIPAI00PAPAUinflate_huft_s@1@1PAU21@PAUz_stream_s@1@@Z 004363d5 f   d3dx8:inftrees.obj
 0001:000354d8       ?inflate_trees_fixed@D3DX@@YAHPAI0PAPAUinflate_huft_s@1@1PAUz_stream_s@1@@Z 004364d8 f   d3dx8:inftrees.obj
 0001:00035507       ?inflate_flush@D3DX@@YAHPAUinflate_blocks_state@1@PAUz_stream_s@1@H@Z 00436507 f   d3dx8:infutil.obj
 0001:0003561c       ?pidct8x8llm@D3DX@@YAXPAF00PAPAEIPAE@Z 0043661c f   d3dx8:piint.obj
 0001:00035a80       ?midct8x8llm@D3DX@@YAXPAF00PAPAEIPAE@Z 00436a80 f   d3dx8:miint.obj
 0001:00036138       ?pidct8x8aan@D3DX@@YAXPAF00PAPAEIPAE@Z 00437138 f   d3dx8:pifst.obj
 0001:00036493       ?midct8x8aan@D3DX@@YAXPAF00PAPAEIPAE@Z 00437493 f   d3dx8:mifst.obj
 0001:00037266       ?inflate_fast@D3DX@@YAHIIPAUinflate_huft_s@1@0PAUinflate_blocks_state@1@PAUz_stream_s@1@@Z 00438266 f   d3dx8:inffast.obj
 0001:0003751c       _AIL_shutdown@0            0043851c f   mss32:mss32.dll
 0001:00037530       _MSS_auto_cleanup          00438530 f   mss32:cleanup.obj
 0001:00037550       _lzo1x_decompress_safe     00438550 f   lzo-2.03MT:lzo1x_d2.obj
 0001:00037cf0       _lzo1x_999_compress_internal 00438cf0 f   lzo-2.03MT:lzo1x_9x.obj
 0001:00039b50       _lzo1x_999_compress_level  0043ab50 f   lzo-2.03MT:lzo1x_9x.obj
 0001:00039be0       _lzo1x_999_compress_dict   0043abe0 f   lzo-2.03MT:lzo1x_9x.obj
 0001:00039c10       _lzo1x_999_compress        0043ac10 f   lzo-2.03MT:lzo1x_9x.obj
 0001:00039c40       __lzo_config_check         0043ac40 f   lzo-2.03MT:lzo_init.obj
 0001:00039ce0       ___lzo_init_v2             0043ace0 f   lzo-2.03MT:lzo_init.obj
 0001:00039db0       _lzo1x_decompress          0043adb0 f   lzo-2.03MT:lzo1x_d1.obj
 0001:0003b330       ?SetHandler@CAccountConnector@@QAEXPAU_object@@@Z 0043c330 f   AccountConnector.obj
 0001:0003b340       ?SetLoginInfo@CAccountConnector@@QAEXPBD0@Z 0043c340 f   AccountConnector.obj
 0001:0003b390       ?ClearLoginInfo@CAccountConnector@@QAEXXZ 0043c390 f   AccountConnector.obj
 0001:0003b3b0       ?Connect@CAccountConnector@@QAE_NPBDH0H@Z 0043c3b0 f   AccountConnector.obj
 0001:0003b410       ?Disconnect@CAccountConnector@@QAEXXZ 0043c410 f   AccountConnector.obj
 0001:0003b420       ?Process@CAccountConnector@@QAEXXZ 0043c420 f   AccountConnector.obj
 0001:0003b450       ?__StateProcess@CAccountConnector@@IAE_NXZ 0043c450 f   AccountConnector.obj
 0001:0003b480       ?__HandshakeState_Process@CAccountConnector@@IAE_NXZ 0043c480 f   AccountConnector.obj
 0001:0003b4e0       ?__AuthState_Process@CAccountConnector@@IAE_NXZ 0043c4e0 f   AccountConnector.obj
 0001:0003b580       ?__AuthState_RecvEmpty@CAccountConnector@@IAE_NXZ 0043c580 f   AccountConnector.obj
 0001:0003b5a0       ?__AuthState_RecvPhase@CAccountConnector@@IAE_NXZ 0043c5a0 f   AccountConnector.obj
 0001:0003b6f0       ?__AuthState_RecvHandshake@CAccountConnector@@IAE_NXZ 0043c6f0 f   AccountConnector.obj
 0001:0003b790       ?__AuthState_RecvPing@CAccountConnector@@IAE_NXZ 0043c790 f   AccountConnector.obj
 0001:0003b7c0       ?__AuthState_SendPong@CAccountConnector@@IAE_NXZ 0043c7c0 f   AccountConnector.obj
 0001:0003b800       ?__AuthState_RecvAuthSuccess@CAccountConnector@@IAE_NXZ 0043c800 f   AccountConnector.obj
 0001:0003b8a0       ?__AuthState_RecvAuthFailure@CAccountConnector@@IAE_NXZ 0043c8a0 f   AccountConnector.obj
 0001:0003b910       ?__AnalyzePacket@CGuildMarkUploader@@AAE_NIIP81@AE_NXZ@Z 0043c910 f   GuildMarkUploader.obj
 0001:0003b910       ?__AnalyzePacket@CAccountConnector@@IAE_NIIP81@AE_NXZ@Z 0043c910 f   AccountConnector.obj
 0001:0003b960       ?__OfflineState_Set@CAccountConnector@@IAEXXZ 0043c960 f   AccountConnector.obj
 0001:0003b970       ?OnConnectSuccess@CAccountConnector@@MAEXXZ 0043c970 f   AccountConnector.obj
 0001:0003b970       ?__HandshakeState_Set@CAccountConnector@@IAEXXZ 0043c970 f   AccountConnector.obj
 0001:0003b970       ?__LoginState_Set@CGuildMarkUploader@@AAEXXZ 0043c970 f   GuildMarkUploader.obj
 0001:0003b980       ?__AuthState_Set@CAccountConnector@@IAEXXZ 0043c980 f   AccountConnector.obj
 0001:0003b990       ?OnConnectFailure@CAccountConnector@@MAEXXZ 0043c990 f   AccountConnector.obj
 0001:0003b9d0       ?OnRemoteDisconnect@CAccountConnector@@MAEXXZ 0043c9d0 f   AccountConnector.obj
 0001:0003ba10       ?OnDisconnect@CAccountConnector@@MAEXXZ 0043ca10 f   AccountConnector.obj
 0001:0003ba20       ?__BuildClientKey@CAccountConnector@@IAEXXZ 0043ca20 f   AccountConnector.obj
 0001:0003ba60       ?__Inialize@CAccountConnector@@IAEXXZ 0043ca60 f   AccountConnector.obj
 0001:0003ba80       ??0CAccountConnector@@QAE@XZ 0043ca80 f   AccountConnector.obj
 0001:0003bb90       ??_ECAccountConnector@@UAEPAXI@Z 0043cb90 f i * CIL library *:* CIL module *
 0001:0003bb90       ??_GCAccountConnector@@UAEPAXI@Z 0043cb90 f i AccountConnector.obj
 0001:0003bbc0       ??1CAccountConnector@@UAE@XZ 0043cbc0 f   AccountConnector.obj
 0001:0003bca0       ??1?$CSingleton@VCAccountConnector@@@@UAE@XZ 0043cca0 f i AccountConnector.obj
 0001:0003bcc0       ??_G?$CSingleton@VCAccountConnector@@@@UAEPAXI@Z 0043ccc0 f i AccountConnector.obj
 0001:0003bcc0       ??_E?$CSingleton@VCAccountConnector@@@@UAEPAXI@Z 0043ccc0 f i * CIL library *:* CIL module *
 0001:0003bcee       ??_ECAccountConnector@@WIM@AEPAXI@Z 0043ccee f i AccountConnector.obj
 0001:0003bd00       ?c_str@?$basic_string@DU?$char_traits@D@std@@V?$allocator@D@2@@std@@QBEPBDXZ 0043cd00 f i AccountConnector.obj
 0001:0003bd00       ?GetFileName@CProperty@@QAEPBDXZ 0043cd00 f i GameLib:Property.obj
 0001:0003bd10       ?_Xlen_string@std@@YAXXZ   0043cd10 f i AccountConnector.obj
 0001:0003bd20       ??0bad_array_new_length@std@@QAE@XZ 0043cd20 f i AccountConnector.obj
 0001:0003bd40       ??1bad_alloc@std@@UAE@XZ   0043cd40 f i AccountConnector.obj
 0001:0003bd40       ??1bad_cast@std@@UAE@XZ    0043cd40 f i EterPack:EterPack.obj
 0001:0003bd40       ??1bad_array_new_length@std@@UAE@XZ 0043cd40 f i AccountConnector.obj
 0001:0003bd40       ??1__non_rtti_object@std@@UAE@XZ 0043cd40 f i libvcruntime:rtti.obj
 0001:0003bd40       ??1bad_exception@std@@UAE@XZ 0043cd40 f i libvcruntime:frame.obj
 0001:0003bd40       ??1out_of_range@std@@UAE@XZ 0043cd40 f i libcpmt:xthrow.obj
 0001:0003bd40       ??1length_error@std@@UAE@XZ 0043cd40 f i libcpmt:xthrow.obj
 0001:0003bd40       ??1failure@ios_base@std@@UAE@XZ 0043cd40 f i EterPack:EterPack.obj
 0001:0003bd40       ??1runtime_error@std@@UAE@XZ 0043cd40 f i libcpmt:xthrow.obj
 0001:0003bd60       ??_Ebad_cast@std@@UAEPAXI@Z 0043cd60 f i EterPack:EterPack.obj
 0001:0003bd60       ??_Gexception@std@@UAEPAXI@Z 0043cd60 f i AccountConnector.obj
 0001:0003bd60       ??_Eexception@std@@UAEPAXI@Z 0043cd60 f i * CIL library *:* CIL module *
 0001:0003bd60       ??_Gbad_cast@std@@UAEPAXI@Z 0043cd60 f i EterPack:EterPack.obj
 0001:0003bd60       ??_Ebad_array_new_length@std@@UAEPAXI@Z 0043cd60 f i * CIL library *:* CIL module *
 0001:0003bd60       ??_Eruntime_error@std@@UAEPAXI@Z 0043cd60 f i EterPack:EterPack.obj
 0001:0003bd60       ??_Gbad_alloc@std@@UAEPAXI@Z 0043cd60 f i AccountConnector.obj
 0001:0003bd60       ??_Ebad_alloc@std@@UAEPAXI@Z 0043cd60 f i * CIL library *:* CIL module *
 0001:0003bd60       ??_Gbad_array_new_length@std@@UAEPAXI@Z 0043cd60 f i AccountConnector.obj
 0001:0003bd60       ??_Gruntime_error@std@@UAEPAXI@Z 0043cd60 f i EterPack:EterPack.obj
 0001:0003bd90       ??0bad_array_new_length@std@@QAE@ABV01@@Z 0043cd90 f i AccountConnector.obj
 0001:0003bdd0       ??0bad_alloc@std@@QAE@ABV01@@Z 0043cdd0 f i AccountConnector.obj
 0001:0003be10       ??0exception@std@@QAE@ABV01@@Z 0043ce10 f i AccountConnector.obj
 0001:0003be40       ?_Throw_bad_array_new_length@std@@YAXXZ 0043ce40 f i AccountConnector.obj
 0001:0003be40       ?__scrt_throw_std_bad_array_new_length@@YAXXZ 0043ce40 f i LIBCMT:throw_bad_alloc.obj
 0001:0003be60       ??$_Allocate_manually_vector_aligned@U_Default_allocate_traits@std@@@std@@YAPAXI@Z 0043ce60 f i AccountConnector.obj
 0001:0003be90       ??$_Allocate@$07U_Default_allocate_traits@std@@$0A@@std@@YAPAXI@Z 0043ce90 f i AccountConnector.obj
 0001:0003bec0       ??$_Construct_in_place@PAU?$_List_node@PAUSEterPackIndex@@PAX@std@@AAPAU12@@std@@YAXAAPAU?$_List_node@PAUSEterPackIndex@@PAX@0@0@Z 0043cec0 f i EterPack:EterPack.obj
 0001:0003bec0       ??$_Construct_in_place@PAU?$_Tree_node@U?$pair@$$CBHPAE@std@@PAX@std@@ABQAU12@@std@@YAXAAPAU?$_Tree_node@U?$pair@$$CBHPAE@std@@PAX@0@ABQAU10@@Z 0043cec0 f i GameLib:MapOutdoor.obj
 0001:0003bec0       ??$_Construct_in_place@PAU?$_Tree_node@U?$pair@$$CBMUCDynamicSphereInstance@@@std@@PAX@std@@ABQAU12@@std@@YAXAAPAU?$_Tree_node@U?$pair@$$CBMUCDynamicSphereInstance@@@std@@PAX@0@ABQAU10@@Z 0043cec0 f i GameLib:GameType.obj
 0001:0003bec0       ??$_Construct_in_place@PAU?$_Tree_node@U?$pair@$$CBKPAVCResource@@@std@@PAX@std@@ABQAU12@@std@@YAXAAPAU?$_Tree_node@U?$pair@$$CBKPAVCResource@@@std@@PAX@0@ABQAU10@@Z 0043cec0 f i EterLib:ResourceManager.obj
 0001:0003bec0       ??$_Construct_in_place@PAU?$_Tree_node@U?$pair@$$CBKPAVCSoundData@@@std@@PAX@std@@AAPAU12@@std@@YAXAAPAU?$_Tree_node@U?$pair@$$CBKPAVCSoundData@@@std@@PAX@0@0@Z 0043cec0 f i MilesLib:SoundBase.obj
 0001:0003bec0       ??$_Construct_in_place@PAU?$_Tree_node@PAVIActorInstance@@PAX@std@@AAPAU12@@std@@YAXAAPAU?$_Tree_node@PAVIActorInstance@@PAX@0@0@Z 0043cec0 f i GameLib:FlyingInstance.obj
 0001:0003bec0       ??$_Construct_in_place@PAU?$_Tree_node@U?$pair@QAVCGraphicThingInstance@@K@std@@PAX@std@@AAPAU12@@std@@YAXAAPAU?$_Tree_node@U?$pair@QAVCGraphicThingInstance@@K@std@@PAX@0@0@Z 0043cec0 f i GameLib:Area.obj
 0001:0003bec0       ??$_Construct_in_place@PAU?$_Tree_node@U?$pair@$$CBKPAV?$CRef@VCGraphicThing@@@@@std@@PAX@std@@ABQAU12@@std@@YAXAAPAU?$_Tree_node@U?$pair@$$CBKPAV?$CRef@VCGraphicThing@@@@@std@@PAX@0@ABQAU10@@Z 0043cec0 f i EterGrnLib:ThingInstance.obj
 0001:0003bec0       ??$_Construct_in_place@PAU?$_Tree_node@KPAX@std@@ABQAU12@@std@@YAXAAPAU?$_Tree_node@KPAX@0@ABQAU10@@Z 0043cec0 f i InstanceBaseEffect.obj
 0001:0003bec0       ??$_Construct_in_place@PAU?$_Tree_node@U?$pair@$$CBKPAVCProperty@@@std@@PAX@std@@ABQAU12@@std@@YAXAAPAU?$_Tree_node@U?$pair@$$CBKPAVCProperty@@@std@@PAX@0@ABQAU10@@Z 0043cec0 f i GameLib:PropertyManager.obj
 0001:0003bec0       ??$_Construct_in_place@PAU?$_List_node@PAUSSlot@CSlotWindow@UI@@PAX@std@@ABQAU12@@std@@YAXAAPAU?$_List_node@PAUSSlot@CSlotWindow@UI@@PAX@0@ABQAU10@@Z 0043cec0 f i EterPythonLib:PythonGridSlotWindow.obj
 0001:0003bec0       ??$_Construct_in_place@PAU?$_Tree_node@U?$pair@$$CBV?$basic_string@DU?$char_traits@D@std@@V?$allocator@D@2@@std@@V?$vector@V?$basic_string@DU?$char_traits@D@std@@V?$allocator@D@2@@std@@V?$allocator@V?$basic_string@DU?$char_traits@D@std@@V?$allocator@D@2@@std@@@2@@2@@std@@PAX@std@@AAPAU12@@std@@YAXAAPAU?$_Tree_node@U?$pair@$$CBV?$basic_string@DU?$char_traits@D@std@@V?$allocator@D@2@@std@@V?$vector@V?$basic_string@DU?$char_traits@D@std@@V?$allocator@D@2@@std@@V?$allocator@V?$basic_string@DU?$char_traits@D@std@@V?$allocator@D@2@@std@@@2@@2@@std@@PAX@0@0@Z 0043cec0 f i PythonMiniMap.obj
 0001:0003bec0       ??$_Construct_in_place@PAU?$_Tree_node@U?$pair@$$CBHUSPacketType@CNetworkPacketHeaderMap@@@std@@PAX@std@@AAPAU12@@std@@YAXAAPAU?$_Tree_node@U?$pair@$$CBHUSPacketType@CNetworkPacketHeaderMap@@@std@@PAX@0@0@Z 0043cec0 f i EterLib:NetPacketHeaderMap.obj
 0001:0003bec0       ??$_Construct_in_place@PAU?$_Tree_node@U?$pair@$$CBKPAUSEnvironmentData@@@std@@PAX@std@@ABQAU12@@std@@YAXAAPAU?$_Tree_node@U?$pair@$$CBKPAUSEnvironmentData@@@std@@PAX@0@ABQAU10@@Z 0043cec0 f i GameLib:MapManager.obj
 0001:0003bec0       ??$_Construct_in_place@PAU?$_Tree_node@U?$pair@$$CBKH@std@@PAX@std@@AAPAU12@@std@@YAXAAPAU?$_Tree_node@U?$pair@$$CBKH@std@@PAX@0@0@Z 0043cec0 f i GameLib:MapOutdoor.obj
 0001:0003bec0       ??$_Construct_in_place@PAU?$_Tree_node@U?$pair@$$CBKPAVCEffectInstance@@@std@@PAX@std@@ABQAU12@@std@@YAXAAPAU?$_Tree_node@U?$pair@$$CBKPAVCEffectInstance@@@std@@PAX@0@ABQAU10@@Z 0043cec0 f i EffectLib:EffectManager.obj
 0001:0003bec0       ??$_Construct_in_place@PAU?$_List_node@USCmd@script@@PAX@std@@AAPAU12@@std@@YAXAAPAU?$_List_node@USCmd@script@@PAX@0@0@Z 0043cec0 f i EterLib:parser.obj
 0001:0003bec0       ??$_Construct_in_place@PAU?$_List_node@PAVCWindow@UI@@PAX@std@@AAPAU12@@std@@YAXAAPAU?$_List_node@PAVCWindow@UI@@PAX@0@0@Z 0043cec0 f i EterPythonLib:PythonWindowManager.obj
 0001:0003bec0       ??$_Construct_in_place@PAU?$_List_node@UTAttachingEffect@CActorInstance@@PAX@std@@AAPAU12@@std@@YAXAAPAU?$_List_node@UTAttachingEffect@CActorInstance@@PAX@0@0@Z 0043cec0 f i GameLib:ActorInstance.obj
 0001:0003bec0       ??$_Construct_in_place@PAU?$_Tree_node@U?$pair@$$CBKPAVCEffectData@@@std@@PAX@std@@AAPAU12@@std@@YAXAAPAU?$_Tree_node@U?$pair@$$CBKPAVCEffectData@@@std@@PAX@0@0@Z 0043cec0 f i EffectLib:EffectManager.obj
 0001:0003bec0       ??$_Construct_in_place@PAU?$_Tree_node@U?$pair@$$CBV?$basic_string@DU?$char_traits@D@std@@V?$allocator@D@2@@std@@P6APAVCResource@@PBD@Z@std@@PAX@std@@ABQAU12@@std@@YAXAAPAU?$_Tree_node@U?$pair@$$CBV?$basic_string@DU?$char_traits@D@std@@V?$allocator@D@2@@std@@P6APAVCResource@@PBD@Z@std@@PAX@0@ABQAU10@@Z 0043cec0 f i EterLib:ResourceManager.obj
 0001:0003bec0       ??$_Construct_in_place@PAU?$_List_node@UtagRECT@@PAX@std@@AAPAU12@@std@@YAXAAPAU?$_List_node@UtagRECT@@PAX@0@0@Z 0043cec0 f i GameLib:MapOutdoor.obj
 0001:0003bec0       ??$_Construct_in_place@PAU?$_Tree_node@U?$pair@$$CBKPAVCTextFileLoader@@@std@@PAX@std@@ABQAU12@@std@@YAXAAPAU?$_Tree_node@U?$pair@$$CBKPAVCTextFileLoader@@@std@@PAX@0@ABQAU10@@Z 0043cec0 f i EterLib:TextFileLoader.obj
 0001:0003bec0       ??$_Construct_in_place@PAU?$_Tree_node@U?$pair@$$CBKPAVCSoundData@@@std@@PAX@std@@ABQAU12@@std@@YAXAAPAU?$_Tree_node@U?$pair@$$CBKPAVCSoundData@@@std@@PAX@0@ABQAU10@@Z 0043cec0 f i MilesLib:SoundBase.obj
 0001:0003bec0       ??$_Construct_in_place@PAU?$_Tree_node@HPAX@std@@AAPAU12@@std@@YAXAAPAU?$_Tree_node@HPAX@0@0@Z 0043cec0 f i PythonBackground.obj
 0001:0003bec0       ??$_Construct_in_place@PAU?$_Tree_node@U?$pair@$$CBV?$basic_string@DU?$char_traits@D@std@@V?$allocator@D@2@@std@@K@std@@PAX@std@@ABQAU12@@std@@YAXAAPAU?$_Tree_node@U?$pair@$$CBV?$basic_string@DU?$char_traits@D@std@@V?$allocator@D@2@@std@@K@std@@PAX@0@ABQAU10@@Z 0043cec0 f i PythonSkill.obj
 0001:0003bec0       ??$_Construct_in_place@PAU?$_Tree_node@U?$pair@$$CBGPAUSMotionModeData@CRaceData@@@std@@PAX@std@@ABQAU12@@std@@YAXAAPAU?$_Tree_node@U?$pair@$$CBGPAUSMotionModeData@CRaceData@@@std@@PAX@0@ABQAU10@@Z 0043cec0 f i GameLib:RaceData.obj
 0001:0003bec0       ??$_Construct_in_place@PAU?$_Tree_node@U?$pair@$$CBKPAVCResource@@@std@@PAX@std@@AAPAU12@@std@@YAXAAPAU?$_Tree_node@U?$pair@$$CBKPAVCResource@@@std@@PAX@0@0@Z 0043cec0 f i EterLib:ResourceManager.obj
 0001:0003bec0       ??$_Construct_in_place@PAU?$_Tree_node@PAUSObjectInstance@CArea@@PAX@std@@AAPAU12@@std@@YAXAAPAU?$_Tree_node@PAUSObjectInstance@CArea@@PAX@0@0@Z 0043cec0 f i GameLib:Area.obj
 0001:0003bec0       ??$_Construct_in_place@PAU?$_Tree_node@U?$pair@$$CBKH@std@@PAX@std@@ABQAU12@@std@@YAXAAPAU?$_Tree_node@U?$pair@$$CBKH@std@@PAX@0@ABQAU10@@Z 0043cec0 f i GameLib:MapOutdoor.obj
 0001:0003bec0       ??$_Construct_in_place@PAU?$_Tree_node@U?$pair@$$CBKUSShape@CRaceData@@@std@@PAX@std@@AAPAU12@@std@@YAXAAPAU?$_Tree_node@U?$pair@$$CBKUSShape@CRaceData@@@std@@PAX@0@0@Z 0043cec0 f i GameLib:RaceData.obj
 0001:0003bec0       ??$_Construct_in_place@PAU?$_Tree_node@MPAX@std@@AAPAU12@@std@@YAXAAPAU?$_Tree_node@MPAX@0@0@Z 0043cec0 f i EffectLib:ParticleSystemData.obj
 0001:0003bec0       ??$_Construct_in_place@PAU?$_List_node@USSlot@CSlotWindow@UI@@PAX@std@@AAPAU12@@std@@YAXAAPAU?$_List_node@USSlot@CSlotWindow@UI@@PAX@0@0@Z 0043cec0 f i EterPythonLib:PythonSlotWindow.obj
 0001:0003bec0       ??$_Construct_in_place@PA_WABQA_W@std@@YAXAAPA_WABQA_W@Z 0043cec0 f i EterLib:GrpTextInstance.obj
 0001:0003bec0       ??$_Construct_in_place@PAU?$_Tree_node@U?$pair@$$CBKUSIndexFlyData@CFlyingManager@@@std@@PAX@std@@ABQAU12@@std@@YAXAAPAU?$_Tree_node@U?$pair@$$CBKUSIndexFlyData@CFlyingManager@@@std@@PAX@0@ABQAU10@@Z 0043cec0 f i GameLib:FlyingObjectManager.obj
 0001:0003bec0       ??$_Construct_in_place@PAU?$_Tree_node@U?$pair@$$CBKPAVCEffectData@@@std@@PAX@std@@ABQAU12@@std@@YAXAAPAU?$_Tree_node@U?$pair@$$CBKPAVCEffectData@@@std@@PAX@0@ABQAU10@@Z 0043cec0 f i EffectLib:EffectManager.obj
 0001:0003bec0       ??$_Construct_in_place@PAU?$_Tree_node@U?$pair@$$CBEPAVCCamera@@@std@@PAX@std@@ABQAU12@@std@@YAXAAPAU?$_Tree_node@U?$pair@$$CBEPAVCCamera@@@std@@PAX@0@ABQAU10@@Z 0043cec0 f i EterLib:Camera.obj
 0001:0003bec0       ??$_Construct_in_place@PAU?$_Tree_node@U?$pair@$$CBGV?$vector@USMotion@CRaceData@@V?$allocator@USMotion@CRaceData@@@std@@@std@@@std@@PAX@std@@AAPAU12@@std@@YAXAAPAU?$_Tree_node@U?$pair@$$CBGV?$vector@USMotion@CRaceData@@V?$allocator@USMotion@CRaceData@@@std@@@std@@@std@@PAX@0@0@Z 0043cec0 f i GameLib:RaceData.obj
 0001:0003bec0       ??$_Construct_in_place@PAU?$_Tree_node@PADPAX@std@@AAPAU12@@std@@YAXAAPAU?$_Tree_node@PADPAX@0@0@Z 0043cec0 f i EterLib:MSWindow.obj
 0001:0003bec0       ??$_Construct_in_place@PAU?$_List_node@PAVCFlyingInstance@@PAX@std@@AAPAU12@@std@@YAXAAPAU?$_List_node@PAVCFlyingInstance@@PAX@0@0@Z 0043cec0 f i GameLib:FlyingObjectManager.obj
 0001:0003bec0       ??$_Construct_in_place@PAU?$_List_node@PAVCFlyingInstance@@PAX@std@@ABQAU12@@std@@YAXAAPAU?$_List_node@PAVCFlyingInstance@@PAX@0@ABQAU10@@Z 0043cec0 f i GameLib:FlyingObjectManager.obj
 0001:0003bec0       ??$_Construct_in_place@PAU?$_Tree_node@U?$pair@$$CBKV?$basic_string@DU?$char_traits@D@std@@V?$allocator@D@2@@std@@@std@@PAX@std@@AAPAU12@@std@@YAXAAPAU?$_Tree_node@U?$pair@$$CBKV?$basic_string@DU?$char_traits@D@std@@V?$allocator@D@2@@std@@@std@@PAX@0@0@Z 0043cec0 f i PythonGuild.obj
 0001:0003bec0       ??$_Construct_in_place@PAU?$_Tree_node@U?$pair@$$CBHPAVCWindow@UI@@@std@@PAX@std@@ABQAU12@@std@@YAXAAPAU?$_Tree_node@U?$pair@$$CBHPAVCWindow@UI@@@std@@PAX@0@ABQAU10@@Z 0043cec0 f i EterPythonLib:PythonWindowManager.obj
 0001:0003bec0       ??$_Construct_in_place@PAU?$_Tree_node@U?$pair@$$CBV?$basic_string@DU?$char_traits@D@std@@V?$allocator@D@2@@std@@PAVCWindow@UI@@@std@@PAX@std@@AAPAU12@@std@@YAXAAPAU?$_Tree_node@U?$pair@$$CBV?$basic_string@DU?$char_traits@D@std@@V?$allocator@D@2@@std@@PAVCWindow@UI@@@std@@PAX@0@0@Z 0043cec0 f i EterPythonLib:PythonWindowManager.obj
 0001:0003bec0       ??$_Construct_in_place@PAU?$_Tree_node@U?$pair@$$CBHUSPacketType@CNetworkPacketHeaderMap@@@std@@PAX@std@@ABQAU12@@std@@YAXAAPAU?$_Tree_node@U?$pair@$$CBHUSPacketType@CNetworkPacketHeaderMap@@@std@@PAX@0@ABQAU10@@Z 0043cec0 f i EterLib:NetPacketHeaderMap.obj
 0001:0003bec0       ??$_Construct_in_place@PAU?$_Tree_node@U?$pair@$$CBJPAVCResource@@@std@@PAX@std@@AAPAU12@@std@@YAXAAPAU?$_Tree_node@U?$pair@$$CBJPAVCResource@@@std@@PAX@0@0@Z 0043cec0 f i EterLib:ResourceManager.obj
 0001:0003bec0       ??$_Construct_in_place@PAU?$_Tree_node@U?$pair@$$CBV?$basic_string@DU?$char_traits@D@std@@V?$allocator@D@2@@std@@P6APAVCResource@@PBD@Z@std@@PAX@std@@AAPAU12@@std@@YAXAAPAU?$_Tree_node@U?$pair@$$CBV?$basic_string@DU?$char_traits@D@std@@V?$allocator@D@2@@std@@P6APAVCResource@@PBD@Z@std@@PAX@0@0@Z 0043cec0 f i EterLib:ResourceManager.obj
 0001:0003bec0       ??$_Construct_in_place@PAU?$_Tree_node@PADPAX@std@@ABQAU12@@std@@YAXAAPAU?$_Tree_node@PADPAX@0@ABQAU10@@Z 0043cec0 f i EterLib:MSWindow.obj
 0001:0003bec0       ??$_Construct_in_place@PAU?$_Tree_node@MPAX@std@@ABQAU12@@std@@YAXAAPAU?$_Tree_node@MPAX@0@ABQAU10@@Z 0043cec0 f i EffectLib:ParticleSystemData.obj
 0001:0003bec0       ??$_Construct_in_place@PAU?$_Tree_node@PAVCWindow@UI@@PAX@std@@ABQAU12@@std@@YAXAAPAU?$_Tree_node@PAVCWindow@UI@@PAX@0@ABQAU10@@Z 0043cec0 f i EterPythonLib:PythonWindowManager.obj
 0001:0003bec0       ??$_Construct_in_place@PAU?$_Tree_node@U?$pair@$$CBV?$basic_string@DU?$char_traits@D@std@@V?$allocator@D@2@@std@@PAVCWindow@UI@@@std@@PAX@std@@ABQAU12@@std@@YAXAAPAU?$_Tree_node@U?$pair@$$CBV?$basic_string@DU?$char_traits@D@std@@V?$allocator@D@2@@std@@PAVCWindow@UI@@@std@@PAX@0@ABQAU10@@Z 0043cec0 f i EterPythonLib:PythonWindowManager.obj
 0001:0003bec0       ??$_Construct_in_place@PAU?$_List_node@PAVCEterPack@@PAX@std@@ABQAU12@@std@@YAXAAPAU?$_List_node@PAVCEterPack@@PAX@0@ABQAU10@@Z 0043cec0 f i EterPack:EterPackManager.obj
 0001:0003bec0       ??$_Construct_in_place@PAU?$_List_node@PAUSEterPackIndex@@PAX@std@@ABQAU12@@std@@YAXAAPAU?$_List_node@PAUSEterPackIndex@@PAX@0@ABQAU10@@Z 0043cec0 f i EterPack:EterPack.obj
 0001:0003bec0       ??$_Construct_in_place@PAU?$_Tree_node@U?$pair@QAVCResource@@K@std@@PAX@std@@ABQAU12@@std@@YAXAAPAU?$_Tree_node@U?$pair@QAVCResource@@K@std@@PAX@0@ABQAU10@@Z 0043cec0 f i EterLib:ResourceManager.obj
 0001:0003bec0       ??$_Construct_in_place@PAU?$_Tree_node@U?$pair@QBUSHitData@NRaceData@@V?$map@PAVCActorInstance@@MU?$less@PAVCActorInstance@@@std@@V?$allocator@U?$pair@QAVCActorInstance@@M@std@@@3@@std@@@std@@PAX@std@@ABQAU12@@std@@YAXAAPAU?$_Tree_node@U?$pair@QBUSHitData@NRaceData@@V?$map@PAVCActorInstance@@MU?$less@PAVCActorInstance@@@std@@V?$allocator@U?$pair@QAVCActorInstance@@M@std@@@3@@std@@@std@@PAX@0@ABQAU10@@Z 0043cec0 f i GameLib:ActorInstance.obj
 0001:0003bec0       ??$_Construct_in_place@PAU?$_Tree_node@U?$pair@$$CBIV?$basic_string@DU?$char_traits@D@std@@V?$allocator@D@2@@std@@@std@@PAX@std@@AAPAU12@@std@@YAXAAPAU?$_Tree_node@U?$pair@$$CBIV?$basic_string@DU?$char_traits@D@std@@V?$allocator@D@2@@std@@@std@@PAX@0@0@Z 0043cec0 f i EterLib:GrpDevice.obj
 0001:0003bec0       ??$_Construct_in_place@PAU?$_Tree_node@U?$pair@$$CBKPAVCFlyingData@@@std@@PAX@std@@ABQAU12@@std@@YAXAAPAU?$_Tree_node@U?$pair@$$CBKPAVCFlyingData@@@std@@PAX@0@ABQAU10@@Z 0043cec0 f i GameLib:FlyingObjectManager.obj
 0001:0003bec0       ??$_Construct_in_place@PAU?$_Tree_node@U?$pair@$$CBHPAVCWindow@UI@@@std@@PAX@std@@AAPAU12@@std@@YAXAAPAU?$_Tree_node@U?$pair@$$CBHPAVCWindow@UI@@@std@@PAX@0@0@Z 0043cec0 f i EterPythonLib:PythonWindowManager.obj
 0001:0003bec0       ??$_Construct_in_place@PAU?$_List_node@USArgumet@script@@PAX@std@@PAU12@@std@@YAXAAPAU?$_List_node@USArgumet@script@@PAX@0@$$QAPAU10@@Z 0043cec0 f i EterLib:parser.obj
 0001:0003bec0       ??$_Construct_in_place@PAU?$_List_node@PAVCParticleInstance@@PAX@std@@AAPAU12@@std@@YAXAAPAU?$_List_node@PAVCParticleInstance@@PAX@0@0@Z 0043cec0 f i EffectLib:ParticleSystemInstance.obj
 0001:0003bec0       ??$_Construct_in_place@PAU?$_Tree_node@PAVIActorInstance@@PAX@std@@ABQAU12@@std@@YAXAAPAU?$_Tree_node@PAVIActorInstance@@PAX@0@ABQAU10@@Z 0043cec0 f i GameLib:FlyingInstance.obj
 0001:0003bec0       ??$_Construct_in_place@PAU?$_List_node@PAVCParticleInstance@@PAX@std@@ABQAU12@@std@@YAXAAPAU?$_List_node@PAVCParticleInstance@@PAX@0@ABQAU10@@Z 0043cec0 f i EffectLib:ParticleSystemInstance.obj
 0001:0003bec0       ??$_Construct_in_place@PAU?$_Tree_node@U?$pair@$$CBGPAUSMotionModeData@CRaceData@@@std@@PAX@std@@AAPAU12@@std@@YAXAAPAU?$_Tree_node@U?$pair@$$CBGPAUSMotionModeData@CRaceData@@@std@@PAX@0@0@Z 0043cec0 f i GameLib:RaceData.obj
 0001:0003bec0       ??$_Construct_in_place@PAU?$_Tree_node@U?$pair@$$CBKPAVCRaceData@@@std@@PAX@std@@AAPAU12@@std@@YAXAAPAU?$_Tree_node@U?$pair@$$CBKPAVCRaceData@@@std@@PAX@0@0@Z 0043cec0 f i GameLib:RaceManager.obj
 0001:0003bec0       ??$_Construct_in_place@PAU?$_List_node@V?$basic_string@DU?$char_traits@D@std@@V?$allocator@D@2@@std@@PAX@std@@AAPAU12@@std@@YAXAAPAU?$_List_node@V?$basic_string@DU?$char_traits@D@std@@V?$allocator@D@2@@std@@PAX@0@0@Z 0043cec0 f i InsultChecker.obj
 0001:0003bec0       ??$_Construct_in_place@PAU?$_Tree_node@U?$pair@$$CBKV?$vector@V?$basic_string@DU?$char_traits@D@std@@V?$allocator@D@2@@std@@V?$allocator@V?$basic_string@DU?$char_traits@D@std@@V?$allocator@D@2@@std@@@2@@std@@@std@@PAX@std@@ABQAU12@@std@@YAXAAPAU?$_Tree_node@U?$pair@$$CBKV?$vector@V?$basic_string@DU?$char_traits@D@std@@V?$allocator@D@2@@std@@V?$allocator@V?$basic_string@DU?$char_traits@D@std@@V?$allocator@D@2@@std@@@2@@std@@@std@@PAX@0@ABQAU10@@Z 0043cec0 f i EterLib:TextFileLoader.obj
 0001:0003bec0       ??$_Construct_in_place@PAU?$_Tree_node@PAUSObjectInstance@CArea@@PAX@std@@ABQAU12@@std@@YAXAAPAU?$_Tree_node@PAUSObjectInstance@CArea@@PAX@0@ABQAU10@@Z 0043cec0 f i GameLib:Area.obj
 0001:0003bec0       ??$_Construct_in_place@PAU?$_Tree_node@U?$pair@$$CBV?$basic_string@DU?$char_traits@D@std@@V?$allocator@D@2@@std@@M@std@@PAX@std@@AAPAU12@@std@@YAXAAPAU?$_Tree_node@U?$pair@$$CBV?$basic_string@DU?$char_traits@D@std@@V?$allocator@D@2@@std@@M@std@@PAX@0@0@Z 0043cec0 f i MilesLib:SoundManager.obj
 0001:0003bec0       ??$_Construct_in_place@PAU?$_Tree_node@U?$pair@$$CBV?$basic_string@DU?$char_traits@D@std@@V?$allocator@D@2@@std@@V12@@std@@PAX@std@@ABQAU12@@std@@YAXAAPAU?$_Tree_node@U?$pair@$$CBV?$basic_string@DU?$char_traits@D@std@@V?$allocator@D@2@@std@@V12@@std@@PAX@0@ABQAU10@@Z 0043cec0 f i PythonSkill.obj
 0001:0003bec0       ??$_Construct_in_place@PAU?$_List_node@USCollisionPointInstance@CActorInstance@@PAX@std@@AAPAU12@@std@@YAXAAPAU?$_List_node@USCollisionPointInstance@CActorInstance@@PAX@0@0@Z 0043cec0 f i GameLib:ActorInstance.obj
 0001:0003bec0       ??$_Construct_in_place@PAU?$_Tree_node@U?$pair@QAVCActorInstance@@M@std@@PAX@std@@AAPAU12@@std@@YAXAAPAU?$_Tree_node@U?$pair@QAVCActorInstance@@M@std@@PAX@0@0@Z 0043cec0 f i GameLib:ActorInstanceCollisionDetection.obj
 0001:0003bec0       ??$_Construct_in_place@PAU?$_Tree_node@U?$pair@$$CBU?$pair@G_W@std@@USCharacterInfomation@CGraphicFontTexture@@@std@@PAX@std@@AAPAU12@@std@@YAXAAPAU?$_Tree_node@U?$pair@$$CBU?$pair@G_W@std@@USCharacterInfomation@CGraphicFontTexture@@@std@@PAX@0@0@Z 0043cec0 f i EterLib:GrpFontTexture.obj
 0001:0003bec0       ??$_Construct_in_place@PAU?$_Tree_node@U?$pair@$$CBKUSComboAttackData@CRaceData@@@std@@PAX@std@@ABQAU12@@std@@YAXAAPAU?$_Tree_node@U?$pair@$$CBKUSComboAttackData@CRaceData@@@std@@PAX@0@ABQAU10@@Z 0043cec0 f i GameLib:RaceData.obj
 0001:0003bec0       ??$_Construct_in_place@PAU?$_Tree_node@U?$pair@QAVCGraphicThingInstance@@K@std@@PAX@std@@ABQAU12@@std@@YAXAAPAU?$_Tree_node@U?$pair@QAVCGraphicThingInstance@@K@std@@PAX@0@ABQAU10@@Z 0043cec0 f i GameLib:Area.obj
 0001:0003bec0       ??$_Construct_in_place@PAU?$_Tree_node@U?$pair@QAVCResource@@K@std@@PAX@std@@AAPAU12@@std@@YAXAAPAU?$_Tree_node@U?$pair@QAVCResource@@K@std@@PAX@0@0@Z 0043cec0 f i EterLib:ResourceManager.obj
 0001:0003bec0       ??$_Construct_in_place@PAU?$_Tree_node@PAVCFlyTarget@@PAX@std@@AAPAU12@@std@@YAXAAPAU?$_Tree_node@PAVCFlyTarget@@PAX@0@0@Z 0043cec0 f i GameLib:FlyTarget.obj
 0001:0003bec0       ??$_Construct_in_place@PAU?$_Tree_node@U?$pair@$$CBKUSHair@CRaceData@@@std@@PAX@std@@ABQAU12@@std@@YAXAAPAU?$_Tree_node@U?$pair@$$CBKUSHair@CRaceData@@@std@@PAX@0@ABQAU10@@Z 0043cec0 f i GameLib:RaceData.obj
 0001:0003bec0       ??$_Construct_in_place@PAU?$_Tree_node@U?$pair@$$CBKPAV?$CRef@VCGraphicThing@@@@@std@@PAX@std@@AAPAU12@@std@@YAXAAPAU?$_Tree_node@U?$pair@$$CBKPAV?$CRef@VCGraphicThing@@@@@std@@PAX@0@0@Z 0043cec0 f i EterGrnLib:ThingInstance.obj
 0001:0003bec0       ??$_Construct_in_place@PAU?$_Tree_node@U?$pair@$$CBV?$basic_string@DU?$char_traits@D@std@@V?$allocator@D@2@@std@@PAVCGraphicImageInstance@@@std@@PAX@std@@ABQAU12@@std@@YAXAAPAU?$_Tree_node@U?$pair@$$CBV?$basic_string@DU?$char_traits@D@std@@V?$allocator@D@2@@std@@PAVCGraphicImageInstance@@@std@@PAX@0@ABQAU10@@Z 0043cec0 f i EterLib:SkyBox.obj
 0001:0003bec0       ??$_Construct_in_place@PAU?$_Tree_node@U?$pair@$$CBKK@std@@PAX@std@@AAPAU12@@std@@YAXAAPAU?$_Tree_node@U?$pair@$$CBKK@std@@PAX@0@0@Z 0043cec0 f i InstanceBaseEffect.obj
 0001:0003bec0       ??$_Construct_in_place@PAU?$_Tree_node@U?$pair@$$CBKPAVCItemData@@@std@@PAX@std@@ABQAU12@@std@@YAXAAPAU?$_Tree_node@U?$pair@$$CBKPAVCItemData@@@std@@PAX@0@ABQAU10@@Z 0043cec0 f i GameLib:ItemManager.obj
 0001:0003bec0       ??$_Construct_in_place@PAU?$_List_node@UtagRECT@@PAX@std@@ABQAU12@@std@@YAXAAPAU?$_List_node@UtagRECT@@PAX@0@ABQAU10@@Z 0043cec0 f i GameLib:MapOutdoor.obj
 0001:0003bec0       ??$_Construct_in_place@PAU?$_Tree_node@U?$pair@$$CBKK@std@@PAX@std@@ABQAU12@@std@@YAXAAPAU?$_Tree_node@U?$pair@$$CBKK@std@@PAX@0@ABQAU10@@Z 0043cec0 f i InstanceBase.obj
 0001:0003bec0       ??$_Construct_in_place@PAU?$_Tree_node@U?$pair@$$CBKPAVCEffectInstance@@@std@@PAX@std@@AAPAU12@@std@@YAXAAPAU?$_Tree_node@U?$pair@$$CBKPAVCEffectInstance@@@std@@PAX@0@0@Z 0043cec0 f i EffectLib:EffectManager.obj
 0001:0003bec0       ??$_Construct_in_place@PAU?$_Tree_node@U?$pair@$$CBKPAVCProperty@@@std@@PAX@std@@AAPAU12@@std@@YAXAAPAU?$_Tree_node@U?$pair@$$CBKPAVCProperty@@@std@@PAX@0@0@Z 0043cec0 f i GameLib:PropertyManager.obj
 0001:0003bec0       ??$_Construct_in_place@PAU?$_Tree_node@U?$pair@$$CBIV?$basic_string@DU?$char_traits@D@std@@V?$allocator@D@2@@std@@@std@@PAX@std@@ABQAU12@@std@@YAXAAPAU?$_Tree_node@U?$pair@$$CBIV?$basic_string@DU?$char_traits@D@std@@V?$allocator@D@2@@std@@@std@@PAX@0@ABQAU10@@Z 0043cec0 f i EterLib:GrpDevice.obj
 0001:0003bec0       ??$_Construct_in_place@PAU?$_List_node@UTAttachingEffect@CActorInstance@@PAX@std@@ABQAU12@@std@@YAXAAPAU?$_List_node@UTAttachingEffect@CActorInstance@@PAX@0@ABQAU10@@Z 0043cec0 f i GameLib:ActorInstanceAttach.obj
 0001:0003bec0       ??$_Construct_in_place@PAU?$_List_node@USArgumet@script@@PAX@std@@ABQAU12@@std@@YAXAAPAU?$_List_node@USArgumet@script@@PAX@0@ABQAU10@@Z 0043cec0 f i EterLib:parser.obj
 0001:0003bec0       ??$_Construct_in_place@PAU?$_Tree_node@U?$pair@$$CBKUSComboAttackData@CRaceData@@@std@@PAX@std@@AAPAU12@@std@@YAXAAPAU?$_Tree_node@U?$pair@$$CBKUSComboAttackData@CRaceData@@@std@@PAX@0@0@Z 0043cec0 f i GameLib:RaceData.obj
 0001:0003bec0       ??$_Construct_in_place@PAU?$_Tree_node@U?$pair@$$CBV?$basic_string@DU?$char_traits@D@std@@V?$allocator@D@2@@std@@V?$vector@V?$basic_string@DU?$char_traits@D@std@@V?$allocator@D@2@@std@@V?$allocator@V?$basic_string@DU?$char_traits@D@std@@V?$allocator@D@2@@std@@@2@@2@@std@@PAX@std@@ABQAU12@@std@@YAXAAPAU?$_Tree_node@U?$pair@$$CBV?$basic_string@DU?$char_traits@D@std@@V?$allocator@D@2@@std@@V?$vector@V?$basic_string@DU?$char_traits@D@std@@V?$allocator@D@2@@std@@V?$allocator@V?$basic_string@DU?$char_traits@D@std@@V?$allocator@D@2@@std@@@2@@2@@std@@PAX@0@ABQAU10@@Z 0043cec0 f i PythonMiniMap.obj
 0001:0003bec0       ??$_Construct_in_place@PAU?$_List_node@USSlot@CSlotWindow@UI@@PAX@std@@ABQAU12@@std@@YAXAAPAU?$_List_node@USSlot@CSlotWindow@UI@@PAX@0@ABQAU10@@Z 0043cec0 f i EterPythonLib:PythonSlotWindow.obj
 0001:0003bec0       ??$_Construct_in_place@PAU?$_Tree_node@U?$pair@$$CBV?$basic_string@DU?$char_traits@D@std@@V?$allocator@D@2@@std@@PAVCGraphicImageInstance@@@std@@PAX@std@@AAPAU12@@std@@YAXAAPAU?$_Tree_node@U?$pair@$$CBV?$basic_string@DU?$char_traits@D@std@@V?$allocator@D@2@@std@@PAVCGraphicImageInstance@@@std@@PAX@0@0@Z 0043cec0 f i EterLib:SkyBox.obj
 0001:0003bec0       ??$_Construct_in_place@PAU?$_Tree_node@KPAX@std@@AAPAU12@@std@@YAXAAPAU?$_Tree_node@KPAX@0@0@Z 0043cec0 f i InstanceBaseEffect.obj
 0001:0003bec0       ??$_Construct_in_place@PAU?$_List_node@V?$basic_string@DU?$char_traits@D@std@@V?$allocator@D@2@@std@@PAX@std@@ABQAU12@@std@@YAXAAPAU?$_List_node@V?$basic_string@DU?$char_traits@D@std@@V?$allocator@D@2@@std@@PAX@0@ABQAU10@@Z 0043cec0 f i InsultChecker.obj
 0001:0003bec0       ??$_Construct_in_place@PAU?$_List_node@USCollisionPointInstance@CActorInstance@@PAX@std@@ABQAU12@@std@@YAXAAPAU?$_List_node@USCollisionPointInstance@CActorInstance@@PAX@0@ABQAU10@@Z 0043cec0 f i GameLib:ActorInstanceAttach.obj
 0001:0003bec0       ??$_Construct_in_place@PAU?$_List_node@KPAX@std@@ABQAU12@@std@@YAXAAPAU?$_List_node@KPAX@0@ABQAU10@@Z 0043cec0 f i EterPythonLib:PythonSlotWindow.obj
 0001:0003bec0       ??$_Construct_in_place@PAU?$_Tree_node@U?$pair@$$CBKUSShape@CRaceData@@@std@@PAX@std@@ABQAU12@@std@@YAXAAPAU?$_Tree_node@U?$pair@$$CBKUSShape@CRaceData@@@std@@PAX@0@ABQAU10@@Z 0043cec0 f i GameLib:RaceData.obj
 0001:0003bec0       ??$_Construct_in_place@PAU?$_Tree_node@U?$pair@$$CBKPAVCItemData@@@std@@PAX@std@@AAPAU12@@std@@YAXAAPAU?$_Tree_node@U?$pair@$$CBKPAVCItemData@@@std@@PAX@0@0@Z 0043cec0 f i GameLib:ItemManager.obj
 0001:0003bec0       ??$_Construct_in_place@PAU?$_Tree_node@U?$pair@$$CBKUSModelData@CRaceData@@@std@@PAX@std@@ABQAU12@@std@@YAXAAPAU?$_Tree_node@U?$pair@$$CBKUSModelData@CRaceData@@@std@@PAX@0@ABQAU10@@Z 0043cec0 f i GameLib:RaceData.obj
 0001:0003bec0       ??$_Construct_in_place@PAU?$_Tree_node@U?$pair@$$CBV?$basic_string@DU?$char_traits@D@std@@V?$allocator@D@2@@std@@V12@@std@@PAX@std@@AAPAU12@@std@@YAXAAPAU?$_Tree_node@U?$pair@$$CBV?$basic_string@DU?$char_traits@D@std@@V?$allocator@D@2@@std@@V12@@std@@PAX@0@0@Z 0043cec0 f i PythonSkill.obj
 0001:0003bec0       ??$_Construct_in_place@PAU?$_Tree_node@U?$pair@$$CBEPAVCCamera@@@std@@PAX@std@@AAPAU12@@std@@YAXAAPAU?$_Tree_node@U?$pair@$$CBEPAVCCamera@@@std@@PAX@0@0@Z 0043cec0 f i EterLib:Camera.obj
 0001:0003bec0       ??$_Construct_in_place@PAU?$_Tree_node@U?$pair@$$CBGV?$vector@USMotion@CRaceData@@V?$allocator@USMotion@CRaceData@@@std@@@std@@@std@@PAX@std@@ABQAU12@@std@@YAXAAPAU?$_Tree_node@U?$pair@$$CBGV?$vector@USMotion@CRaceData@@V?$allocator@USMotion@CRaceData@@@std@@@std@@@std@@PAX@0@ABQAU10@@Z 0043cec0 f i GameLib:RaceData.obj
 0001:0003bec0       ??$_Construct_in_place@PAU?$_Tree_node@U?$pair@$$CBKPAVCLight@@@std@@PAX@std@@ABQAU12@@std@@YAXAAPAU?$_Tree_node@U?$pair@$$CBKPAVCLight@@@std@@PAX@0@ABQAU10@@Z 0043cec0 f i EterLib:GrpLightManager.obj
 0001:0003bec0       ??$_Construct_in_place@PAU?$_Tree_node@U?$pair@$$CBKPAUSEnvironmentData@@@std@@PAX@std@@AAPAU12@@std@@YAXAAPAU?$_Tree_node@U?$pair@$$CBKPAUSEnvironmentData@@@std@@PAX@0@0@Z 0043cec0 f i GameLib:MapManager.obj
 0001:0003bec0       ??$_Construct_in_place@PAU?$_List_node@PAUSSlot@CSlotWindow@UI@@PAX@std@@AAPAU12@@std@@YAXAAPAU?$_List_node@PAUSSlot@CSlotWindow@UI@@PAX@0@0@Z 0043cec0 f i EterPythonLib:PythonGridSlotWindow.obj
 0001:0003bec0       ??$_Construct_in_place@PAU?$_Tree_node@U?$pair@$$CBKPAVCLight@@@std@@PAX@std@@AAPAU12@@std@@YAXAAPAU?$_Tree_node@U?$pair@$$CBKPAVCLight@@@std@@PAX@0@0@Z 0043cec0 f i EterLib:GrpLightManager.obj
 0001:0003bec0       ??$_Construct_in_place@PAU?$_Tree_node@U?$pair@$$CBKUSIndexFlyData@CFlyingManager@@@std@@PAX@std@@AAPAU12@@std@@YAXAAPAU?$_Tree_node@U?$pair@$$CBKUSIndexFlyData@CFlyingManager@@@std@@PAX@0@0@Z 0043cec0 f i GameLib:FlyingObjectManager.obj
 0001:0003bec0       ??$_Construct_in_place@PAU?$_Tree_node@U?$pair@$$CBGPAUHFONT__@@@std@@PAX@std@@AAPAU12@@std@@YAXAAPAU?$_Tree_node@U?$pair@$$CBGPAUHFONT__@@@std@@PAX@0@0@Z 0043cec0 f i EterLib:GrpFontTexture.obj
 0001:0003bec0       ??$_Construct_in_place@PAU?$_Tree_node@U?$pair@$$CBHP6APAVCResource@@PBD@Z@std@@PAX@std@@ABQAU12@@std@@YAXAAPAU?$_Tree_node@U?$pair@$$CBHP6APAVCResource@@PBD@Z@std@@PAX@0@ABQAU10@@Z 0043cec0 f i EterLib:ResourceManager.obj
 0001:0003bec0       ??$_Construct_in_place@PAU?$_Tree_node@U?$pair@$$CBKV?$basic_string@DU?$char_traits@D@std@@V?$allocator@D@2@@std@@@std@@PAX@std@@ABQAU12@@std@@YAXAAPAU?$_Tree_node@U?$pair@$$CBKV?$basic_string@DU?$char_traits@D@std@@V?$allocator@D@2@@std@@@std@@PAX@0@ABQAU10@@Z 0043cec0 f i PythonGuild.obj
 0001:0003bec0       ??$_Construct_in_place@PAU?$_Tree_node@U?$pair@$$CBU?$pair@G_W@std@@USCharacterInfomation@CGraphicFontTexture@@@std@@PAX@std@@ABQAU12@@std@@YAXAAPAU?$_Tree_node@U?$pair@$$CBU?$pair@G_W@std@@USCharacterInfomation@CGraphicFontTexture@@@std@@PAX@0@ABQAU10@@Z 0043cec0 f i EterLib:GrpFontTexture.obj
 0001:0003bec0       ??$_Construct_in_place@PAU?$_Tree_node@U?$pair@QBUSHitData@NRaceData@@V?$map@PAVCActorInstance@@MU?$less@PAVCActorInstance@@@std@@V?$allocator@U?$pair@QAVCActorInstance@@M@std@@@3@@std@@@std@@PAX@std@@AAPAU12@@std@@YAXAAPAU?$_Tree_node@U?$pair@QBUSHitData@NRaceData@@V?$map@PAVCActorInstance@@MU?$less@PAVCActorInstance@@@std@@V?$allocator@U?$pair@QAVCActorInstance@@M@std@@@3@@std@@@std@@PAX@0@0@Z 0043cec0 f i GameLib:ActorInstanceCollisionDetection.obj
 0001:0003bec0       ??$_Construct_in_place@PAU?$_Tree_node@U?$pair@$$CBMUCDynamicSphereInstance@@@std@@PAX@std@@AAPAU12@@std@@YAXAAPAU?$_Tree_node@U?$pair@$$CBMUCDynamicSphereInstance@@@std@@PAX@0@0@Z 0043cec0 f i GameLib:GameType.obj
 0001:0003bec0       ??$_Construct_in_place@PAU?$_Tree_node@U?$pair@$$CBV?$basic_string@DU?$char_traits@D@std@@V?$allocator@D@2@@std@@K@std@@PAX@std@@AAPAU12@@std@@YAXAAPAU?$_Tree_node@U?$pair@$$CBV?$basic_string@DU?$char_traits@D@std@@V?$allocator@D@2@@std@@K@std@@PAX@0@0@Z 0043cec0 f i PythonSkill.obj
 0001:0003bec0       ??$_Construct_in_place@PAU?$_List_node@KPAX@std@@AAPAU12@@std@@YAXAAPAU?$_List_node@KPAX@0@0@Z 0043cec0 f i EterPythonLib:PythonSlotWindow.obj
 0001:0003bec0       ??$_Construct_in_place@PAU?$_Tree_node@U?$pair@$$CBKV?$vector@V?$basic_string@DU?$char_traits@D@std@@V?$allocator@D@2@@std@@V?$allocator@V?$basic_string@DU?$char_traits@D@std@@V?$allocator@D@2@@std@@@2@@std@@@std@@PAX@std@@AAPAU12@@std@@YAXAAPAU?$_Tree_node@U?$pair@$$CBKV?$vector@V?$basic_string@DU?$char_traits@D@std@@V?$allocator@D@2@@std@@V?$allocator@V?$basic_string@DU?$char_traits@D@std@@V?$allocator@D@2@@std@@@2@@std@@@std@@PAX@0@0@Z 0043cec0 f i EterLib:TextFileLoader.obj
 0001:0003bec0       ??$_Construct_in_place@PAU?$_Tree_node@U?$pair@$$CBGPAUHFONT__@@@std@@PAX@std@@ABQAU12@@std@@YAXAAPAU?$_Tree_node@U?$pair@$$CBGPAUHFONT__@@@std@@PAX@0@ABQAU10@@Z 0043cec0 f i EterLib:GrpFontTexture.obj
 0001:0003bec0       ??$_Construct_in_place@PAU?$_List_node@USCmd@script@@PAX@std@@ABQAU12@@std@@YAXAAPAU?$_List_node@USCmd@script@@PAX@0@ABQAU10@@Z 0043cec0 f i EterLib:parser.obj
 0001:0003bec0       ??$_Construct_in_place@PAU?$_Tree_node@U?$pair@$$CBHPAE@std@@PAX@std@@AAPAU12@@std@@YAXAAPAU?$_Tree_node@U?$pair@$$CBHPAE@std@@PAX@0@0@Z 0043cec0 f i GameLib:MapOutdoor.obj
 0001:0003bec0       ??$_Construct_in_place@PAU?$_Tree_node@U?$pair@$$CBV?$basic_string@DU?$char_traits@D@std@@V?$allocator@D@2@@std@@USOutdoorMapCoordinate@@@std@@PAX@std@@ABQAU12@@std@@YAXAAPAU?$_Tree_node@U?$pair@$$CBV?$basic_string@DU?$char_traits@D@std@@V?$allocator@D@2@@std@@USOutdoorMapCoordinate@@@std@@PAX@0@ABQAU10@@Z 0043cec0 f i GameLib:MapOutdoor.obj
 0001:0003bec0       ??$_Construct_in_place@PAU?$_Tree_node@PAVCFlyTarget@@PAX@std@@ABQAU12@@std@@YAXAAPAU?$_Tree_node@PAVCFlyTarget@@PAX@0@ABQAU10@@Z 0043cec0 f i GameLib:ActorInstance.obj
 0001:0003bec0       ??$_Construct_in_place@PAU?$_Tree_node@U?$pair@QAVCActorInstance@@M@std@@PAX@std@@ABQAU12@@std@@YAXAAPAU?$_Tree_node@U?$pair@QAVCActorInstance@@M@std@@PAX@0@ABQAU10@@Z 0043cec0 f i GameLib:ActorInstance.obj
 0001:0003bec0       ??$_Construct_in_place@PAU?$_List_node@PAVCParticleInstance@@PAX@std@@PAU12@@std@@YAXAAPAU?$_List_node@PAVCParticleInstance@@PAX@0@$$QAPAU10@@Z 0043cec0 f i EffectLib:ParticleSystemInstance.obj
 0001:0003bec0       ??$_Construct_in_place@PAU?$_Tree_node@U?$pair@$$CBKPAVCSpeedTreeWrapper@@@std@@PAX@std@@AAPAU12@@std@@YAXAAPAU?$_Tree_node@U?$pair@$$CBKPAVCSpeedTreeWrapper@@@std@@PAX@0@0@Z 0043cec0 f i SpeedTreeLib:SpeedTreeForest.obj
 0001:0003bec0       ??$_Construct_in_place@PAU?$_Tree_node@U?$pair@$$CBKUSHair@CRaceData@@@std@@PAX@std@@AAPAU12@@std@@YAXAAPAU?$_Tree_node@U?$pair@$$CBKUSHair@CRaceData@@@std@@PAX@0@0@Z 0043cec0 f i GameLib:RaceData.obj
 0001:0003bec0       ??$_Construct_in_place@PAU?$_Tree_node@U?$pair@$$CBKPAVCRaceData@@@std@@PAX@std@@ABQAU12@@std@@YAXAAPAU?$_Tree_node@U?$pair@$$CBKPAVCRaceData@@@std@@PAX@0@ABQAU10@@Z 0043cec0 f i GameLib:RaceManager.obj
 0001:0003bec0       ??$_Construct_in_place@PAU?$_List_node@USArgumet@script@@PAX@std@@AAPAU12@@std@@YAXAAPAU?$_List_node@USArgumet@script@@PAX@0@0@Z 0043cec0 f i PythonEventManager.obj
 0001:0003bec0       ??$_Construct_in_place@PADABQAD@std@@YAXAAPADABQAD@Z 0043cec0 f i AccountConnector.obj
 0001:0003bec0       ??$_Construct_in_place@PAU?$_Tree_node@HPAX@std@@ABQAU12@@std@@YAXAAPAU?$_Tree_node@HPAX@0@ABQAU10@@Z 0043cec0 f i PythonBackground.obj
 0001:0003bec0       ??$_Construct_in_place@PAU?$_Tree_node@U?$pair@$$CBV?$basic_string@DU?$char_traits@D@std@@V?$allocator@D@2@@std@@M@std@@PAX@std@@ABQAU12@@std@@YAXAAPAU?$_Tree_node@U?$pair@$$CBV?$basic_string@DU?$char_traits@D@std@@V?$allocator@D@2@@std@@M@std@@PAX@0@ABQAU10@@Z 0043cec0 f i MilesLib:SoundManager.obj
 0001:0003bec0       ??$_Construct_in_place@PAU?$_Tree_node@U?$pair@$$CBKPAVCFlyingData@@@std@@PAX@std@@AAPAU12@@std@@YAXAAPAU?$_Tree_node@U?$pair@$$CBKPAVCFlyingData@@@std@@PAX@0@0@Z 0043cec0 f i GameLib:FlyingObjectManager.obj
 0001:0003bec0       ??$_Construct_in_place@PAU?$_List_node@PAVCEterPack@@PAX@std@@AAPAU12@@std@@YAXAAPAU?$_List_node@PAVCEterPack@@PAX@0@0@Z 0043cec0 f i EterPack:EterPackManager.obj
 0001:0003bec0       ??$_Construct_in_place@PAU?$_Tree_node@U?$pair@$$CBJPAVCResource@@@std@@PAX@std@@ABQAU12@@std@@YAXAAPAU?$_Tree_node@U?$pair@$$CBJPAVCResource@@@std@@PAX@0@ABQAU10@@Z 0043cec0 f i EterLib:ResourceManager.obj
 0001:0003bec0       ??$_Construct_in_place@PAU?$_List_node@PAVCWindow@UI@@PAX@std@@ABQAU12@@std@@YAXAAPAU?$_List_node@PAVCWindow@UI@@PAX@0@ABQAU10@@Z 0043cec0 f i EterPythonLib:PythonWindowManager.obj
 0001:0003bec0       ??$_Construct_in_place@PAU?$_Tree_node@U?$pair@$$CBKPAVCSpeedTreeWrapper@@@std@@PAX@std@@ABQAU12@@std@@YAXAAPAU?$_Tree_node@U?$pair@$$CBKPAVCSpeedTreeWrapper@@@std@@PAX@0@ABQAU10@@Z 0043cec0 f i SpeedTreeLib:SpeedTreeForest.obj
 0001:0003bec0       ??$_Construct_in_place@PAU?$_Tree_node@U?$pair@$$CBKPAVCTextFileLoader@@@std@@PAX@std@@AAPAU12@@std@@YAXAAPAU?$_Tree_node@U?$pair@$$CBKPAVCTextFileLoader@@@std@@PAX@0@0@Z 0043cec0 f i EterLib:TextFileLoader.obj
 0001:0003bed0       ?assign@?$basic_string@DU?$char_traits@D@std@@V?$allocator@D@2@@std@@QAEAAV12@QBDI@Z 0043ced0 f i AccountConnector.obj
 0001:0003bfc0       ??4?$basic_string@DU?$char_traits@D@std@@V?$allocator@D@2@@std@@QAEAAV01@QBD@Z 0043cfc0 f i AccountConnector.obj
 0001:0003bfc0       ?assign@?$basic_string@DU?$char_traits@D@std@@V?$allocator@D@2@@std@@QAEAAV12@QBD@Z 0043cfc0 f i AccountConnector.obj
 0001:0003bff0       ?what@exception@std@@UBEPBDXZ 0043cff0 f i AccountConnector.obj
 0001:0003c000       ??$_Destroy_in_place@PAU?$_Tree_node@U?$pair@$$CBHV?$basic_string@DU?$char_traits@D@std@@V?$allocator@D@2@@std@@@std@@PAX@std@@@std@@YAXAAPAU?$_Tree_node@U?$pair@$$CBHV?$basic_string@DU?$char_traits@D@std@@V?$allocator@D@2@@std@@@std@@PAX@0@@Z 0043d000 f i InstanceBaseEffect.obj
 0001:0003c000       ?OnDisconnect@CPythonNetworkStream@@MAEXXZ 0043d000 f i PythonNetworkStreamEvent.obj
 0001:0003c000       ?OnUpdate@CGraphicObjectInstance@@UAEXXZ 0043d000 f i EterLib:GrpObjectInstance.obj
 0001:0003c000       __initialize_denormal_control 0043d000 f i LIBCMT:denormal_control.obj
 0001:0003c000       ?OnRenderPCBlocker@CDungeonBlock@@UAEXXZ 0043d000 f i GameLib:DungeonBlock.obj
 0001:0003c000       ??$_Destroy_in_place@PAD@std@@YAXAAPAD@Z 0043d000 f i AccountConnector.obj
 0001:0003c000       ?DestroyDeviceObjects@CGraphicFontTexture@@QAEXXZ 0043d000 f i EterLib:GrpFontTexture.obj
 0001:0003c000       ?OnExplodingAtBackground@IFlyEventHandler@@UAEXXZ 0043d000 f i PythonPlayerEventHandler.obj
 0001:0003c000       ?OnUpdate@CExpandedImageBox@UI@@MAEXXZ 0043d000 f i EterPythonLib:PythonWindow.obj
 0001:0003c000       ?OnChangePosition@CWindow@UI@@UAEXXZ 0043d000 f i EterPythonLib:PythonWindowManager.obj
 0001:0003c000       ??1D3D_CDeviceInfo@@QAE@XZ 0043d000 f i EterLib:GrpDetector.obj
 0001:0003c000       ?OnSetFlyTarget@IFlyEventHandler@@UAEXXZ 0043d000 f i PythonPlayerEventHandler.obj
 0001:0003c000       ??$_Destroy_in_place@PAU?$_Tree_node@U?$pair@$$CBKK@std@@PAX@std@@@std@@YAXAAPAU?$_Tree_node@U?$pair@$$CBKK@std@@PAX@0@@Z 0043d000 f i InstanceBase.obj
 0001:0003c000       __initialize_invalid_parameter_handler 0043d000 f i LIBCMT:invalid_parameter_handler.obj
 0001:0003c000       ?OnRender@CLightInstance@@MAEXXZ 0043d000 f i EffectLib:SimpleLightInstance.obj
 0001:0003c000       ??1CSnowParticle@@QAE@XZ   0043d000 f i GameLib:SnowParticle.obj
 0001:0003c000       ?OnNoArrow@IFlyEventHandler@@UAEXXZ 0043d000 f i PythonPlayerEventHandler.obj
 0001:0003c000       ?StartTransition@CSkyObject@@UAEXXZ 0043d000 f i EterLib:SkyBox.obj
 0001:0003c000       ?OnCreate@CDibBar@@MAEXXZ  0043d000 f i EterLib:DibBar.obj
 0001:0003c000       ?OnRenderToShadowMap@CEffectInstance@@UAEXXZ 0043d000 f i EffectLib:EffectInstance.obj
 0001:0003c000       ?OnDisconnect@CNetworkStream@@MAEXXZ 0043d000 f i EterLib:NetStream.obj
 0001:0003c000       ?OnRenderToShadowMap@CSpeedTreeWrapper@@UAEXXZ 0043d000 f i SpeedTreeLib:SpeedTreeWrapper.obj
 0001:0003c000       ?OnExplodingOutOfRange@IFlyEventHandler@@UAEXXZ 0043d000 f i PythonPlayerEventHandler.obj
 0001:0003c000       ?OnClear@CGraphicObjectInstance@@UAEXXZ 0043d000 f i EffectLib:EffectInstance.obj
 0001:0003c000       ?OnBlendRender@CSpeedTreeWrapper@@UAEXXZ 0043d000 f i SpeedTreeLib:SpeedTreeWrapper.obj
 0001:0003c000       ?OnNoTarget@CNormalBowAttack_FlyEventHandler_AutoClear@CPythonPlayerEventHandler@@UAEXXZ 0043d000 f i PythonPlayerEventHandler.obj
 0001:0003c000       ?RebuildTriGroupNodeList@CGrannyMesh@@QAEXXZ 0043d000 f i EterGrnLib:Mesh.obj
 0001:0003c000       ?OnUpdate@CImageBox@UI@@MAEXXZ 0043d000 f i EterPythonLib:PythonWindow.obj
 0001:0003c000       ?Send@CPythonExceptionSender@@UAEXXZ 0043d000 f i PythonExceptionSender.obj
 0001:0003c000       ??$_Destroy_in_place@PAU?$_List_node@V?$basic_string@DU?$char_traits@D@std@@V?$allocator@D@2@@std@@PAX@std@@@std@@YAXAAPAU?$_List_node@V?$basic_string@DU?$char_traits@D@std@@V?$allocator@D@2@@std@@PAX@0@@Z 0043d000 f i InsultChecker.obj
 0001:0003c000       ?OnBlendRender@CDungeonBlock@@UAEXXZ 0043d000 f i GameLib:DungeonBlock.obj
 0001:0003c000       ?OnRenderShadow@CSpeedTreeWrapper@@UAEXXZ 0043d000 f i SpeedTreeLib:SpeedTreeWrapper.obj
 0001:0003c000       ?OnUpdate@CMarkBox@UI@@MAEXXZ 0043d000 f i EterPythonLib:PythonWindow.obj
 0001:0003c000       ?OnSetImagePointer@CGraphicMarkInstance@@MAEXXZ 0043d000 f i EterLib:GrpMarkInstance.obj
 0001:0003c000       ?__LeaveLoginPhase@CPythonNetworkStream@@IAEXXZ 0043d000 f i PythonNetworkStreamPhaseLogin.obj
 0001:0003c000       ?OnRenderToShadowMap@CDungeonBlock@@UAEXXZ 0043d000 f i GameLib:DungeonBlock.obj
 0001:0003c000       ?OnInitialize@CEffectMeshInstance@@MAEXXZ 0043d000 f i EffectLib:EffectMeshInstance.obj
 0001:0003c000       ?__LeaveOfflinePhase@CPythonNetworkStream@@IAEXXZ 0043d000 f i PythonNetworkStream.obj
 0001:0003c000       ?OnDeform@CGraphicObjectInstance@@UAEXXZ 0043d000 f i EffectLib:EffectInstance.obj
 0001:0003c000       ?OnExplodingOutOfRange@CNormalBowAttack_FlyEventHandler_AutoClear@CPythonPlayerEventHandler@@UAEXXZ 0043d000 f i PythonPlayerEventHandler.obj
 0001:0003c000       ?__global_delete@@YAXPAXI@Z 0043d000 f i * CIL library *:* CIL module *
 0001:0003c000       ?_Unlock@?$basic_streambuf@_WU?$char_traits@_W@std@@@std@@UAEXXZ 0043d000 f i EterPack:EterPack.obj
 0001:0003c000       ?OnRenderShadow@CEffectInstance@@UAEXXZ 0043d000 f i EffectLib:EffectInstance.obj
 0001:0003c000       ?OnRenderPCBlocker@CEffectInstance@@UAEXXZ 0043d000 f i EffectLib:EffectInstance.obj
 0001:0003c000       ?OnRefreshSlot@CSlotWindow@UI@@MAEXXZ 0043d000 f i EterPythonLib:PythonSlotWindow.obj
 0001:0003c000       ?OnExplodingAtBackground@CNormalBowAttack_FlyEventHandler_AutoClear@CPythonPlayerEventHandler@@UAEXXZ 0043d000 f i PythonPlayerEventHandler.obj
 0001:0003c000       ?OnRender@CCoverButton@CSlotWindow@UI@@UAEXXZ 0043d000 f i EterPythonLib:PythonSlotWindow.obj
 0001:0003c000       @_guard_check_icall_nop@4  0043d000 f i LIBCMT:guard_support.obj
 0001:0003c000       ?OnRemoteDisconnect@CNetworkStream@@MAEXXZ 0043d000 f i EterLib:NetStream.obj
 0001:0003c000       ?OnUpdate@CPythonPlayerEventHandler@@UAEXXZ 0043d000 f i PythonPlayerEventHandler.obj
 0001:0003c000       ?DestroyDeviceObjects@CResource@@UAEXXZ 0043d000 f i EterLib:Resource.obj
 0001:0003c000       ?Destroy@CPythonGraphic@@QAEXXZ 0043d000 f i EterPythonLib:PythonGraphic.obj
 0001:0003c000       ??$_Destroy_in_place@PAU?$_Tree_node@KPAX@std@@@std@@YAXAAPAU?$_Tree_node@KPAX@0@@Z 0043d000 f i InstanceBaseEffect.obj
 0001:0003c000       ??$_Destroy_in_place@PAU?$_Tree_node@U?$pair@$$CBV?$basic_string@DU?$char_traits@D@std@@V?$allocator@D@2@@std@@H@std@@PAX@std@@@std@@YAXAAPAU?$_Tree_node@U?$pair@$$CBV?$basic_string@DU?$char_traits@D@std@@V?$allocator@D@2@@std@@H@std@@PAX@0@@Z 0043d000 f i PythonEventManager.obj
 0001:0003c000       ??1CNetworkAddress@@QAE@XZ 0043d000 f i EterLib:NetAddress.obj
 0001:0003c000       ?OnMouseOver@CWindow@UI@@UAEXXZ 0043d000 f i EterPythonLib:PythonWindow.obj
 0001:0003c000       ?OnRender@CDungeonBlock@@UAEXXZ 0043d000 f i GameLib:DungeonBlock.obj
 0001:0003c000       ?LocaleService_SetCHEONMA@@YAX_N@Z 0043d000 f i Locale.obj
 0001:0003c000       ??$_Destroy_in_place@PAU?$_Tree_node@U?$pair@$$CBKV?$basic_string@DU?$char_traits@D@std@@V?$allocator@D@2@@std@@@std@@PAX@std@@@std@@YAXAAPAU?$_Tree_node@U?$pair@$$CBKV?$basic_string@DU?$char_traits@D@std@@V?$allocator@D@2@@std@@@std@@PAX@0@@Z 0043d000 f i PythonGuild.obj
 0001:0003c000       ?_Lock@?$basic_streambuf@_WU?$char_traits@_W@std@@@std@@UAEXXZ 0043d000 f i EterPack:EterPack.obj
 0001:0003c000       ?__LeaveSelectPhase@CPythonNetworkStream@@IAEXXZ 0043d000 f i PythonNetworkStreamPhaseSelect.obj
 0001:0003c000       ?OnNoTarget@IFlyEventHandler@@UAEXXZ 0043d000 f i PythonPlayerEventHandler.obj
 0001:0003c000       ?OnBlendRender@CEffectInstance@@UAEXXZ 0043d000 f i EffectLib:EffectInstance.obj
 0001:0003c000       ?DestroySystem@CActorInstance@@SAXXZ 0043d000 f i GameLib:ActorInstance.obj
 0001:0003c000       ??1CAffectFlagContainer@@QAE@XZ 0043d000 f i AffectFlagContainer.obj
 0001:0003c000       ??$_Destroy_in_place@PAU?$_Tree_node@U?$pair@$$CBV?$basic_string@DU?$char_traits@D@std@@V?$allocator@D@2@@std@@K@std@@PAX@std@@@std@@YAXAAPAU?$_Tree_node@U?$pair@$$CBV?$basic_string@DU?$char_traits@D@std@@V?$allocator@D@2@@std@@K@std@@PAX@0@@Z 0043d000 f i PythonSkill.obj
 0001:0003c000       ?OnSetImagePointer@CGraphicImageInstance@@MAEXXZ 0043d000 f i EterLib:GrpImageInstance.obj
 0001:0003c000       ?OnEscape@CPythonIME@@MAEXXZ 0043d000 f i PythonIME.obj
 0001:0003c000       ??$_Destroy_in_place@PA_W@std@@YAXAAPA_W@Z 0043d000 f i EterLib:GrpTextInstance.obj
 0001:0003c000       ?__LeaveHandshakePhase@CPythonNetworkStream@@IAEXXZ 0043d000 f i PythonNetworkStreamPhaseHandShake.obj
 0001:0003c000       ?__LeaveLoadingPhase@CPythonNetworkStream@@IAEXXZ 0043d000 f i PythonNetworkStreamPhaseLoading.obj
 0001:0003c000       ?Update@CGameEventManager@@QAEXXZ 0043d000 f i GameLib:GameEventManager.obj
 0001:0003c000       ??1BlurVertex@@QAE@XZ      0043d000 f i GameLib:SnowEnvironment.obj
 0001:0003c000       ?OnPreAssignTerrainPtr@CMapOutdoor@@MAEXXZ 0043d000 f i GameLib:MapOutdoor.obj
 0001:0003c000       ?OnUpdate@CButton@UI@@MAEXXZ 0043d000 f i EterPythonLib:PythonWindow.obj
 0001:0003c000       ?__empty_global_delete@@YAXPAXI@Z 0043d000 f i GuildMarkDownloader.obj
 0001:0003c010       ??$_Deallocate@$07$0A@@std@@YAXPAXI@Z 0043d010 f i AccountConnector.obj
 0001:0003c050       ??1?$basic_string@DU?$char_traits@D@std@@V?$allocator@D@2@@std@@QAE@XZ 0043d050 f i AccountConnector.obj
 0001:0003c050       ??1SNetworkActorData@@QAE@XZ 0043d050 f i NetworkActorManager.obj
 0001:0003c050       ??1?$pair@V?$basic_string@DU?$char_traits@D@std@@V?$allocator@D@2@@std@@W4EPointTypes@@@std@@QAE@XZ 0043d050 f i PythonSkill.obj
 0001:0003c050       ??1?$pair@$$CBV?$basic_string@DU?$char_traits@D@std@@V?$allocator@D@2@@std@@K@std@@QAE@XZ 0043d050 f i PythonSkill.obj
 0001:0003c050       ??1?$pair@$$CBV?$basic_string@DU?$char_traits@D@std@@V?$allocator@D@2@@std@@M@std@@QAE@XZ 0043d050 f i MilesLib:SoundManager.obj
 0001:0003c050       ??1?$pair@$$CBV?$basic_string@DU?$char_traits@D@std@@V?$allocator@D@2@@std@@PAVCGraphicImageInstance@@@std@@QAE@XZ 0043d050 f i EterLib:SkyBox.obj
 0001:0003c050       ??1TMapInfo@CMapManager@@QAE@XZ 0043d050 f i GameLib:MapManager.obj
 0001:0003c050       ??1?$pair@V?$basic_string@DU?$char_traits@D@std@@V?$allocator@D@2@@std@@W4EWeaponSubTypes@CItemData@@@std@@QAE@XZ 0043d050 f i PythonSkill.obj
 0001:0003c050       ??1?$pair@$$CBV?$basic_string@DU?$char_traits@D@std@@V?$allocator@D@2@@std@@PAVCWhisper@@@std@@QAE@XZ 0043d050 f i PythonChat.obj
 0001:0003c050       ??1?$pair@$$CBV?$basic_string@DU?$char_traits@D@std@@V?$allocator@D@2@@std@@PAVCEterPack@@@std@@QAE@XZ 0043d050 f i EterPack:EterPackManager.obj
 0001:0003c050       ?_Tidy_deallocate@?$basic_string@DU?$char_traits@D@std@@V?$allocator@D@2@@std@@AAEXXZ 0043d050 f i AccountConnector.obj
 0001:0003c050       ??1SGradeData@CPythonSkill@@QAE@XZ 0043d050 f i PythonSkill.obj
 0001:0003c050       ??1?$pair@$$CBV?$basic_string@DU?$char_traits@D@std@@V?$allocator@D@2@@std@@PAVCWindow@UI@@@std@@QAE@XZ 0043d050 f i EterPythonLib:PythonWindowManager.obj
 0001:0003c080       ??0SGradeData@CPythonSkill@@QAE@XZ 0043d080 f i PythonSkill.obj
 0001:0003c080       ??0?$basic_string@DU?$char_traits@D@std@@V?$allocator@D@2@@std@@QAE@XZ 0043d080 f i AccountConnector.obj
 0001:0003c0a0       ??0CAffectFlagContainer@@QAE@XZ 0043d0a0 f   AffectFlagContainer.obj
 0001:0003c0b0       ?Clear@CAffectFlagContainer@@QAEXXZ 0043d0b0 f   AffectFlagContainer.obj
 0001:0003c0c0       ?CopyInstance@CAffectFlagContainer@@QAEXABV1@@Z 0043d0c0 f   AffectFlagContainer.obj
 0001:0003c0e0       ?CopyData@CAffectFlagContainer@@QAEXIIPBX@Z 0043d0e0 f   AffectFlagContainer.obj
 0001:0003c140       ?ConvertToPosition@CAffectFlagContainer@@QBEXPAI0@Z 0043d140 f   AffectFlagContainer.obj
 0001:0003c160       ?Set@CAffectFlagContainer@@QAEXI_N@Z 0043d160 f   AffectFlagContainer.obj
 0001:0003c1b0       ?IsSet@CAffectFlagContainer@@QBE_NI@Z 0043d1b0 f   AffectFlagContainer.obj
 0001:0003c1f0       ?ProcessTerrainCollision@CCamera@@AAEXXZ 0043d1f0 f   CameraProcedure.obj
 0001:0003c440       ?Update@CCamera@@QAEXXZ    0043d440 f   CameraProcedure.obj
 0001:0003c5e0       ??1?$vector@UTMarkPosition@CPythonMiniMap@@V?$allocator@UTMarkPosition@CPythonMiniMap@@@std@@@std@@QAE@XZ 0043d5e0 f i PythonMiniMap.obj
 0001:0003c5e0       ??1?$vector@VCStateID@@V?$allocator@VCStateID@@@std@@@std@@QAE@XZ 0043d5e0 f i EterLib:StateManager.obj
 0001:0003c5e0       ??1?$vector@UD3DXVECTOR3@@V?$allocator@UD3DXVECTOR3@@@std@@@std@@QAE@XZ 0043d5e0 f i CameraProcedure.obj
 0001:0003c5e0       ??1?$vector@UTAttachEffectInstance@CFlyingInstance@@V?$allocator@UTAttachEffectInstance@CFlyingInstance@@@std@@@std@@QAE@XZ 0043d5e0 f i GameLib:FlyingInstance.obj
 0001:0003c630       ?_Xlength@?$vector@PAVCEffectData@@V?$allocator@PAVCEffectData@@@std@@@std@@CAXXZ 0043d630 f i EffectLib:EffectData.obj
 0001:0003c630       ?_Xlength@?$vector@V?$vector@UD3DXVECTOR3@@V?$allocator@UD3DXVECTOR3@@@std@@@std@@V?$allocator@V?$vector@UD3DXVECTOR3@@V?$allocator@UD3DXVECTOR3@@@std@@@std@@@2@@std@@CAXXZ 0043d630 f i EterLib:AttributeInstance.obj
 0001:0003c630       ?_Xlength@?$vector@UTAttachEffectInstance@CFlyingInstance@@V?$allocator@UTAttachEffectInstance@CFlyingInstance@@@std@@@std@@CAXXZ 0043d630 f i GameLib:FlyingInstance.obj
 0001:0003c630       ?_Xlength@?$vector@V?$list@PAVCParticleInstance@@V?$allocator@PAVCParticleInstance@@@std@@@std@@V?$allocator@V?$list@PAVCParticleInstance@@V?$allocator@PAVCParticleInstance@@@std@@@std@@@2@@std@@CAXXZ 0043d630 f i EffectLib:ParticleSystemInstance.obj
 0001:0003c630       ?_Xlength@?$vector@PAUSSlot@CSlotWindow@UI@@V?$allocator@PAUSSlot@CSlotWindow@UI@@@std@@@std@@CAXXZ 0043d630 f i EterPythonLib:PythonGridSlotWindow.obj
 0001:0003c630       ?_Xlength@?$vector@PAVCRotationDecorator@NEffectUpdateDecorator@@V?$allocator@PAVCRotationDecorator@NEffectUpdateDecorator@@@std@@@std@@CAXXZ 0043d630 f i EffectLib:ParticleSystemData.obj
 0001:0003c630       ?_Xlength@?$vector@PAVCGraphicThing@@V?$allocator@PAVCGraphicThing@@@std@@@std@@CAXXZ 0043d630 f i GameLib:ItemData.obj
 0001:0003c630       ?_Xlength@?$vector@USAttachingModelData@CGrannyLODController@@V?$allocator@USAttachingModelData@CGrannyLODController@@@std@@@std@@CAXXZ 0043d630 f i EterGrnLib:LODController.obj
 0001:0003c630       ?_Xlength@?$vector@PAEV?$allocator@PAE@std@@@std@@CAXXZ 0043d630 f i EterBase:lzo.obj
 0001:0003c630       ?_Xlength@?$vector@USPTVertex@@V?$allocator@USPTVertex@@@std@@@std@@CAXXZ 0043d630 f i EffectLib:EffectMesh.obj
 0001:0003c630       ?_Xlength@?$vector@USSoundData@NSound@@V?$allocator@USSoundData@NSound@@@std@@@std@@CAXXZ 0043d630 f i MilesLib:Type.obj
 0001:0003c630       ?_Xlength@?$vector@PAVCOBBCollisionInstance@@V?$allocator@PAVCOBBCollisionInstance@@@std@@@std@@CAXXZ 0043d630 f i EterLib:CollisionData.obj
 0001:0003c630       ?_Xlength@?$vector@USGuildMemberData@CPythonGuild@@V?$allocator@USGuildMemberData@CPythonGuild@@@std@@@std@@CAXXZ 0043d630 f i PythonGuild.obj
 0001:0003c630       ?_Xlength@?$vector@PAVCSnowParticle@@V?$allocator@PAVCSnowParticle@@@std@@@std@@CAXXZ 0043d630 f i GameLib:SnowEnvironment.obj
 0001:0003c630       ?_Xlength@?$vector@PAVCRaceData@@V?$allocator@PAVCRaceData@@@std@@@std@@CAXXZ 0043d630 f i GameLib:RaceData.obj
 0001:0003c630       ?_Xlength@?$vector@USProvider@@V?$allocator@USProvider@@@std@@@std@@CAXXZ 0043d630 f i MilesLib:SoundManager3D.obj
 0001:0003c630       ?_Xlength@?$vector@USPDTVertex@@V?$allocator@USPDTVertex@@@std@@@std@@CAXXZ 0043d630 f i EterPythonLib:PythonGraphic.obj
 0001:0003c630       ?_Xlength@?$vector@PAVCAttributeInstance@@V?$allocator@PAVCAttributeInstance@@@std@@@std@@CAXXZ 0043d630 f i EterLib:AttributeInstance.obj
 0001:0003c630       ?_Xlength@?$vector@USObjectData@CArea@@V?$allocator@USObjectData@CArea@@@std@@@std@@CAXXZ 0043d630 f i GameLib:Area.obj
 0001:0003c630       ?_Xlength@?$vector@PAUSAttachingEffectData@NRaceData@@V?$allocator@PAUSAttachingEffectData@NRaceData@@@std@@@std@@CAXXZ 0043d630 f i GameLib:GameType.obj
 0001:0003c630       ?_Xlength@?$vector@PAVCInstanceBase@@V?$allocator@PAVCInstanceBase@@@std@@@std@@CAXXZ 0043d630 f i InstanceBase.obj
 0001:0003c630       ?_Xlength@?$vector@USSkin@CRaceData@@V?$allocator@USSkin@CRaceData@@@std@@@std@@CAXXZ 0043d630 f i GameLib:RaceData.obj
 0001:0003c630       ?_Xlength@?$vector@HV?$allocator@H@std@@@std@@CAXXZ 0043d630 f i PythonChat.obj
 0001:0003c630       ?_Xlength@?$vector@PAVCGraphicThingInstance@@V?$allocator@PAVCGraphicThingInstance@@@std@@@std@@CAXXZ 0043d630 f i EterGrnLib:ThingInstance.obj
 0001:0003c630       ?_Xlength@?$vector@PAVCDungeonModelInstance@@V?$allocator@PAVCDungeonModelInstance@@@std@@@std@@CAXXZ 0043d630 f i GameLib:DungeonBlock.obj
 0001:0003c630       ?_Xlength@?$vector@PAVCTextureAnimationCWDecorator@NEffectUpdateDecorator@@V?$allocator@PAVCTextureAnimationCWDecorator@NEffectUpdateDecorator@@@std@@@std@@CAXXZ 0043d630 f i EffectLib:ParticleSystemData.obj
 0001:0003c630       ?_Xlength@?$vector@PAVCCylinderCollisionInstance@@V?$allocator@PAVCCylinderCollisionInstance@@@std@@@std@@CAXXZ 0043d630 f i EterLib:CollisionData.obj
 0001:0003c630       ?_Xlength@?$vector@V?$CTimeEvent@M@@V?$allocator@V?$CTimeEvent@M@@@std@@@std@@CAXXZ 0043d630 f i EffectLib:ParticleSystemData.obj
 0001:0003c630       ?_Xlength@?$vector@PAVCLightInstance@@V?$allocator@PAVCLightInstance@@@std@@@std@@CAXXZ 0043d630 f i EffectLib:EffectInstance.obj
 0001:0003c630       ?_Xlength@?$vector@PAVCDungeonBlock@@V?$allocator@PAVCDungeonBlock@@@std@@@std@@CAXXZ 0043d630 f i GameLib:Area.obj
 0001:0003c630       ?_Xlength@?$vector@Upacket_item@@V?$allocator@Upacket_item@@@std@@@std@@CAXXZ 0043d630 f i PythonSafeBox.obj
 0001:0003c630       ?_Xlength@?$vector@PAVCGraphicVertexBuffer@@V?$allocator@PAVCGraphicVertexBuffer@@@std@@@std@@CAXXZ 0043d630 f i EterGrnLib:LODController.obj
 0001:0003c630       ?_Xlength@?$vector@NV?$allocator@N@std@@@std@@CAXXZ 0043d630 f i EterBase:Poly.obj
 0001:0003c630       ?_Xlength@?$vector@USEffectPosition@@V?$allocator@USEffectPosition@@@std@@@std@@CAXXZ 0043d630 f i EffectLib:EffectElementBase.obj
 0001:0003c630       ?_Xlength@?$vector@USItem@SHeightCache@CMapOutdoor@@V?$allocator@USItem@SHeightCache@CMapOutdoor@@@std@@@std@@CAXXZ 0043d630 f i GameLib:MapOutdoor.obj
 0001:0003c630       ?_Xlength@?$vector@UD3DXVECTOR3@@V?$allocator@UD3DXVECTOR3@@@std@@@std@@CAXXZ 0043d630 f i CameraProcedure.obj
 0001:0003c630       ?_Xlength@?$vector@PAUSCharacterInfomation@CGraphicFontTexture@@V?$allocator@PAUSCharacterInfomation@CGraphicFontTexture@@@std@@@std@@CAXXZ 0043d630 f i EterLib:GrpTextInstance.obj
 0001:0003c630       ?_Xlength@?$vector@V?$CRef@VCGrannyMaterial@@@@V?$allocator@V?$CRef@VCGrannyMaterial@@@@@std@@@std@@CAXXZ 0043d630 f i EterGrnLib:Material.obj
 0001:0003c630       ?_Xlength@?$vector@KV?$allocator@K@std@@@std@@CAXXZ 0043d630 f i GuildMarkDownloader.obj
 0001:0003c630       ?_Xlength@?$vector@PAUSChatLine@CWhisper@@V?$allocator@PAUSChatLine@CWhisper@@@std@@@std@@CAXXZ 0043d630 f i PythonChat.obj
 0001:0003c630       ?_Xlength@?$vector@PAUSAmbienceInstance@CArea@@V?$allocator@PAUSAmbienceInstance@CArea@@@std@@@std@@CAXXZ 0043d630 f i GameLib:Area.obj
 0001:0003c630       ?_Xlength@?$vector@PAVCArea@@V?$allocator@PAVCArea@@@std@@@std@@CAXXZ 0043d630 f i GameLib:MapOutdoor.obj
 0001:0003c630       ?_Xlength@?$vector@PAVCHeaderDecorator@NEffectUpdateDecorator@@V?$allocator@PAVCHeaderDecorator@NEffectUpdateDecorator@@@std@@@std@@CAXXZ 0043d630 f i EffectLib:ParticleSystemData.obj
 0001:0003c630       ?_Xlength@?$vector@UTAtlasMarkInfo@CPythonMiniMap@@V?$allocator@UTAtlasMarkInfo@CPythonMiniMap@@@std@@@std@@CAXXZ 0043d630 f i PythonMiniMap.obj
 0001:0003c630       ?_Xlength@?$vector@PAVCGravityDecorator@NEffectUpdateDecorator@@V?$allocator@PAVCGravityDecorator@NEffectUpdateDecorator@@@std@@@std@@CAXXZ 0043d630 f i EffectLib:ParticleSystemData.obj
 0001:0003c630       ?_Xlength@?$vector@PAVCGraphicExpandedImageInstance@@V?$allocator@PAVCGraphicExpandedImageInstance@@@std@@@std@@CAXXZ 0043d630 f i EterLib:GrpExpandedImageInstance.obj
 0001:0003c630       ?_Xlength@?$vector@USMotion@CRaceData@@V?$allocator@USMotion@CRaceData@@@std@@@std@@CAXXZ 0043d630 f i GameLib:RaceData.obj
 0001:0003c630       ?_Xlength@?$vector@PAUSEffectMeshData@CEffectMesh@@V?$allocator@PAUSEffectMeshData@CEffectMesh@@@std@@@std@@CAXXZ 0043d630 f i EffectLib:EffectMesh.obj
 0001:0003c630       ?_Xlength@?$vector@PAVCPlaneCollisionInstance@@V?$allocator@PAVCPlaneCollisionInstance@@@std@@@std@@CAXXZ 0043d630 f i EterLib:CollisionData.obj
 0001:0003c630       ?_Xlength@?$vector@PAVCEffectInstance@@V?$allocator@PAVCEffectInstance@@@std@@@std@@CAXXZ 0043d630 f i EffectLib:EffectManager.obj
 0001:0003c630       ?_Xlength@?$vector@UD3DXVECTOR2@@V?$allocator@UD3DXVECTOR2@@@std@@@std@@CAXXZ 0043d630 f i EffectLib:EffectMesh.obj
 0001:0003c630       ?_Xlength@?$vector@PAUSAttachingObjectData@NRaceData@@V?$allocator@PAUSAttachingObjectData@NRaceData@@@std@@@std@@CAXXZ 0043d630 f i GameLib:GameType.obj
 0001:0003c630       ?_Xlength@?$vector@PAVCBlockTexture@@V?$allocator@PAVCBlockTexture@@@std@@@std@@CAXXZ 0043d630 f i EterLib:DibBar.obj
 0001:0003c630       ?_Xlength@?$vector@VCStaticCollisionData@@V?$allocator@VCStaticCollisionData@@@std@@@std@@CAXXZ 0043d630 f i EterLib:AttributeData.obj
 0001:0003c630       ?_Xlength@?$vector@VCSphereCollisionInstance@@V?$allocator@VCSphereCollisionInstance@@@std@@@std@@CAXXZ 0043d630 f i GameLib:GameType.obj
 0001:0003c630       ?_Xlength@?$vector@USTerrainTexture@@V?$allocator@USTerrainTexture@@@std@@@std@@CAXXZ 0043d630 f i PRTerrainLib:TextureSet.obj
 0001:0003c630       ?_Xlength@?$vector@PAVCSphereCollisionInstance@@V?$allocator@PAVCSphereCollisionInstance@@@std@@@std@@CAXXZ 0043d630 f i EterLib:CollisionData.obj
 0001:0003c630       ?_Xlength@?$vector@PAV?$CTimeEventDecorator@UDWORDCOLOR@@@NEffectUpdateDecorator@@V?$allocator@PAV?$CTimeEventDecorator@UDWORDCOLOR@@@NEffectUpdateDecorator@@@std@@@std@@CAXXZ 0043d630 f i EffectLib:ParticleSystemData.obj
 0001:0003c630       ?_Xlength@?$vector@PAVCTerrain@@V?$allocator@PAVCTerrain@@@std@@@std@@CAXXZ 0043d630 f i GameLib:MapOutdoor.obj
 0001:0003c630       ?_Xlength@?$vector@PAVCWhisper@@V?$allocator@PAVCWhisper@@@std@@@std@@CAXXZ 0043d630 f i PythonChat.obj
 0001:0003c630       ?_Xlength@?$vector@USBoundBox@@V?$allocator@USBoundBox@@@std@@@std@@CAXXZ 0043d630 f i EterGrnLib:ModelInstanceCollisionDetection.obj
 0001:0003c630       ?_Xlength@?$vector@USGuildBoardCommentData@CPythonGuild@@V?$allocator@USGuildBoardCommentData@CPythonGuild@@@std@@@std@@CAXXZ 0043d630 f i PythonGuild.obj
 0001:0003c630       ?_Xlength@?$vector@PAUSTextTail@CPythonTextTail@@V?$allocator@PAUSTextTail@CPythonTextTail@@@std@@@std@@CAXXZ 0043d630 f i PythonTextTail.obj
 0001:0003c630       ?_Xlength@?$vector@PAUSMotionEventData@NMotionEvent@@V?$allocator@PAUSMotionEventData@NMotionEvent@@@std@@@std@@CAXXZ 0043d630 f i GameLib:RaceMotionData.obj
 0001:0003c630       ?_Xlength@?$vector@PAVCTextureAnimationRandomDecorator@NEffectUpdateDecorator@@V?$allocator@PAVCTextureAnimationRandomDecorator@NEffectUpdateDecorator@@@std@@@std@@CAXXZ 0043d630 f i EffectLib:ParticleSystemData.obj
 0001:0003c630       ?_Xlength@?$vector@PAVCAABBCollisionInstance@@V?$allocator@PAVCAABBCollisionInstance@@@std@@@std@@CAXXZ 0043d630 f i EterLib:CollisionData.obj
 0001:0003c630       ?_Xlength@?$vector@DV?$allocator@D@std@@@std@@CAXXZ 0043d630 f i PythonNetworkStreamPhaseGame.obj
 0001:0003c630       ?_Xlength@?$vector@_WV?$allocator@_W@std@@@std@@CAXXZ 0043d630 f i EterLib:IME.obj
 0001:0003c630       ?_Xlength@?$vector@V?$basic_string@DU?$char_traits@D@std@@V?$allocator@D@2@@std@@V?$allocator@V?$basic_string@DU?$char_traits@D@std@@V?$allocator@D@2@@std@@@2@@std@@CAXXZ 0043d630 f i InstanceBaseEffect.obj
 0001:0003c630       ?_Xlength@?$vector@PAVCTextureAnimationCCWDecorator@NEffectUpdateDecorator@@V?$allocator@PAVCTextureAnimationCCWDecorator@NEffectUpdateDecorator@@@std@@@std@@CAXXZ 0043d630 f i EffectLib:ParticleSystemData.obj
 0001:0003c630       ?_Xlength@?$vector@PAVCGraphicImageInstance@@V?$allocator@PAVCGraphicImageInstance@@@std@@@std@@CAXXZ 0043d630 f i EffectLib:EffectMeshInstance.obj
 0001:0003c630       ?_Xlength@?$vector@PAUSEventSet@CPythonEventManager@@V?$allocator@PAUSEventSet@CPythonEventManager@@@std@@@std@@CAXXZ 0043d630 f i PythonEventManager.obj
 0001:0003c630       ?_Xlength@?$vector@PAVCGraphicImage@@V?$allocator@PAVCGraphicImage@@@std@@@std@@CAXXZ 0043d630 f i EffectLib:EffectMesh.obj
 0001:0003c630       ?_Xlength@?$vector@USSoundInstance@NSound@@V?$allocator@USSoundInstance@NSound@@@std@@@std@@CAXXZ 0043d630 f i MilesLib:Type.obj
 0001:0003c630       ?_Xlength@?$vector@USTextureInstance@CEffectMeshInstance@@V?$allocator@USTextureInstance@CEffectMeshInstance@@@std@@@std@@CAXXZ 0043d630 f i EffectLib:EffectMeshInstance.obj
 0001:0003c630       ?_Xlength@?$vector@USHeightData@@V?$allocator@USHeightData@@@std@@@std@@CAXXZ 0043d630 f i EterLib:AttributeData.obj
 0001:0003c630       ?_Xlength@?$vector@PAUSGroundItemInstance@CPythonItem@@V?$allocator@PAUSGroundItemInstance@CPythonItem@@@std@@@std@@CAXXZ 0043d630 f i PythonItem.obj
 0001:0003c630       ?_Xlength@?$vector@PAUSChatLine@CPythonChat@@V?$allocator@PAUSChatLine@CPythonChat@@@std@@@std@@CAXXZ 0043d630 f i PythonChat.obj
 0001:0003c630       ?_Xlength@?$vector@PAVCFlyTrace@@V?$allocator@PAVCFlyTrace@@@std@@@std@@CAXXZ 0043d630 f i GameLib:FlyTrace.obj
 0001:0003c630       ?_Xlength@?$vector@PAVCFlyingInstance@@V?$allocator@PAVCFlyingInstance@@@std@@@std@@CAXXZ 0043d630 f i GameLib:FlyingObjectManager.obj
 0001:0003c630       ?_Xlength@?$vector@USAttachingData@NRaceData@@V?$allocator@USAttachingData@NRaceData@@@std@@@std@@CAXXZ 0043d630 f i GameLib:GameType.obj
 0001:0003c630       ?_Xlength@?$vector@PAVCNullDecorator@NEffectUpdateDecorator@@V?$allocator@PAVCNullDecorator@NEffectUpdateDecorator@@@std@@@std@@CAXXZ 0043d630 f i EffectLib:ParticleSystemData.obj
 0001:0003c630       ?_Xlength@?$vector@PAVCLightData@@V?$allocator@PAVCLightData@@@std@@@std@@CAXXZ 0043d630 f i EffectLib:EffectData.obj
 0001:0003c630       ?_Xlength@?$vector@UTSignalPoint@CPythonMiniMap@@V?$allocator@UTSignalPoint@CPythonMiniMap@@@std@@@std@@CAXXZ 0043d630 f i PythonMiniMap.obj
 0001:0003c630       ?_Xlength@?$vector@PAV?$CRef@VCGraphicThing@@@@V?$allocator@PAV?$CRef@VCGraphicThing@@@@@std@@@std@@CAXXZ 0043d630 f i EterGrnLib:ThingInstance.obj
 0001:0003c630       ?_Xlength@?$vector@PAVCParticleSystemInstance@@V?$allocator@PAVCParticleSystemInstance@@@std@@@std@@CAXXZ 0043d630 f i EffectLib:EffectInstance.obj
 0001:0003c630       ?_Xlength@?$vector@PAUSMotionModeData@CRaceData@@V?$allocator@PAUSMotionModeData@CRaceData@@@std@@@std@@CAXXZ 0043d630 f i GameLib:RaceData.obj
 0001:0003c630       ?_Xlength@?$vector@U?$pair@MUTFlyVertexSet@@@std@@V?$allocator@U?$pair@MUTFlyVertexSet@@@std@@@2@@std@@CAXXZ 0043d630 f i GameLib:FlyTrace.obj
 0001:0003c630       ?_Xlength@?$vector@PAVCGraphicTextInstance@@V?$allocator@PAVCGraphicTextInstance@@@std@@@std@@CAXXZ 0043d630 f i PythonEventManager.obj
 0001:0003c630       ?_Xlength@?$vector@PAV?$CTimeEventDecorator@M@NEffectUpdateDecorator@@V?$allocator@PAV?$CTimeEventDecorator@M@NEffectUpdateDecorator@@@std@@@std@@CAXXZ 0043d630 f i EffectLib:ParticleSystemData.obj
 0001:0003c630       ?_Xlength@?$vector@PAVCParticleSystemData@@V?$allocator@PAVCParticleSystemData@@@std@@@std@@CAXXZ 0043d630 f i EffectLib:ParticleSystemData.obj
 0001:0003c630       ?_Xlength@?$vector@PAVCGraphicMarkInstance@@V?$allocator@PAVCGraphicMarkInstance@@@std@@@std@@CAXXZ 0043d630 f i EterLib:GrpMarkInstance.obj
 0001:0003c630       ?_Xlength@?$vector@PAVCGrannyLODController@@V?$allocator@PAVCGrannyLODController@@@std@@@std@@CAXXZ 0043d630 f i EterGrnLib:ThingInstance.obj
 0001:0003c630       ?_Xlength@?$vector@PAUSGroupNode@CTextFileLoader@@V?$allocator@PAUSGroupNode@CTextFileLoader@@@std@@@std@@CAXXZ 0043d630 f i EterLib:TextFileLoader.obj
 0001:0003c630       ?_Xlength@?$vector@PAVCSpeedTreeWrapper@@V?$allocator@PAVCSpeedTreeWrapper@@@std@@@std@@CAXXZ 0043d630 f i GameLib:Area.obj
 0001:0003c630       ?_Xlength@?$vector@PAVCItemData@@V?$allocator@PAVCItemData@@@std@@@std@@CAXXZ 0043d630 f i GameLib:ItemManager.obj
 0001:0003c630       ?_Xlength@?$vector@PAVCEffectMeshScript@@V?$allocator@PAVCEffectMeshScript@@@std@@@std@@CAXXZ 0043d630 f i EffectLib:EffectData.obj
 0001:0003c630       ?_Xlength@?$vector@USHyperlink@CGraphicTextInstance@@V?$allocator@USHyperlink@CGraphicTextInstance@@@std@@@std@@CAXXZ 0043d630 f i EterLib:GrpTextInstance.obj
 0001:0003c630       ?_Xlength@?$vector@USHitData@NRaceData@@V?$allocator@USHitData@NRaceData@@@std@@@std@@CAXXZ 0043d630 f i GameLib:GameType.obj
 0001:0003c630       ?_Xlength@?$vector@PAVCGrannyModelInstance@@V?$allocator@PAVCGrannyModelInstance@@@std@@@std@@CAXXZ 0043d630 f i EterGrnLib:ModelInstance.obj
 0001:0003c630       ?_Xlength@?$vector@UTGuildAreaInfo@CPythonMiniMap@@V?$allocator@UTGuildAreaInfo@CPythonMiniMap@@@std@@@std@@CAXXZ 0043d630 f i PythonMiniMap.obj
 0001:0003c630       ?_Xlength@?$vector@USVictim@CPythonPlayerEventHandler@@V?$allocator@USVictim@CPythonPlayerEventHandler@@@std@@@std@@CAXXZ 0043d630 f i PythonPlayerEventHandler.obj
 0001:0003c630       ?_Xlength@?$vector@UTGradientColor@@V?$allocator@UTGradientColor@@@std@@@std@@CAXXZ 0043d630 f i GameLib:MapUtil.obj
 0001:0003c630       ?_Xlength@?$vector@USAffectData@CPythonSkill@@V?$allocator@USAffectData@CPythonSkill@@@std@@@std@@CAXXZ 0043d630 f i PythonSkill.obj
 0001:0003c630       ?_Xlength@?$vector@PAUSFlarePiece@CFlare@@V?$allocator@PAUSFlarePiece@CFlare@@@std@@@std@@CAXXZ 0043d630 f i EterLib:LensFlare.obj
 0001:0003c630       ?_Xlength@?$vector@PAVCWeaponTrace@@V?$allocator@PAVCWeaponTrace@@@std@@@std@@CAXXZ 0043d630 f i GameLib:ActorInstanceAttach.obj
 0001:0003c630       ?_Xlength@?$vector@PAVCSymTable@@V?$allocator@PAVCSymTable@@@std@@@std@@CAXXZ 0043d630 f i EterBase:Poly.obj
 0001:0003c630       ?_Xlength@?$vector@U?$pair@MJ@std@@V?$allocator@U?$pair@MJ@std@@@2@@std@@CAXXZ 0043d630 f i GameLib:MapOutdoorRender.obj
 0001:0003c630       ?_Xlength@?$vector@PAVCFlyingData@@V?$allocator@PAVCFlyingData@@@std@@@std@@CAXXZ 0043d630 f i GameLib:FlyingObjectManager.obj
 0001:0003c630       ?_Xlength@?$vector@PAVCParticleInstance@@V?$allocator@PAVCParticleInstance@@@std@@@std@@CAXXZ 0043d630 f i EffectLib:ParticleInstance.obj
 0001:0003c630       ?_Xlength@?$vector@PAVCAirResistanceDecorator@NEffectUpdateDecorator@@V?$allocator@PAVCAirResistanceDecorator@NEffectUpdateDecorator@@@std@@@std@@CAXXZ 0043d630 f i EffectLib:ParticleSystemData.obj
 0001:0003c630       ?_Xlength@?$vector@PAVCEffectMeshInstance@@V?$allocator@PAVCEffectMeshInstance@@@std@@@std@@CAXXZ 0043d630 f i EffectLib:EffectInstance.obj
 0001:0003c630       ?_Xlength@?$vector@PAVCGraphicImageTexture@@V?$allocator@PAVCGraphicImageTexture@@@std@@@std@@CAXXZ 0043d630 f i EterLib:GrpFontTexture.obj
 0001:0003c630       ?_Xlength@?$vector@PAVCBaseCollisionInstance@@V?$allocator@PAVCBaseCollisionInstance@@@std@@@std@@CAXXZ 0043d630 f i EterLib:GrpObjectInstance.obj
 0001:0003c630       ?_Xlength@?$vector@UTMapInfo@CMapManager@@V?$allocator@UTMapInfo@CMapManager@@@std@@@std@@CAXXZ 0043d630 f i GameLib:MapManager.obj
 0001:0003c630       ?_Xlength@?$vector@PAUgranny_mesh_binding@@V?$allocator@PAUgranny_mesh_binding@@@std@@@std@@CAXXZ 0043d630 f i EterGrnLib:ModelInstanceModel.obj
 0001:0003c630       ?_Xlength@?$vector@UCDynamicSphereInstance@@V?$allocator@UCDynamicSphereInstance@@@std@@@std@@CAXXZ 0043d630 f i GameLib:ActorInstanceCollisionDetection.obj
 0001:0003c630       ?_Xlength@?$vector@USModelThingSet@CGraphicThingInstance@@V?$allocator@USModelThingSet@CGraphicThingInstance@@@std@@@std@@CAXXZ 0043d630 f i EterGrnLib:ThingInstance.obj
 0001:0003c630       ?_Xlength@?$vector@USMeshData@CEffectMeshScript@@V?$allocator@USMeshData@CEffectMeshScript@@@std@@@std@@CAXXZ 0043d630 f i EffectLib:EffectMesh.obj
 0001:0003c630       ?_Xlength@?$vector@PAVCMonsterAreaInfo@@V?$allocator@PAVCMonsterAreaInfo@@@std@@@std@@CAXXZ 0043d630 f i GameLib:MapOutdoor.obj
 0001:0003c630       ?_Xlength@?$vector@V?$CTimeEvent@UDWORDCOLOR@@@@V?$allocator@V?$CTimeEvent@UDWORDCOLOR@@@@@std@@@std@@CAXXZ 0043d630 f i EffectLib:ParticleSystemData.obj
 0001:0003c630       ?_Xlength@?$vector@EV?$allocator@E@std@@@std@@CAXXZ 0043d630 f i MarkManager.obj
 0001:0003c630       ?_Xlength@?$vector@PAVCRaceMotionData@@V?$allocator@PAVCRaceMotionData@@@std@@@std@@CAXXZ 0043d630 f i GameLib:RaceMotionData.obj
 0001:0003c630       ?_Xlength@?$vector@USEffectFrameData@CEffectMesh@@V?$allocator@USEffectFrameData@CEffectMesh@@@std@@@std@@CAXXZ 0043d630 f i EffectLib:EffectMesh.obj
 0001:0003c630       ?_Xlength@?$vector@UTMarkPosition@CPythonMiniMap@@V?$allocator@UTMarkPosition@CPythonMiniMap@@@std@@@std@@CAXXZ 0043d630 f i PythonMiniMap.obj
 0001:0003c630       ?_Xlength@?$vector@PAUSObjectInstance@CArea@@V?$allocator@PAUSObjectInstance@CArea@@@std@@@std@@CAXXZ 0043d630 f i GameLib:Area.obj
 0001:0003c630       ?_Xlength@?$vector@PAUSCollisionData@NRaceData@@V?$allocator@PAUSCollisionData@NRaceData@@@std@@@std@@CAXXZ 0043d630 f i GameLib:GameType.obj
 0001:0003c630       ?_Xlength@?$vector@UTFlyingAttachData@CFlyingData@@V?$allocator@UTFlyingAttachData@CFlyingData@@@std@@@std@@CAXXZ 0043d630 f i GameLib:FlyingData.obj
 0001:0003c630       ?_Xlength@?$vector@USQuestInstance@CPythonQuest@@V?$allocator@USQuestInstance@CPythonQuest@@@std@@@std@@CAXXZ 0043d630 f i PythonQuest.obj
 0001:0003c630       ?_Xlength@?$vector@USShopItemTable@@V?$allocator@USShopItemTable@@@std@@@std@@CAXXZ 0043d630 f i PythonShop.obj
 0001:0003c630       ?_Xlength@?$vector@VCSkyObjectQuad@@V?$allocator@VCSkyObjectQuad@@@std@@@std@@CAXXZ 0043d630 f i EterLib:SkyBox.obj
 0001:0003c630       ?_Xlength@?$vector@PAVCGraphicObjectInstance@@V?$allocator@PAVCGraphicObjectInstance@@@std@@@std@@CAXXZ 0043d630 f i EterLib:CullingManager.obj
 0001:0003c630       ?_Xlength@?$vector@PAVCLight@@V?$allocator@PAVCLight@@@std@@@std@@CAXXZ 0043d630 f i EterLib:GrpLightManager.obj
 0001:0003c640       ??$_Uninitialized_move@PAUD3DXVECTOR3@@V?$allocator@UD3DXVECTOR3@@@std@@@std@@YAPAUD3DXVECTOR3@@QAU1@0PAU1@AAV?$allocator@UD3DXVECTOR3@@@0@@Z 0043d640 f i CameraProcedure.obj
 0001:0003c670       ??_GSpherePackCallback@@UAEPAXI@Z 0043d670 f i CameraProcedure.obj
 0001:0003c670       ??_ESpherePackCallback@@UAEPAXI@Z 0043d670 f i * CIL library *:* CIL module *
 0001:0003c6a0       ?Decode@CD3DXCodec@@UAEXIIPAUD3DXCOLOR@@@Z 0043d6a0 f i d3dx8:cd3dxcodec.obj
 0001:0003c6a0       ?Encode@CD3DXCodec@@UAEXIIPAUD3DXCOLOR@@@Z 0043d6a0 f i d3dx8:cd3dxcodec.obj
 0001:0003c6a0       ?VisibilityCallback@?$RangeTester@UFGetShadowReceiverFromCollisionData@@@@UAEXABVFrustum@@PAVSpherePack@@W4ViewState@@@Z 0043d6a0 f i GameLib:MapOutdoorUpdate.obj
 0001:0003c6a0       ?SetPosition@CSoundInstanceStream@@UBEXMMM@Z 0043d6a0 f i MilesLib:SoundInstanceStream.obj
 0001:0003c6a0       ?VisibilityCallback@?$RangeTester@UFGetShadowReceiverFromHeightData@@@@UAEXABVFrustum@@PAVSpherePack@@W4ViewState@@@Z 0043d6a0 f i GameLib:MapOutdoorUpdate.obj
 0001:0003c6a0       ?VisibilityCallback@?$RangeTester@UFGetObjectHeight@@@@UAEXABVFrustum@@PAVSpherePack@@W4ViewState@@@Z 0043d6a0 f i GameLib:MapOutdoor.obj
 0001:0003c6a0       ?PointTest2dCallback@SpherePackCallback@@UAEXABVVector3d@@PAVSpherePack@@W4ViewState@@@Z 0043d6a0 f i CameraProcedure.obj
 0001:0003c6a0       ?VisibilityCallback@?$RangeTester@UCollisionAdjustChecker@@@@UAEXABVFrustum@@PAVSpherePack@@W4ViewState@@@Z 0043d6a0 f i PythonBackground.obj
 0001:0003c6a0       ?VisibilityCallback@?$RangeTester@UPCBlocker_SInstanceList@@@@UAEXABVFrustum@@PAVSpherePack@@W4ViewState@@@Z 0043d6a0 f i GameLib:MapOutdoorUpdate.obj
 0001:0003c6a0       ?VisibilityCallback@?$RangeTester@UFGetPortalID@@@@UAEXABVFrustum@@PAVSpherePack@@W4ViewState@@@Z 0043d6a0 f i PythonBackground.obj
 0001:0003c6a0       ?VisibilityCallback@?$RangeTester@UCollisionChecker@@@@UAEXABVFrustum@@PAVSpherePack@@W4ViewState@@@Z 0043d6a0 f i PythonBackground.obj
 0001:0003c6a0       ?VisibilityCallback@SpherePackCallback@@UAEXABVFrustum@@PAVSpherePack@@W4ViewState@@@Z 0043d6a0 f i CameraProcedure.obj
 0001:0003c6a0       ?SetPosition@CSoundInstance2D@@UBEXMMM@Z 0043d6a0 f i MilesLib:SoundInstance2D.obj
 0001:0003c6a0       ?VisibilityCallback@?$RangeTester@UFCheckBackgroundDuringFlying@@@@UAEXABVFrustum@@PAVSpherePack@@W4ViewState@@@Z 0043d6a0 f i GameLib:FlyingInstance.obj
 0001:0003c6a0       ?VisibilityCallback@?$RangeTester@UFGetPickingPoint@@@@UAEXABVFrustum@@PAVSpherePack@@W4ViewState@@@Z 0043d6a0 f i GameLib:MapOutdoor.obj
 0001:0003c6a0       ?VisibilityCallback@?$RangeTester@UFCheckAnotherMonsterDuringFlying@@@@UAEXABVFrustum@@PAVSpherePack@@W4ViewState@@@Z 0043d6a0 f i GameLib:FlyingInstance.obj
 0001:0003c6b0       ?RayTraceCallback@SpherePackCallback@@UAEXABVVector3d@@0M0PAVSpherePack@@@Z 0043d6b0 f i CameraProcedure.obj
 0001:0003c6c0       ?SetVelocity@CSoundInstanceStream@@UBEXMMMM@Z 0043d6c0 f i MilesLib:SoundInstanceStream.obj
 0001:0003c6c0       ?SetVelocity@CSoundInstance2D@@UBEXMMMM@Z 0043d6c0 f i MilesLib:SoundInstance2D.obj
 0001:0003c6c0       ?RangeTestCallback@SpherePackCallback@@UAEXABVVector3d@@MPAVSpherePack@@W4ViewState@@@Z 0043d6c0 f i CameraProcedure.obj
 0001:0003c6d0       ??1?$RangeTester@UFGetObjectHeight@@@@UAE@XZ 0043d6d0 f i GameLib:MapOutdoor.obj
 0001:0003c6d0       ??1?$RangeTester@UFGetShadowReceiverFromHeightData@@@@UAE@XZ 0043d6d0 f i GameLib:MapOutdoorUpdate.obj
 0001:0003c6d0       ??1SpherePackCallback@@UAE@XZ 0043d6d0 f i CameraProcedure.obj
 0001:0003c6d0       ??1?$RangeTester@UCollisionChecker@@@@UAE@XZ 0043d6d0 f i PythonBackground.obj
 0001:0003c6d0       ??1?$RangeTester@UFCheckBackgroundDuringFlying@@@@UAE@XZ 0043d6d0 f i GameLib:FlyingInstance.obj
 0001:0003c6d0       ??1?$RangeTester@UFGetPortalID@@@@UAE@XZ 0043d6d0 f i PythonBackground.obj
 0001:0003c6d0       ??1?$RangeTester@UFGetShadowReceiverFromCollisionData@@@@UAE@XZ 0043d6d0 f i GameLib:MapOutdoorUpdate.obj
 0001:0003c6d0       ??1?$RangeTester@UFCheckAnotherMonsterDuringFlying@@@@UAE@XZ 0043d6d0 f i GameLib:FlyingInstance.obj
 0001:0003c6d0       ??1?$RangeTester@UPCBlocker_SInstanceList@@@@UAE@XZ 0043d6d0 f i GameLib:MapOutdoorUpdate.obj
 0001:0003c6d0       ??1?$RangeTester@UCollisionAdjustChecker@@@@UAE@XZ 0043d6d0 f i PythonBackground.obj
 0001:0003c6d0       ??1?$RangeTester@UFGetPickingPoint@@@@UAE@XZ 0043d6d0 f i GameLib:MapOutdoor.obj
 0001:0003c6e0       _fabsf                     0043d6e0 f i CameraProcedure.obj
 0001:0003c710       _sqrtf                     0043d710 f i CameraProcedure.obj
 0001:0003c760       _floorf                    0043d760 f i CameraProcedure.obj
 0001:0003c7a0       ?DefaultFont_Startup@@YAXXZ 0043d7a0 f   GameType.obj
 0001:0003c7b0       ?DefaultFont_Cleanup@@YAXXZ 0043d7b0 f   GameType.obj
 0001:0003c7c0       ?DefaultFont_SetName@@YAXPBD@Z 0043d7c0 f   GameType.obj
 0001:0003c850       ?ReloadDefaultFonts@@YA_NXZ 0043d850 f   GameType.obj
 0001:0003c8e0       ?DefaultFont_GetResource@@YAPAVCResource@@XZ 0043d8e0 f   GameType.obj
 0001:0003c900       ?DefaultItalicFont_GetResource@@YAPAVCResource@@XZ 0043d900 f   GameType.obj
 0001:0003c920       ?SetGuildSymbolPath@@YAXPBD@Z 0043d920 f   GameType.obj
 0001:0003c970       ?GetGuildSymbolFileName@@YAPBDK@Z 0043d970 f   GameType.obj
 0001:0003c9a0       ?SlotTypeToInvenType@@YAEE@Z 0043d9a0 f   GameType.obj
 0001:0003c9c0       ?append@?$basic_string@DU?$char_traits@D@std@@V?$allocator@D@2@@std@@QAEAAV12@QBDI@Z 0043d9c0 f i GameType.obj
 0001:0003cb00       ??Y?$basic_string@DU?$char_traits@D@std@@V?$allocator@D@2@@std@@QAEAAV01@QBD@Z 0043db00 f i GameType.obj
 0001:0003cb30       ??0?$basic_string@DU?$char_traits@D@std@@V?$allocator@D@2@@std@@QAE@QBD@Z 0043db30 f i GameType.obj
 0001:0003cb70       ??0CGuildMarkDownloader@@QAE@XZ 0043db70 f   GuildMarkDownloader.obj
 0001:0003cc20       ??_ECGuildMarkDownloader@@UAEPAXI@Z 0043dc20 f i * CIL library *:* CIL module *
 0001:0003cc20       ??_GCGuildMarkDownloader@@UAEPAXI@Z 0043dc20 f i GuildMarkDownloader.obj
 0001:0003cc50       ??1CGuildMarkDownloader@@UAE@XZ 0043dc50 f   GuildMarkDownloader.obj
 0001:0003ccd0       ?Connect@CGuildMarkDownloader@@QAE_NABVCNetworkAddress@@KK@Z 0043dcd0 f   GuildMarkDownloader.obj
 0001:0003cd10       ?ConnectToRecvSymbol@CGuildMarkDownloader@@QAE_NABVCNetworkAddress@@KKABV?$vector@KV?$allocator@K@std@@@std@@@Z 0043dd10 f   GuildMarkDownloader.obj
 0001:0003ce30       ?Process@CGuildMarkDownloader@@QAEXXZ 0043de30 f   GuildMarkDownloader.obj
 0001:0003ce60       ?OnDisconnect@CGuildMarkDownloader@@EAEXXZ 0043de60 f   GuildMarkDownloader.obj
 0001:0003ce60       ?OnRemoteDisconnect@CGuildMarkDownloader@@EAEXXZ 0043de60 f   GuildMarkDownloader.obj
 0001:0003ce60       ?OnConnectFailure@CGuildMarkDownloader@@EAEXXZ 0043de60 f   GuildMarkDownloader.obj
 0001:0003ce70       ?OnConnectSuccess@CGuildMarkDownloader@@EAEXXZ 0043de70 f   GuildMarkDownloader.obj
 0001:0003ce80       ?__Initialize@CGuildMarkDownloader@@AAEXXZ 0043de80 f   GuildMarkDownloader.obj
 0001:0003cef0       ?__StateProcess@CGuildMarkDownloader@@AAE_NXZ 0043def0 f   GuildMarkDownloader.obj
 0001:0003cf10       ?__OfflineState_Set@CGuildMarkDownloader@@AAEXXZ 0043df10 f   GuildMarkDownloader.obj
 0001:0003cf20       ?__CompleteState_Set@CGuildMarkDownloader@@AAEXXZ 0043df20 f   GuildMarkDownloader.obj
 0001:0003cf40       ?__LoginState_Set@CGuildMarkDownloader@@AAEXXZ 0043df40 f   GuildMarkDownloader.obj
 0001:0003cf50       ?__LoginState_Process@CGuildMarkDownloader@@AAE_NXZ 0043df50 f   GuildMarkDownloader.obj
 0001:0003cfd0       ?__GetPacketSize@CGuildMarkDownloader@@AAEII@Z 0043dfd0 f   GuildMarkDownloader.obj
 0001:0003d110       ?__DispatchPacket@CGuildMarkDownloader@@AAE_NI@Z 0043e110 f   GuildMarkDownloader.obj
 0001:0003d280       ?__LoginState_RecvHandshake@CGuildMarkDownloader@@AAE_NXZ 0043e280 f   GuildMarkDownloader.obj
 0001:0003d2f0       ?__LoginState_RecvPing@CGuildMarkDownloader@@AAE_NXZ 0043e2f0 f   GuildMarkDownloader.obj
 0001:0003d2f0       ?__LoginState_RecvPing@CGuildMarkUploader@@AAE_NXZ 0043e2f0 f   GuildMarkUploader.obj
 0001:0003d340       ?__LoginState_RecvPhase@CGuildMarkDownloader@@AAE_NXZ 0043e340 f   GuildMarkDownloader.obj
 0001:0003d3a0       ?__SendMarkIDXList@CGuildMarkDownloader@@AAE_NXZ 0043e3a0 f   GuildMarkDownloader.obj
 0001:0003d3c0       ?__LoginState_RecvMarkIndex@CGuildMarkDownloader@@AAE_NXZ 0043e3c0 f   GuildMarkDownloader.obj
 0001:0003d470       ?__SendMarkCRCList@CGuildMarkDownloader@@AAE_NXZ 0043e470 f   GuildMarkDownloader.obj
 0001:0003d500       ?__LoginState_RecvMarkBlock@CGuildMarkDownloader@@AAE_NXZ 0043e500 f   GuildMarkDownloader.obj
 0001:0003d720       ?__SendSymbolCRCList@CGuildMarkDownloader@@AAE_NXZ 0043e720 f   GuildMarkDownloader.obj
 0001:0003d870       ?__LoginState_RecvSymbolData@CGuildMarkDownloader@@AAE_NXZ 0043e870 f   GuildMarkDownloader.obj
 0001:0003d9d0       ??1?$CSingleton@VCGuildMarkDownloader@@@@UAE@XZ 0043e9d0 f i GuildMarkDownloader.obj
 0001:0003d9f0       ??1?$vector@PAVCGraphicObjectInstance@@V?$allocator@PAVCGraphicObjectInstance@@@std@@@std@@QAE@XZ 0043e9f0 f i EterLib:CullingManager.obj
 0001:0003d9f0       ??1?$vector@PAVCBaseCollisionInstance@@V?$allocator@PAVCBaseCollisionInstance@@@std@@@std@@QAE@XZ 0043e9f0 f i EterLib:GrpObjectInstance.obj
 0001:0003d9f0       ??1?$vector@PAVCSpeedTreeWrapper@@V?$allocator@PAVCSpeedTreeWrapper@@@std@@@std@@QAE@XZ 0043e9f0 f i GameLib:Area.obj
 0001:0003d9f0       ??1?$vector@PAVCDungeonModelInstance@@V?$allocator@PAVCDungeonModelInstance@@@std@@@std@@QAE@XZ 0043e9f0 f i GameLib:DungeonBlock.obj
 0001:0003d9f0       ??1?$vector@PAUSObjectInstance@CArea@@V?$allocator@PAUSObjectInstance@CArea@@@std@@@std@@QAE@XZ 0043e9f0 f i GameLib:Area.obj
 0001:0003d9f0       ??1?$vector@PAVCMonsterAreaInfo@@V?$allocator@PAVCMonsterAreaInfo@@@std@@@std@@QAE@XZ 0043e9f0 f i GameLib:MapOutdoor.obj
 0001:0003d9f0       ??1?$vector@PAVCTerrain@@V?$allocator@PAVCTerrain@@@std@@@std@@QAE@XZ 0043e9f0 f i GameLib:MapOutdoor.obj
 0001:0003d9f0       ??1?$vector@PAVCGraphicImageInstance@@V?$allocator@PAVCGraphicImageInstance@@@std@@@std@@QAE@XZ 0043e9f0 f i EffectLib:ParticleSystemInstance.obj
 0001:0003d9f0       ??1?$vector@PAVCDungeonBlock@@V?$allocator@PAVCDungeonBlock@@@std@@@std@@QAE@XZ 0043e9f0 f i GameLib:Area.obj
 0001:0003d9f0       ??1?$vector@PAVCSnowParticle@@V?$allocator@PAVCSnowParticle@@@std@@@std@@QAE@XZ 0043e9f0 f i GameLib:SnowEnvironment.obj
 0001:0003d9f0       ??1?$vector@PAUSEventSet@CPythonEventManager@@V?$allocator@PAUSEventSet@CPythonEventManager@@@std@@@std@@QAE@XZ 0043e9f0 f i PythonEventManager.obj
 0001:0003d9f0       ??1?$vector@PAUSAmbienceInstance@CArea@@V?$allocator@PAUSAmbienceInstance@CArea@@@std@@@std@@QAE@XZ 0043e9f0 f i GameLib:Area.obj
 0001:0003d9f0       ??1?$vector@PAVCArea@@V?$allocator@PAVCArea@@@std@@@std@@QAE@XZ 0043e9f0 f i GameLib:MapOutdoor.obj
 0001:0003d9f0       ?_Tidy@?$vector@KV?$allocator@K@std@@@std@@AAEXXZ 0043e9f0 f i GuildMarkDownloader.obj
 0001:0003d9f0       ??1?$vector@HV?$allocator@H@std@@@std@@QAE@XZ 0043e9f0 f i PythonChat.obj
 0001:0003d9f0       ??1?$vector@PAVCGraphicImageTexture@@V?$allocator@PAVCGraphicImageTexture@@@std@@@std@@QAE@XZ 0043e9f0 f i EterLib:GrpFontTexture.obj
 0001:0003d9f0       ??1?$vector@PAVCWeaponTrace@@V?$allocator@PAVCWeaponTrace@@@std@@@std@@QAE@XZ 0043e9f0 f i GameLib:ActorInstance.obj
 0001:0003d9f0       ??1?$vector@PAVCSymTable@@V?$allocator@PAVCSymTable@@@std@@@std@@QAE@XZ 0043e9f0 f i EterBase:Poly.obj
 0001:0003d9f0       ??1?$vector@PAUSGroupNode@CTextFileLoader@@V?$allocator@PAUSGroupNode@CTextFileLoader@@@std@@@std@@QAE@XZ 0043e9f0 f i EterLib:TextFileLoader.obj
 0001:0003d9f0       ??1?$vector@PAVCGraphicThing@@V?$allocator@PAVCGraphicThing@@@std@@@std@@QAE@XZ 0043e9f0 f i GameLib:ItemData.obj
 0001:0003d9f0       ??1?$vector@PAUSCharacterInfomation@CGraphicFontTexture@@V?$allocator@PAUSCharacterInfomation@CGraphicFontTexture@@@std@@@std@@QAE@XZ 0043e9f0 f i EterLib:GrpTextInstance.obj
 0001:0003d9f0       ??1?$vector@PAVCGraphicThingInstance@@V?$allocator@PAVCGraphicThingInstance@@@std@@@std@@QAE@XZ 0043e9f0 f i GameLib:Area.obj
 0001:0003d9f0       ??1?$vector@PAVCInstanceBase@@V?$allocator@PAVCInstanceBase@@@std@@@std@@QAE@XZ 0043e9f0 f i InstanceBase.obj
 0001:0003d9f0       ??1?$vector@KV?$allocator@K@std@@@std@@QAE@XZ 0043e9f0 f i GuildMarkDownloader.obj
 0001:0003d9f0       ??1SComboAttackData@CRaceData@@QAE@XZ 0043e9f0 f i GameLib:RaceData.obj
 0001:0003da30       ??_E?$CSingleton@VCGuildMarkDownloader@@@@UAEPAXI@Z 0043ea30 f i * CIL library *:* CIL module *
 0001:0003da30       ??_G?$CSingleton@VCGuildMarkDownloader@@@@UAEPAXI@Z 0043ea30 f i GuildMarkDownloader.obj
 0001:0003da60       ??1?$CDynamicPoolEx@VCHeaderDecorator@NEffectUpdateDecorator@@@@UAE@XZ 0043ea60 f i GuildMarkDownloader.obj
 0001:0003daf0       ??1?$CDynamicPoolEx@VCNullDecorator@NEffectUpdateDecorator@@@@UAE@XZ 0043eaf0 f i GuildMarkDownloader.obj
 0001:0003db80       ??1?$CDynamicPoolEx@VCTextureAnimationCWDecorator@NEffectUpdateDecorator@@@@UAE@XZ 0043eb80 f i GuildMarkDownloader.obj
 0001:0003dc10       ??1?$CDynamicPoolEx@VCTextureAnimationCCWDecorator@NEffectUpdateDecorator@@@@UAE@XZ 0043ec10 f i GuildMarkDownloader.obj
 0001:0003dca0       ??1?$CDynamicPoolEx@VCTextureAnimationRandomDecorator@NEffectUpdateDecorator@@@@UAE@XZ 0043eca0 f i GuildMarkDownloader.obj
 0001:0003dd30       ??1?$CDynamicPoolEx@VCAirResistanceDecorator@NEffectUpdateDecorator@@@@UAE@XZ 0043ed30 f i GuildMarkDownloader.obj
 0001:0003ddc0       ??1?$CDynamicPoolEx@VCGravityDecorator@NEffectUpdateDecorator@@@@UAE@XZ 0043edc0 f i GuildMarkDownloader.obj
 0001:0003de50       ??1?$CDynamicPoolEx@VCRotationDecorator@NEffectUpdateDecorator@@@@UAE@XZ 0043ee50 f i GuildMarkDownloader.obj
 0001:0003dee0       ??_E?$CDynamicPoolEx@VCHeaderDecorator@NEffectUpdateDecorator@@@@UAEPAXI@Z 0043eee0 f i * CIL library *:* CIL module *
 0001:0003dee0       ??_G?$CDynamicPoolEx@VCHeaderDecorator@NEffectUpdateDecorator@@@@UAEPAXI@Z 0043eee0 f i GuildMarkDownloader.obj
 0001:0003df10       ??_G?$CDynamicPoolEx@VCNullDecorator@NEffectUpdateDecorator@@@@UAEPAXI@Z 0043ef10 f i GuildMarkDownloader.obj
 0001:0003df10       ??_E?$CDynamicPoolEx@VCNullDecorator@NEffectUpdateDecorator@@@@UAEPAXI@Z 0043ef10 f i * CIL library *:* CIL module *
 0001:0003df40       ??_E?$CDynamicPoolEx@VCTextureAnimationCWDecorator@NEffectUpdateDecorator@@@@UAEPAXI@Z 0043ef40 f i * CIL library *:* CIL module *
 0001:0003df40       ??_G?$CDynamicPoolEx@VCTextureAnimationCWDecorator@NEffectUpdateDecorator@@@@UAEPAXI@Z 0043ef40 f i GuildMarkDownloader.obj
 0001:0003df70       ??_G?$CDynamicPoolEx@VCTextureAnimationCCWDecorator@NEffectUpdateDecorator@@@@UAEPAXI@Z 0043ef70 f i GuildMarkDownloader.obj
 0001:0003df70       ??_E?$CDynamicPoolEx@VCTextureAnimationCCWDecorator@NEffectUpdateDecorator@@@@UAEPAXI@Z 0043ef70 f i * CIL library *:* CIL module *
 0001:0003dfa0       ??_G?$CDynamicPoolEx@VCTextureAnimationRandomDecorator@NEffectUpdateDecorator@@@@UAEPAXI@Z 0043efa0 f i GuildMarkDownloader.obj
 0001:0003dfa0       ??_E?$CDynamicPoolEx@VCTextureAnimationRandomDecorator@NEffectUpdateDecorator@@@@UAEPAXI@Z 0043efa0 f i * CIL library *:* CIL module *
 0001:0003dfd0       ??_E?$CDynamicPoolEx@VCAirResistanceDecorator@NEffectUpdateDecorator@@@@UAEPAXI@Z 0043efd0 f i * CIL library *:* CIL module *
 0001:0003dfd0       ??_G?$CDynamicPoolEx@VCAirResistanceDecorator@NEffectUpdateDecorator@@@@UAEPAXI@Z 0043efd0 f i GuildMarkDownloader.obj
 0001:0003e000       ??_E?$CDynamicPoolEx@VCGravityDecorator@NEffectUpdateDecorator@@@@UAEPAXI@Z 0043f000 f i * CIL library *:* CIL module *
 0001:0003e000       ??_G?$CDynamicPoolEx@VCGravityDecorator@NEffectUpdateDecorator@@@@UAEPAXI@Z 0043f000 f i GuildMarkDownloader.obj
 0001:0003e030       ??_G?$CDynamicPoolEx@VCRotationDecorator@NEffectUpdateDecorator@@@@UAEPAXI@Z 0043f030 f i GuildMarkDownloader.obj
 0001:0003e030       ??_E?$CDynamicPoolEx@VCRotationDecorator@NEffectUpdateDecorator@@@@UAEPAXI@Z 0043f030 f i * CIL library *:* CIL module *
 0001:0003e060       ??$_Copy_memmove@PAPAUSSlot@CSlotWindow@UI@@PAPAU123@@std@@YAPAPAUSSlot@CSlotWindow@UI@@PAPAU123@00@Z 0043f060 f i EterPythonLib:PythonGridSlotWindow.obj
 0001:0003e060       ??$_Copy_memmove@PAPAVCParticleSystemInstance@@PAPAV1@@std@@YAPAPAVCParticleSystemInstance@@PAPAV1@00@Z 0043f060 f i EffectLib:EffectInstance.obj
 0001:0003e060       ??$_Copy_memmove@PAPAUSFlarePiece@CFlare@@PAPAU12@@std@@YAPAPAUSFlarePiece@CFlare@@PAPAU12@00@Z 0043f060 f i EterLib:LensFlare.obj
 0001:0003e060       ??$_Copy_memmove@PAPAVCRotationDecorator@NEffectUpdateDecorator@@PAPAV12@@std@@YAPAPAVCRotationDecorator@NEffectUpdateDecorator@@PAPAV12@00@Z 0043f060 f i EffectLib:ParticleSystemData.obj
 0001:0003e060       ??$_Copy_memmove@PAPAUSCharacterInfomation@CGraphicFontTexture@@PAPAU12@@std@@YAPAPAUSCharacterInfomation@CGraphicFontTexture@@PAPAU12@00@Z 0043f060 f i EterLib:GrpTextInstance.obj
 0001:0003e060       ??$_Copy_memmove@PAPAVCLightData@@PAPAV1@@std@@YAPAPAVCLightData@@PAPAV1@00@Z 0043f060 f i EffectLib:EffectData.obj
 0001:0003e060       ??$_Copy_memmove@PAPAUSMotionModeData@CRaceData@@PAPAU12@@std@@YAPAPAUSMotionModeData@CRaceData@@PAPAU12@00@Z 0043f060 f i GameLib:RaceData.obj
 0001:0003e060       ??$_Copy_memmove@PAPAVCTextureAnimationRandomDecorator@NEffectUpdateDecorator@@PAPAV12@@std@@YAPAPAVCTextureAnimationRandomDecorator@NEffectUpdateDecorator@@PAPAV12@00@Z 0043f060 f i EffectLib:ParticleSystemData.obj
 0001:0003e060       ??$_Copy_memmove@PAPAUSMotionEventData@NMotionEvent@@PAPAU12@@std@@YAPAPAUSMotionEventData@NMotionEvent@@PAPAU12@00@Z 0043f060 f i GameLib:RaceMotionData.obj
 0001:0003e060       ??$_Copy_memmove@PAUTAttachEffectInstance@CFlyingInstance@@PAU12@@std@@YAPAUTAttachEffectInstance@CFlyingInstance@@PAU12@00@Z 0043f060 f i GameLib:FlyingInstance.obj
 0001:0003e060       ??$_Copy_memmove@PAPAVCFlyingData@@PAPAV1@@std@@YAPAPAVCFlyingData@@PAPAV1@00@Z 0043f060 f i GameLib:FlyingObjectManager.obj
 0001:0003e060       ??$_Copy_memmove@PANPAN@std@@YAPANPAN00@Z 0043f060 f i EterBase:Poly.obj
 0001:0003e060       ??$_Copy_memmove@PAPAVCAttributeInstance@@PAPAV1@@std@@YAPAPAVCAttributeInstance@@PAPAV1@00@Z 0043f060 f i EterLib:AttributeInstance.obj
 0001:0003e060       ??$_Copy_memmove@PAPAVCSphereCollisionInstance@@PAPAV1@@std@@YAPAPAVCSphereCollisionInstance@@PAPAV1@00@Z 0043f060 f i EterLib:CollisionData.obj
 0001:0003e060       ??$_Copy_memmove@PAUSMotion@CRaceData@@PAU12@@std@@YAPAUSMotion@CRaceData@@PAU12@00@Z 0043f060 f i GameLib:RaceData.obj
 0001:0003e060       ??$_Copy_memmove@PAPAU?$pair@MUD3DXVECTOR3@@@std@@PAPAU12@@std@@YAPAPAU?$pair@MUD3DXVECTOR3@@@0@PAPAU10@00@Z 0043f060 f i GameLib:WeaponTrace.obj
 0001:0003e060       ??$_Copy_memmove@PAPAUSAttachingEffectData@NRaceData@@PAPAU12@@std@@YAPAPAUSAttachingEffectData@NRaceData@@PAPAU12@00@Z 0043f060 f i GameLib:GameType.obj
 0001:0003e060       ??$_Copy_memmove@PAPAUSAmbienceInstance@CArea@@PAPAU12@@std@@YAPAPAUSAmbienceInstance@CArea@@PAPAU12@00@Z 0043f060 f i GameLib:Area.obj
 0001:0003e060       ??$_Copy_memmove@PAPAKPAPAK@std@@YAPAPAKPAPAK00@Z 0043f060 f i EterLib:GrpLightManager.obj
 0001:0003e060       ??$_Copy_memmove@PAPAVCSnowParticle@@PAPAV1@@std@@YAPAPAVCSnowParticle@@PAPAV1@00@Z 0043f060 f i GameLib:SnowEnvironment.obj
 0001:0003e060       ??$_Copy_memmove@PAPAVCSpeedTreeWrapper@@PAPAV1@@std@@YAPAPAVCSpeedTreeWrapper@@PAPAV1@00@Z 0043f060 f i GameLib:Area.obj
 0001:0003e060       ??$_Copy_memmove@PAPAVCHeaderDecorator@NEffectUpdateDecorator@@PAPAV12@@std@@YAPAPAVCHeaderDecorator@NEffectUpdateDecorator@@PAPAV12@00@Z 0043f060 f i EffectLib:ParticleSystemData.obj
 0001:0003e060       ??$_Copy_memmove@PAEPAE@std@@YAPAEPAE00@Z 0043f060 f i MarkManager.obj
 0001:0003e060       ??$_Copy_memmove@PAPAVCGravityDecorator@NEffectUpdateDecorator@@PAPAV12@@std@@YAPAPAVCGravityDecorator@NEffectUpdateDecorator@@PAPAV12@00@Z 0043f060 f i EffectLib:ParticleSystemData.obj
 0001:0003e060       ??$_Copy_memmove@PAPAPAUSData@CFileLoaderThread@@PAPAPAU12@@std@@YAPAPAPAUSData@CFileLoaderThread@@PAPAPAU12@00@Z 0043f060 f i EterLib:FileLoaderThread.obj
 0001:0003e060       ??$_Copy_memmove@PAPAVCTextureAnimationCCWDecorator@NEffectUpdateDecorator@@PAPAV12@@std@@YAPAPAVCTextureAnimationCCWDecorator@NEffectUpdateDecorator@@PAPAV12@00@Z 0043f060 f i EffectLib:ParticleSystemData.obj
 0001:0003e060       ??$_Copy_memmove@PAPAVCLightInstance@@PAPAV1@@std@@YAPAPAVCLightInstance@@PAPAV1@00@Z 0043f060 f i EffectLib:EffectInstance.obj
 0001:0003e060       ??$_Copy_memmove@PAPAVCArea@@PAPAV1@@std@@YAPAPAVCArea@@PAPAV1@00@Z 0043f060 f i GameLib:MapOutdoor.obj
 0001:0003e060       ??$_Copy_memmove@PAPAVCBlockTexture@@PAPAV1@@std@@YAPAPAVCBlockTexture@@PAPAV1@00@Z 0043f060 f i EterLib:DibBar.obj
 0001:0003e060       ??$_Copy_memmove@PAPAVCBaseCollisionInstance@@PAPAV1@@std@@YAPAPAVCBaseCollisionInstance@@PAPAV1@00@Z 0043f060 f i EterLib:GrpObjectInstance.obj
 0001:0003e060       ??$_Copy_memmove@PAPAEPAPAE@std@@YAPAPAEPAPAE00@Z 0043f060 f i EterBase:lzo.obj
 0001:0003e060       ??$_Copy_memmove@PAPAVCWeaponTrace@@PAPAV1@@std@@YAPAPAVCWeaponTrace@@PAPAV1@00@Z 0043f060 f i GameLib:ActorInstanceAttach.obj
 0001:0003e060       ??$_Copy_memmove@PAPAUSObjectInstance@CArea@@PAPAU12@@std@@YAPAPAUSObjectInstance@CArea@@PAPAU12@00@Z 0043f060 f i GameLib:Area.obj
 0001:0003e060       ??$_Copy_memmove@PAPAUSGroupNode@CTextFileLoader@@PAPAU12@@std@@YAPAPAUSGroupNode@CTextFileLoader@@PAPAU12@00@Z 0043f060 f i EterLib:TextFileLoader.obj
 0001:0003e060       ??$_Copy_memmove@PAPAVCGraphicThing@@PAPAV1@@std@@YAPAPAVCGraphicThing@@PAPAV1@00@Z 0043f060 f i GameLib:ItemData.obj
 0001:0003e060       ??$_Copy_memmove@PAPAVCLight@@PAPAV1@@std@@YAPAPAVCLight@@PAPAV1@00@Z 0043f060 f i EterLib:GrpLightManager.obj
 0001:0003e060       ??$_Copy_memmove@PAUSItem@SHeightCache@CMapOutdoor@@PAU123@@std@@YAPAUSItem@SHeightCache@CMapOutdoor@@PAU123@00@Z 0043f060 f i GameLib:MapOutdoor.obj
 0001:0003e060       ??$_Copy_memmove@PAPAVCEffectInstance@@PAPAV1@@std@@YAPAPAVCEffectInstance@@PAPAV1@00@Z 0043f060 f i EffectLib:EffectManager.obj
 0001:0003e060       ??$_Copy_memmove@PAPAUSAttachingObjectData@NRaceData@@PAPAU12@@std@@YAPAPAUSAttachingObjectData@NRaceData@@PAPAU12@00@Z 0043f060 f i GameLib:GameType.obj
 0001:0003e060       ??$_Copy_memmove@PAPAVCEffectData@@PAPAV1@@std@@YAPAPAVCEffectData@@PAPAV1@00@Z 0043f060 f i EffectLib:EffectData.obj
 0001:0003e060       ??$_Copy_memmove@PAPAVCDungeonBlock@@PAPAV1@@std@@YAPAPAVCDungeonBlock@@PAPAV1@00@Z 0043f060 f i GameLib:Area.obj
 0001:0003e060       ??$_Copy_memmove@PAUSProvider@@PAU1@@std@@YAPAUSProvider@@PAU1@00@Z 0043f060 f i MilesLib:SoundManager3D.obj
 0001:0003e060       ??$_Copy_memmove@PAPAV?$CTimeEventDecorator@UDWORDCOLOR@@@NEffectUpdateDecorator@@PAPAV12@@std@@YAPAPAV?$CTimeEventDecorator@UDWORDCOLOR@@@NEffectUpdateDecorator@@PAPAV12@00@Z 0043f060 f i EffectLib:ParticleSystemData.obj
 0001:0003e060       ??$_Copy_memmove@PAPAVCGraphicObjectInstance@@PAPAV1@@std@@YAPAPAVCGraphicObjectInstance@@PAPAV1@00@Z 0043f060 f i EterLib:CullingManager.obj
 0001:0003e060       ??$_Copy_memmove@PAPAVCRaceMotionData@@PAPAV1@@std@@YAPAPAVCRaceMotionData@@PAPAV1@00@Z 0043f060 f i GameLib:RaceMotionData.obj
 0001:0003e060       ??$_Copy_memmove@PAPAUSCollisionData@NRaceData@@PAPAU12@@std@@YAPAPAUSCollisionData@NRaceData@@PAPAU12@00@Z 0043f060 f i GameLib:GameType.obj
 0001:0003e060       ??$_Copy_memmove@PAPAUSEffectMeshData@CEffectMesh@@PAPAU12@@std@@YAPAPAUSEffectMeshData@CEffectMesh@@PAPAU12@00@Z 0043f060 f i EffectLib:EffectMesh.obj
 0001:0003e060       ??$_Copy_memmove@PAPAUSReservingMotionNode@CActorInstance@@PAPAU12@@std@@YAPAPAUSReservingMotionNode@CActorInstance@@PAPAU12@00@Z 0043f060 f i GameLib:ActorInstanceMotion.obj
 0001:0003e060       ??$_Copy_memmove@PAPAVCFlyingInstance@@PAPAV1@@std@@YAPAPAVCFlyingInstance@@PAPAV1@00@Z 0043f060 f i GameLib:FlyingObjectManager.obj
 0001:0003e060       ??$_Copy_memmove@PAPAVCNullDecorator@NEffectUpdateDecorator@@PAPAV12@@std@@YAPAPAVCNullDecorator@NEffectUpdateDecorator@@PAPAV12@00@Z 0043f060 f i EffectLib:ParticleSystemData.obj
 0001:0003e060       ??$_Copy_memmove@PAPAVCFlyTarget@@PAPAV1@@std@@YAPAPAVCFlyTarget@@PAPAV1@00@Z 0043f060 f i GameLib:ActorInstanceFly.obj
 0001:0003e060       ??$_Copy_memmove@PAPAVCEffectMeshScript@@PAPAV1@@std@@YAPAPAVCEffectMeshScript@@PAPAV1@00@Z 0043f060 f i EffectLib:EffectData.obj
 0001:0003e060       ??$_Copy_memmove@PAPAVCRaceData@@PAPAV1@@std@@YAPAPAVCRaceData@@PAPAV1@00@Z 0043f060 f i GameLib:RaceData.obj
 0001:0003e060       ??$_Copy_memmove@PAPAV?$CTimeEventDecorator@M@NEffectUpdateDecorator@@PAPAV12@@std@@YAPAPAV?$CTimeEventDecorator@M@NEffectUpdateDecorator@@PAPAV12@00@Z 0043f060 f i EffectLib:ParticleSystemData.obj
 0001:0003e060       ??$_Copy_memmove@PAPAVCParticleInstance@@PAPAV1@@std@@YAPAPAVCParticleInstance@@PAPAV1@00@Z 0043f060 f i EffectLib:ParticleInstance.obj
 0001:0003e060       ??$_Copy_memmove@PAPAVCOBBCollisionInstance@@PAPAV1@@std@@YAPAPAVCOBBCollisionInstance@@PAPAV1@00@Z 0043f060 f i EterLib:CollisionData.obj
 0001:0003e060       ??$_Copy_memmove@PAPAUSState@CPythonGraphic@@PAPAU12@@std@@YAPAPAUSState@CPythonGraphic@@PAPAU12@00@Z 0043f060 f i EterPythonLib:PythonGraphic.obj
 0001:0003e060       ??$_Copy_memmove@PAPAVCTerrain@@PAPAV1@@std@@YAPAPAVCTerrain@@PAPAV1@00@Z 0043f060 f i GameLib:MapOutdoor.obj
 0001:0003e060       ??$_Copy_memmove@PAPAVCCylinderCollisionInstance@@PAPAV1@@std@@YAPAPAVCCylinderCollisionInstance@@PAPAV1@00@Z 0043f060 f i EterLib:CollisionData.obj
 0001:0003e060       ??$_Copy_memmove@PAPAVCGraphicMarkInstance@@PAPAV1@@std@@YAPAPAVCGraphicMarkInstance@@PAPAV1@00@Z 0043f060 f i EterLib:GrpMarkInstance.obj
 0001:0003e060       ??$_Copy_memmove@PAKPAK@std@@YAPAKPAK00@Z 0043f060 f i GuildMarkDownloader.obj
 0001:0003e060       ??$_Copy_memmove@PAPAVCSymTable@@PAPAV1@@std@@YAPAPAVCSymTable@@PAPAV1@00@Z 0043f060 f i EterBase:Poly.obj
 0001:0003e060       ??$_Copy_memmove@PAPAVCGraphicExpandedImageInstance@@PAPAV1@@std@@YAPAPAVCGraphicExpandedImageInstance@@PAPAV1@00@Z 0043f060 f i EterLib:GrpExpandedImageInstance.obj
 0001:0003e060       ??$_Copy_memmove@PAPAVCGraphicImage@@PAPAV1@@std@@YAPAPAVCGraphicImage@@PAPAV1@00@Z 0043f060 f i EffectLib:EffectMesh.obj
 0001:0003e060       ??$_Copy_memmove@PAPAVCTextureAnimationCWDecorator@NEffectUpdateDecorator@@PAPAV12@@std@@YAPAPAVCTextureAnimationCWDecorator@NEffectUpdateDecorator@@PAPAV12@00@Z 0043f060 f i EffectLib:ParticleSystemData.obj
 0001:0003e060       ??$_Copy_memmove@PAPAVCItemData@@PAPAV1@@std@@YAPAPAVCItemData@@PAPAV1@00@Z 0043f060 f i GameLib:ItemManager.obj
 0001:0003e060       ??$_Copy_memmove@PAHPAH@std@@YAPAHPAH00@Z 0043f060 f i PythonChat.obj
 0001:0003e060       ??$_Copy_memmove@PAPAVCDungeonModelInstance@@PAPAV1@@std@@YAPAPAVCDungeonModelInstance@@PAPAV1@00@Z 0043f060 f i GameLib:DungeonBlock.obj
 0001:0003e060       ??$_Copy_memmove@PAPAVCMonsterAreaInfo@@PAPAV1@@std@@YAPAPAVCMonsterAreaInfo@@PAPAV1@00@Z 0043f060 f i GameLib:MapOutdoor.obj
 0001:0003e060       ??$_Copy_memmove@PAPAVCGraphicTextInstance@@PAPAV1@@std@@YAPAPAVCGraphicTextInstance@@PAPAV1@00@Z 0043f060 f i PythonEventManager.obj
 0001:0003e060       ??$_Copy_memmove@PA_WPA_W@std@@YAPA_WPA_W00@Z 0043f060 f i EterLib:IME.obj
 0001:0003e060       ??$_Copy_memmove@PAPAVCFlyTrace@@PAPAV1@@std@@YAPAPAVCFlyTrace@@PAPAV1@00@Z 0043f060 f i GameLib:FlyTrace.obj
 0001:0003e060       ??$_Copy_memmove@PAPAVCGraphicImageInstance@@PAPAV1@@std@@YAPAPAVCGraphicImageInstance@@PAPAV1@00@Z 0043f060 f i EffectLib:EffectMeshInstance.obj
 0001:0003e060       ??$_Copy_memmove@PAPAVCEffectMeshInstance@@PAPAV1@@std@@YAPAPAVCEffectMeshInstance@@PAPAV1@00@Z 0043f060 f i EffectLib:EffectInstance.obj
 0001:0003e060       ??$_Copy_memmove@PAPAVCGraphicImageTexture@@PAPAV1@@std@@YAPAPAVCGraphicImageTexture@@PAPAV1@00@Z 0043f060 f i EterLib:GrpFontTexture.obj
 0001:0003e060       ??$_Copy_memmove@PAPAVCParticleSystemData@@PAPAV1@@std@@YAPAPAVCParticleSystemData@@PAPAV1@00@Z 0043f060 f i EffectLib:ParticleSystemData.obj
 0001:0003e060       ??$_Copy_memmove@PAPAVCAirResistanceDecorator@NEffectUpdateDecorator@@PAPAV12@@std@@YAPAPAVCAirResistanceDecorator@NEffectUpdateDecorator@@PAPAV12@00@Z 0043f060 f i EffectLib:ParticleSystemData.obj
 0001:0003e060       ??$_Copy_memmove@PAPAVCAABBCollisionInstance@@PAPAV1@@std@@YAPAPAVCAABBCollisionInstance@@PAPAV1@00@Z 0043f060 f i EterLib:CollisionData.obj
 0001:0003e060       ??$_Copy_memmove@PAPAVCPlaneCollisionInstance@@PAPAV1@@std@@YAPAPAVCPlaneCollisionInstance@@PAPAV1@00@Z 0043f060 f i EterLib:CollisionData.obj
 0001:0003e090       ??0_D3DXMATRIXA16@@QAE@XZ  0043f090 f i d3dx8:d3dxmath.obj
 0001:0003e090       ??0?$NeighborInfo@I@@QAE@XZ 0043f090 f i d3dx8:createmesh.obj
 0001:0003e090       ?_Getal@?$vector@VCSkyObjectQuad@@V?$allocator@VCSkyObjectQuad@@@std@@@std@@AAEAAV?$allocator@VCSkyObjectQuad@@@2@XZ 0043f090 f i EterLib:SkyBox.obj
 0001:0003e090       ??$_Const_cast@$$CBUTSignalPoint@CPythonMiniMap@@@std@@YA@PBUTSignalPoint@CPythonMiniMap@@@Z 0043f090 f i PythonMiniMap.obj
 0001:0003e090       ??0SVertexHashEntry@@QAE@XZ 0043f090 f i d3dx8:createmesh.obj
 0001:0003e090       ?_Getal@?$_Tree@V?$_Tset_traits@HU?$less@H@std@@V?$allocator@H@2@$0A@@std@@@std@@IAEAAV?$allocator@U?$_Tree_node@HPAX@std@@@2@XZ 0043f090 f i PythonBackground.obj
 0001:0003e090       ?_Getal@?$vector@USTextureInstance@CEffectMeshInstance@@V?$allocator@USTextureInstance@CEffectMeshInstance@@@std@@@std@@AAEAAV?$allocator@USTextureInstance@CEffectMeshInstance@@@2@XZ 0043f090 f i EffectLib:EffectMeshInstance.obj
 0001:0003e090       ??0CSnowParticle@@QAE@XZ   0043f090 f i GameLib:SnowParticle.obj
 0001:0003e090       ??$_Refancy@PAUSQuestInstance@CPythonQuest@@$0A@@std@@YAPAUSQuestInstance@CPythonQuest@@PAU12@@Z 0043f090 f i PythonQuest.obj
 0001:0003e090       ??0D3D_CDeviceInfo@@QAE@XZ 0043f090 f i EterLib:GrpDetector.obj
 0001:0003e090       ??0D3DXCOLOR@@QAE@XZ       0043f090 f i InstanceBaseEffect.obj
 0001:0003e090       ?_Getal@?$_Tree@V?$_Tmap_traits@PAVCActorInstance@@MU?$less@PAVCActorInstance@@@std@@V?$allocator@U?$pair@QAVCActorInstance@@M@std@@@3@$0A@@std@@@std@@IAEAAV?$allocator@U?$_Tree_node@U?$pair@QAVCActorInstance@@M@std@@PAX@std@@@2@XZ 0043f090 f i GameLib:ActorInstanceCollisionDetection.obj
 0001:0003e090       ??$_Refancy@PAPAVCInstanceBase@@$0A@@std@@YAPAPAVCInstanceBase@@PAPAV1@@Z 0043f090 f i PythonCharacterManager.obj
 0001:0003e090       ?_Getal@?$_Tree@V?$_Tmap_traits@MUCDynamicSphereInstance@@U?$less@M@std@@V?$allocator@U?$pair@$$CBMUCDynamicSphereInstance@@@std@@@3@$0A@@std@@@std@@IAEAAV?$allocator@U?$_Tree_node@U?$pair@$$CBMUCDynamicSphereInstance@@@std@@PAX@std@@@2@XZ 0043f090 f i GameLib:GameType.obj
 0001:0003e090       ?_Getal@?$vector@USTerrainTexture@@V?$allocator@USTerrainTexture@@@std@@@std@@AAEAAV?$allocator@USTerrainTexture@@@2@XZ 0043f090 f i PRTerrainLib:TextureSet.obj
 0001:0003e090       ?GetCurColor@CColorTransitionHelper@@QAEABKXZ 0043f090 f i EterLib:ColorTransitionHelper.obj
 0001:0003e090       ??0?$NeighborInfo@G@@QAE@XZ 0043f090 f i d3dx8:createmesh.obj
 0001:0003e090       ??$_Refancy@PAUSGuildMemberData@CPythonGuild@@$0A@@std@@YAPAUSGuildMemberData@CPythonGuild@@PAU12@@Z 0043f090 f i PythonGuild.obj
 0001:0003e090       ??$_Refancy@PAK$0A@@std@@YAPAKPAK@Z 0043f090 f i GuildMarkDownloader.obj
 0001:0003e090       ??$_Refancy@PAUTMapInfo@CMapManager@@$0A@@std@@YAPAUTMapInfo@CMapManager@@PAU12@@Z 0043f090 f i PythonBackground.obj
 0001:0003e090       ?_Getal@?$vector@V?$list@PAVCParticleInstance@@V?$allocator@PAVCParticleInstance@@@std@@@std@@V?$allocator@V?$list@PAVCParticleInstance@@V?$allocator@PAVCParticleInstance@@@std@@@std@@@2@@std@@AAEAAV?$allocator@V?$list@PAVCParticleInstance@@V?$allocator@PAVCParticleInstance@@@std@@@std@@@2@XZ 0043f090 f i EffectLib:ParticleSystemInstance.obj
 0001:0003e093       ??_ECGuildMarkDownloader@@WIM@AEPAXI@Z 0043f093 f i GuildMarkDownloader.obj
 0001:0003e0a0       ??0CGuildMarkUploader@@QAE@XZ 0043f0a0 f   GuildMarkUploader.obj
 0001:0003e140       ??_GCGuildMarkUploader@@UAEPAXI@Z 0043f140 f i GuildMarkUploader.obj
 0001:0003e140       ??_ECGuildMarkUploader@@UAEPAXI@Z 0043f140 f i * CIL library *:* CIL module *
 0001:0003e170       ??1CGuildMarkUploader@@UAE@XZ 0043f170 f   GuildMarkUploader.obj
 0001:0003e1b0       ?OnRemoteDisconnect@CGuildMarkUploader@@EAEXXZ 0043f1b0 f   GuildMarkUploader.obj
 0001:0003e1b0       ?OnDisconnect@CGuildMarkUploader@@EAEXXZ 0043f1b0 f   GuildMarkUploader.obj
 0001:0003e1b0       ?OnConnectFailure@CGuildMarkUploader@@EAEXXZ 0043f1b0 f   GuildMarkUploader.obj
 0001:0003e1b0       ?Disconnect@CGuildMarkUploader@@QAEXXZ 0043f1b0 f   GuildMarkUploader.obj
 0001:0003e1c0       ?__Load@CGuildMarkUploader@@AAE_NPBDPAI@Z 0043f1c0 f   GuildMarkUploader.obj
 0001:0003e2a0       ?__LoadSymbol@CGuildMarkUploader@@AAE_NPBDPAI@Z 0043f2a0 f   GuildMarkUploader.obj
 0001:0003e3d0       ?Connect@CGuildMarkUploader@@QAE_NABVCNetworkAddress@@KKKPBDPAI@Z 0043f3d0 f   GuildMarkUploader.obj
 0001:0003e450       ?ConnectToSendSymbol@CGuildMarkUploader@@QAE_NABVCNetworkAddress@@KKKPBDPAI@Z 0043f450 f   GuildMarkUploader.obj
 0001:0003e4d0       ?Process@CGuildMarkUploader@@QAEXXZ 0043f4d0 f   GuildMarkUploader.obj
 0001:0003e500       ?OnConnectSuccess@CGuildMarkUploader@@EAEXXZ 0043f500 f   GuildMarkUploader.obj
 0001:0003e510       ?__Inialize@CGuildMarkUploader@@AAEXXZ 0043f510 f   GuildMarkUploader.obj
 0001:0003e570       ?__StateProcess@CGuildMarkUploader@@AAE_NXZ 0043f570 f   GuildMarkUploader.obj
 0001:0003e590       ?__OfflineState_Set@CGuildMarkUploader@@AAEXXZ 0043f590 f   GuildMarkUploader.obj
 0001:0003e5a0       ?__CompleteState_Set@CGuildMarkUploader@@AAEXXZ 0043f5a0 f   GuildMarkUploader.obj
 0001:0003e5b0       ?__LoginState_Process@CGuildMarkUploader@@AAE_NXZ 0043f5b0 f   GuildMarkUploader.obj
 0001:0003e610       ?__SendMarkPacket@CGuildMarkUploader@@AAE_NXZ 0043f610 f   GuildMarkUploader.obj
 0001:0003e680       ?__SendSymbolPacket@CGuildMarkUploader@@AAE_NXZ 0043f680 f   GuildMarkUploader.obj
 0001:0003e6f0       ?__LoginState_RecvPhase@CGuildMarkUploader@@AAE_NXZ 0043f6f0 f   GuildMarkUploader.obj
 0001:0003e750       ?__LoginState_RecvHandshake@CGuildMarkUploader@@AAE_NXZ 0043f750 f   GuildMarkUploader.obj
 0001:0003e7c0       ??1?$CSingleton@VCGuildMarkUploader@@@@UAE@XZ 0043f7c0 f i GuildMarkUploader.obj
 0001:0003e7e0       ??_E?$CSingleton@VCGuildMarkUploader@@@@UAEPAXI@Z 0043f7e0 f i * CIL library *:* CIL module *
 0001:0003e7e0       ??_G?$CSingleton@VCGuildMarkUploader@@@@UAEPAXI@Z 0043f7e0 f i GuildMarkUploader.obj
 0001:0003e80e       ??_ECGuildMarkUploader@@WIM@AEPAXI@Z 0043f80e f i GuildMarkUploader.obj
 0001:0003e820       ?IsWall@@YA_NI@Z           0043f820 f   InstanceBase.obj
 0001:0003e830       ??0SHORSE@CInstanceBase@@QAE@XZ 0043f830 f   InstanceBase.obj
 0001:0003e840       ?__Initialize@SHORSE@CInstanceBase@@QAEXXZ 0043f840 f   InstanceBase.obj
 0001:0003e850       ?SetAttackSpeed@SHORSE@CInstanceBase@@QAEXI@Z 0043f850 f   InstanceBase.obj
 0001:0003e8a0       ?SetMoveSpeed@SHORSE@CInstanceBase@@QAEXI@Z 0043f8a0 f   InstanceBase.obj
 0001:0003e8f0       ?Create@SHORSE@CInstanceBase@@QAEXABUD3DXVECTOR3@@II@Z 0043f8f0 f   InstanceBase.obj
 0001:0003ea30       ?Destroy@SHORSE@CInstanceBase@@QAEXXZ 0043fa30 f   InstanceBase.obj
 0001:0003ea60       ?GetWorkMemory@CLZO@@QAEPAEXZ 0043fa60 f   EterBase:lzo.obj
 0001:0003ea60       ?GetGrannyAnimationPointer@CGrannyMotion@@QBEPAUgranny_animation@@XZ 0043fa60 f   EterGrnLib:Motion.obj
 0001:0003ea60       ?GetType@CRaceMotionData@@QBEIXZ 0043fa60 f   GameLib:RaceMotionData.obj
 0001:0003ea60       ?GetActorPtr@SHORSE@CInstanceBase@@QAEPAVCActorInstance@@XZ 0043fa60 f   InstanceBase.obj
 0001:0003ea60       ?GetActorRef@SHORSE@CInstanceBase@@QAEAAVCActorInstance@@XZ 0043fa60 f   InstanceBase.obj
 0001:0003ea60       ?GetWindowHandle@CMSWindow@@QAEPAUHWND__@@XZ 0043fa60 f   EterLib:MSWindow.obj
 0001:0003ea60       ?IsOpen@CPythonShop@@QAEHXZ 0043fa60 f   PythonShop.obj
 0001:0003ea60       ?GetD3DIndexBuffer@CGraphicIndexBuffer@@QBEPAUIDirect3DIndexBuffer8@@XZ 0043fa60 f   EterLib:GrpIndexBuffer.obj
 0001:0003ea60       ?GetDCHandle@CGraphicDib@@QAEPAUHDC__@@XZ 0043fa60 f   EterLib:GrpDIB.obj
 0001:0003ea60       ?GetGuildID@CPythonGuild@@QAEKXZ 0043fa60 f   PythonGuild.obj
 0001:0003ea70       ?GetLevel@SHORSE@CInstanceBase@@QAEIXZ 0043fa70 f   InstanceBase.obj
 0001:0003eb80       ?IsNewMount@SHORSE@CInstanceBase@@QAE_NXZ 0043fb80 f   InstanceBase.obj
 0001:0003ebe0       ?CanUseSkill@SHORSE@CInstanceBase@@QAE_NXZ 0043fbe0 f   InstanceBase.obj
 0001:0003ec00       ?CanAttack@SHORSE@CInstanceBase@@QAE_NXZ 0043fc00 f   InstanceBase.obj
 0001:0003ec20       ?IsActivate@CSnowParticle@@QAE_NXZ 0043fc20 f   GameLib:SnowParticle.obj
 0001:0003ec20       ?GetType@SSkillData@CPythonSkill@@QBEEXZ 0043fc20 f   PythonSkill.obj
 0001:0003ec20       ?IsMounting@SHORSE@CInstanceBase@@QAE_NXZ 0043fc20 f   InstanceBase.obj
 0001:0003ec30       ?Deform@SHORSE@CInstanceBase@@QAEXXZ 0043fc30 f   InstanceBase.obj
 0001:0003ec50       ?Render@SHORSE@CInstanceBase@@QAEXXZ 0043fc50 f   InstanceBase.obj
 0001:0003ec70       ?__AttachHorseSaddle@CInstanceBase@@IAEXXZ 0043fc70 f   InstanceBase.obj
 0001:0003eca0       ?__DetachHorseSaddle@CInstanceBase@@IAEXXZ 0043fca0 f   InstanceBase.obj
 0001:0003ecc0       ?BlockMovement@CInstanceBase@@QAEXXZ 0043fcc0 f   InstanceBase.obj
 0001:0003ecd0       ?IsBlockObject@CInstanceBase@@QAE_NABVCGraphicObjectInstance@@@Z 0043fcd0 f   InstanceBase.obj
 0001:0003ece0       ?AvoidObject@CInstanceBase@@QAE_NABVCGraphicObjectInstance@@@Z 0043fce0 f   InstanceBase.obj
 0001:0003ecf0       ?__ArmorVnumToShape@@YA_NHPAK@Z 0043fcf0 f   InstanceBase.obj
 0001:0003ed40       ?IsBlock@CActorInstanceBackground@@UAE_NHH@Z 0043fd40 f i InstanceBase.obj
 0001:0003ed60       ??_ECActorInstanceBackground@@UAEPAXI@Z 0043fd60 f i * CIL library *:* CIL module *
 0001:0003ed60       ??_GCActorInstanceBackground@@UAEPAXI@Z 0043fd60 f i InstanceBase.obj
 0001:0003ed60       ??_E?$CSingleton@VIBackground@@@@UAEPAXI@Z 0043fd60 f i * CIL library *:* CIL module *
 0001:0003ed60       ??_G?$CSingleton@VIBackground@@@@UAEPAXI@Z 0043fd60 f i InstanceBase.obj
 0001:0003ed90       ?LessRenderOrder@CInstanceBase@@QAE_NPAV1@@Z 0043fd90 f   InstanceBase.obj
 0001:0003ee50       ?__LessRenderOrder_GetLODLevel@CInstanceBase@@IAEIXZ 0043fe50 f   InstanceBase.obj
 0001:0003ee70       ?__Background_GetWaterHeight@CInstanceBase@@QAE_NABUD3DXVECTOR3@@PAM@Z 0043fe70 f   InstanceBase.obj
 0001:0003eec0       ?__Background_IsWaterPixelPosition@CInstanceBase@@QAE_NABUD3DXVECTOR3@@@Z 0043fec0 f   InstanceBase.obj
 0001:0003eef0       ?__IsInDustRange@CInstanceBase@@IAE_NXZ 0043fef0 f   InstanceBase.obj
 0001:0003ef50       ?__EnableSkipCollision@CInstanceBase@@IAEXXZ 0043ff50 f   InstanceBase.obj
 0001:0003ef80       ?__DisableSkipCollision@CInstanceBase@@IAEXXZ 0043ff80 f   InstanceBase.obj
 0001:0003ef90       ?__GetShadowMapColor@CInstanceBase@@KAKMM@Z 0043ff90 f   InstanceBase.obj
 0001:0003efb0       ?__GetBackgroundHeight@CInstanceBase@@KAMMM@Z 0043ffb0 f   InstanceBase.obj
 0001:0003efe0       ?IsInvisibility@CInstanceBase@@QAEHXZ 0043ffe0 f   InstanceBase.obj
 0001:0003f000       ?IsGameMaster@CInstanceBase@@QAEHXZ 00440000 f   InstanceBase.obj
 0001:0003f020       ?IsSameEmpire@CInstanceBase@@QAEHAAV1@@Z 00440020 f   InstanceBase.obj
 0001:0003f060       ?GetEmpireID@CInstanceBase@@QAEKXZ 00440060 f   InstanceBase.obj
 0001:0003f060       ?GetAttachingIndex@CWindowManager@UI@@QAEKXZ 00440060 f   EterPythonLib:PythonWindowManager.obj
 0001:0003f060       ?GetPointer@CGraphicDib@@QAEPAXXZ 00440060 f   EterLib:GrpDIB.obj
 0001:0003f070       ?GetAttachingSlotNumber@CWindowManager@UI@@QAEKXZ 00440070 f   EterPythonLib:PythonWindowManager.obj
 0001:0003f070       ?GetGuildID@CInstanceBase@@QAEKXZ 00440070 f   InstanceBase.obj
 0001:0003f080       ?GetAlignment@CInstanceBase@@QAEHXZ 00440080 f   InstanceBase.obj
 0001:0003f090       ?GetAlignmentGrade@CInstanceBase@@QAEIXZ 00440090 f   InstanceBase.obj
 0001:0003f110       ?GetAlignmentType@CInstanceBase@@QAEHXZ 00440110 f   InstanceBase.obj
 0001:0003f150       ?GetPKMode@CInstanceBase@@QAEEXZ 00440150 f   InstanceBase.obj
 0001:0003f160       ?IsKiller@CInstanceBase@@QAE_NXZ 00440160 f   InstanceBase.obj
 0001:0003f170       ?IsAtlas@CPythonMiniMap@@QAE_NXZ 00440170 f   PythonMiniMap.obj
 0001:0003f170       ?IsPartyMember@CInstanceBase@@QAE_NXZ 00440170 f   InstanceBase.obj
 0001:0003f180       ?IsInSafe@CInstanceBase@@QAEHXZ 00440180 f   InstanceBase.obj
 0001:0003f1c0       ?CalculateDistanceSq3d@CInstanceBase@@QAEMABUD3DXVECTOR3@@@Z 004401c0 f   InstanceBase.obj
 0001:0003f1f0       ?OnSelected@CInstanceBase@@QAEXXZ 004401f0 f   InstanceBase.obj
 0001:0003f220       ?OnUnselected@CInstanceBase@@QAEXXZ 00440220 f   InstanceBase.obj
 0001:0003f230       ?OnTargeted@CInstanceBase@@QAEXXZ 00440230 f   InstanceBase.obj
 0001:0003f260       ?OnUntargeted@CInstanceBase@@QAEXXZ 00440260 f   InstanceBase.obj
 0001:0003f270       ?DestroySystem@CInstanceBase@@SAXXZ 00440270 f   InstanceBase.obj
 0001:0003f2c0       ?New@CInstanceBase@@SAPAV1@XZ 004402c0 f   InstanceBase.obj
 0001:0003f390       ?Delete@CInstanceBase@@SAXPAV1@@Z 00440390 f   InstanceBase.obj
 0001:0003f3d0       ?SetMainInstance@CInstanceBase@@QAEXXZ 004403d0 f   InstanceBase.obj
 0001:0003f400       ?__GetMainInstancePtr@CInstanceBase@@IAEPAV1@XZ 00440400 f   InstanceBase.obj
 0001:0003f410       ?__ClearMainInstance@CInstanceBase@@IAEXXZ 00440410 f   InstanceBase.obj
 0001:0003f420       ?__IsMainInstance@CInstanceBase@@IAE_NXZ 00440420 f   InstanceBase.obj
 0001:0003f430       ?__IsExistMainInstance@CInstanceBase@@IAE_NXZ 00440430 f   InstanceBase.obj
 0001:0003f440       ?LocaleService_LoadGlobal@@YA_NPAUHINSTANCE__@@@Z 00440440 f   Locale.obj
 0001:0003f440       ?do_always_noconv@?$codecvt@_WDU_Mbstatet@@@std@@MBE_NXZ 00440440 f   EterPack:EterPack.obj
 0001:0003f440       ?__IsNotPing@CPythonNetworkStream@@IAE_NXZ 00440440 f   PythonNetworkStream.obj
 0001:0003f440       ?__MainCanSeeHiddenThing@CInstanceBase@@IAE_NXZ 00440440 f   InstanceBase.obj
 0001:0003f450       ?__GetBowRange@CInstanceBase@@IAEMXZ 00440450 f   InstanceBase.obj
 0001:0003f480       ?__FindRaceType@CInstanceBase@@IAE_NKPAE@Z 00440480 f   InstanceBase.obj
 0001:0003f490       ?Create@CInstanceBase@@QAE_NABUSCreateData@1@@Z 00440490 f   InstanceBase.obj
 0001:0003f890       ?__Create_SetName@CInstanceBase@@IAEXABUSCreateData@1@@Z 00440890 f   InstanceBase.obj
 0001:0003f8f0       ?__Create_SetWarpName@CInstanceBase@@IAEXABUSCreateData@1@@Z 004408f0 f   InstanceBase.obj
 0001:0003fa10       ?SetNameString@CInstanceBase@@QAEXPBDH@Z 00440a10 f   InstanceBase.obj
 0001:0003fa60       ?SetRace@CInstanceBase@@QAE_NK@Z 00440a60 f   InstanceBase.obj
 0001:0003fab0       ?__IsChangableWeapon@CInstanceBase@@IAEHH@Z 00440ab0 f   InstanceBase.obj
 0001:0003fb20       ?IsWearingDress@CInstanceBase@@QAEHXZ 00440b20 f   InstanceBase.obj
 0001:0003fb30       ?IsHoldingPickAxe@CInstanceBase@@QAEHXZ 00440b30 f   InstanceBase.obj
 0001:0003fb50       ?IsNewMount@CInstanceBase@@QAEHXZ 00440b50 f   InstanceBase.obj
 0001:0003fb60       ?IsMountingHorse@CInstanceBase@@QAEHXZ 00440b60 f   InstanceBase.obj
 0001:0003fb70       ?MountHorse@CInstanceBase@@QAEXI@Z 00440b70 f   InstanceBase.obj
 0001:0003fbf0       ?DismountHorse@CInstanceBase@@QAEXXZ 00440bf0 f   InstanceBase.obj
 0001:0003fc00       ?GetInfo@CInstanceBase@@SAXPAV?$basic_string@DU?$char_traits@D@std@@V?$allocator@D@2@@std@@@Z 00440c00 f   InstanceBase.obj
 0001:0003fc80       ?ResetPerformanceCounter@CInstanceBase@@SAXXZ 00440c80 f   InstanceBase.obj
 0001:0003fca0       ?NEW_SetDstPixelPositionZ@CInstanceBase@@IAEXM@Z 00440ca0 f   InstanceBase.obj
 0001:0003fcc0       ?NEW_SetDstPixelPosition@CInstanceBase@@IAEXABUD3DXVECTOR3@@@Z 00440cc0 f   InstanceBase.obj
 0001:0003fcd0       ?NEW_SetSrcPixelPosition@CInstanceBase@@IAEXABUD3DXVECTOR3@@@Z 00440cd0 f   InstanceBase.obj
 0001:0003fce0       ?NEW_GetCurPixelPositionRef@CInstanceBase@@IAEABUD3DXVECTOR3@@XZ 00440ce0 f   InstanceBase.obj
 0001:0003fcf0       ?NEW_GetDstPixelPositionRef@CInstanceBase@@QAEABUD3DXVECTOR3@@XZ 00440cf0 f   InstanceBase.obj
 0001:0003fd00       ?NEW_GetSrcPixelPositionRef@CInstanceBase@@IAEABUD3DXVECTOR3@@XZ 00440d00 f   InstanceBase.obj
 0001:0003fd10       ?OnWaiting@CInstanceBase@@IAEXXZ 00440d10 f   InstanceBase.obj
 0001:0003fd20       ?OnMoving@CInstanceBase@@IAEXXZ 00440d20 f   InstanceBase.obj
 0001:0003fd30       ?ChangeGuild@CInstanceBase@@QAEXK@Z 00440d30 f   InstanceBase.obj
 0001:0003fd60       ?GetPart@CInstanceBase@@QAEKW4EParts@CRaceData@@@Z 00440d60 f   InstanceBase.obj
 0001:0003fd70       ?GetShape@CInstanceBase@@QAEKXZ 00440d70 f   InstanceBase.obj
 0001:0003fd80       ?CanAct@CInstanceBase@@QAE_NXZ 00440d80 f   InstanceBase.obj
 0001:0003fd90       ?CanMove@CInstanceBase@@QAE_NXZ 00440d90 f   InstanceBase.obj
 0001:0003fda0       ?CanUseSkill@CInstanceBase@@QAE_NXZ 00440da0 f   InstanceBase.obj
 0001:0003fdf0       ?CanAttack@CInstanceBase@@QAE_NXZ 00440df0 f   InstanceBase.obj
 0001:0003fe30       ?CanFishing@CInstanceBase@@QAE_NXZ 00440e30 f   InstanceBase.obj
 0001:0003fe40       ?IsBowMode@CInstanceBase@@QAEHXZ 00440e40 f   InstanceBase.obj
 0001:0003fe50       ?IsHandMode@CInstanceBase@@QAEHXZ 00440e50 f   InstanceBase.obj
 0001:0003fe60       ?IsFishingMode@CInstanceBase@@QAEHXZ 00440e60 f   InstanceBase.obj
 0001:0003fe80       ?IsFishing@CInstanceBase@@QAEHXZ 00440e80 f   InstanceBase.obj
 0001:0003fe90       ?IsDead@CInstanceBase@@QAEHXZ 00440e90 f   InstanceBase.obj
 0001:0003fea0       ?IsStun@CInstanceBase@@QAEHXZ 00440ea0 f   InstanceBase.obj
 0001:0003feb0       ?IsSleep@CInstanceBase@@QAEHXZ 00440eb0 f   InstanceBase.obj
 0001:0003fec0       ?__IsSyncing@CInstanceBase@@QAEHXZ 00440ec0 f   InstanceBase.obj
 0001:0003fed0       ?NEW_SetOwner@CInstanceBase@@QAEXK@Z 00440ed0 f   InstanceBase.obj
 0001:0003fee0       ?PushTCPStateExpanded@CInstanceBase@@QAEXKABUD3DXVECTOR3@@MIII@Z 00440ee0 f   InstanceBase.obj
 0001:0003ff50       ?PushTCPState@CInstanceBase@@QAEXKABUD3DXVECTOR3@@MII@Z 00440f50 f   InstanceBase.obj
 0001:00040020       ?__CanProcessNetworkStatePacket@CInstanceBase@@IAEHXZ 00441020 f   InstanceBase.obj
 0001:00040060       ?__IsEnableTCPProcess@CInstanceBase@@IAEHI@Z 00441060 f   InstanceBase.obj
 0001:000400a0       ?StateProcess@CInstanceBase@@IAEXXZ 004410a0 f   InstanceBase.obj
 0001:00040640       ?MovementProcess@CInstanceBase@@IAEXXZ 00441640 f   InstanceBase.obj
 0001:00040df0       ?__ProcessFunctionEmotion@CInstanceBase@@IAEXKKABUD3DXVECTOR3@@@Z 00441df0 f   InstanceBase.obj
 0001:00040f90       ?Update@CInstanceBase@@QAEXXZ 00441f90 f   InstanceBase.obj
 0001:00041080       ?Transform@CInstanceBase@@QAEXXZ 00442080 f   InstanceBase.obj
 0001:00041100       ?Deform@CInstanceBase@@QAEXXZ 00442100 f   InstanceBase.obj
 0001:00041130       ?RenderTrace@CInstanceBase@@QAEXXZ 00442130 f   InstanceBase.obj
 0001:00041150       ?Render@CInstanceBase@@QAEXXZ 00442150 f   InstanceBase.obj
 0001:000413a0       ?RenderToShadowMap@CInstanceBase@@QAEXXZ 004423a0 f   InstanceBase.obj
 0001:000413f0       ?RenderCollision@CInstanceBase@@QAEXXZ 004423f0 f   InstanceBase.obj
 0001:00041400       ?SetVirtualID@CInstanceBase@@QAEXK@Z 00442400 f   InstanceBase.obj
 0001:00041410       ?SetVirtualNumber@CInstanceBase@@QAEXK@Z 00442410 f   InstanceBase.obj
 0001:00041420       ?SetInstanceType@CInstanceBase@@QAEXH@Z 00442420 f   InstanceBase.obj
 0001:00041430       ?SetAlignment@CInstanceBase@@QAEXF@Z 00442430 f   InstanceBase.obj
 0001:00041450       ?SetPKMode@CInstanceBase@@QAEXE@Z 00442450 f   InstanceBase.obj
 0001:00041480       ?SetKiller@CInstanceBase@@QAEX_N@Z 00442480 f   InstanceBase.obj
 0001:000414a0       ?SetPartyMemberFlag@CInstanceBase@@QAEX_N@Z 004424a0 f   InstanceBase.obj
 0001:000414b0       ?SetStateFlags@CInstanceBase@@QAEXK@Z 004424b0 f   InstanceBase.obj
 0001:000414f0       ?SetComboType@CInstanceBase@@QAEXI@Z 004424f0 f   InstanceBase.obj
 0001:00041500       ?GetName@CPythonPlayer@@UAEPBDXZ 00442500 f   PythonPlayer.obj
 0001:00041500       ?GetNameString@CInstanceBase@@QAEPBDXZ 00442500 f   InstanceBase.obj
 0001:00041510       ?GetRace@CInstanceBase@@QAEKXZ 00442510 f   InstanceBase.obj
 0001:00041520       ?IsConflictAlignmentInstance@CInstanceBase@@QAE_NAAV1@@Z 00442520 f   InstanceBase.obj
 0001:00041580       ?SetDuelMode@CInstanceBase@@QAEXK@Z 00442580 f   InstanceBase.obj
 0001:00041590       ?GetDuelMode@CInstanceBase@@QAEKXZ 00442590 f   InstanceBase.obj
 0001:000415a0       ?IsAttackableInstance@CInstanceBase@@QAE_NAAV1@@Z 004425a0 f   InstanceBase.obj
 0001:00041830       ?IsTargetableInstance@CInstanceBase@@QAE_NAAV1@@Z 00442830 f   InstanceBase.obj
 0001:00041840       ?CanChangeTarget@CInstanceBase@@QAE_NXZ 00442840 f   InstanceBase.obj
 0001:00041850       ?CanPickInstance@CInstanceBase@@QAE_NXZ 00442850 f   InstanceBase.obj
 0001:000418c0       ?CanViewTargetHP@CInstanceBase@@QAE_NAAV1@@Z 004428c0 f   InstanceBase.obj
 0001:00041900       ?IsPoly@CInstanceBase@@QAEHXZ 00442900 f   InstanceBase.obj
 0001:00041910       ?IsPC@CInstanceBase@@QAEHXZ 00442910 f   InstanceBase.obj
 0001:00041920       ?IsNPC@CInstanceBase@@QAEHXZ 00442920 f   InstanceBase.obj
 0001:00041930       ?IsEnemy@CInstanceBase@@QAEHXZ 00442930 f   InstanceBase.obj
 0001:00041940       ?IsStone@CInstanceBase@@QAEHXZ 00442940 f   InstanceBase.obj
 0001:00041950       ?IsGuildWall@CInstanceBase@@QAEHXZ 00442950 f   InstanceBase.obj
 0001:00041960       ?IsResource@CInstanceBase@@QAEHXZ 00442960 f   InstanceBase.obj
 0001:00041990       ?IsWarp@CInstanceBase@@QAEHXZ 00442990 f   InstanceBase.obj
 0001:000419a0       ?IsGoto@CInstanceBase@@QAEHXZ 004429a0 f   InstanceBase.obj
 0001:000419b0       ?IsObject@CInstanceBase@@QAEHXZ 004429b0 f   InstanceBase.obj
 0001:000419c0       ?IsBuilding@CInstanceBase@@QAEHXZ 004429c0 f   InstanceBase.obj
 0001:000419d0       ?IsDoor@CInstanceBase@@QAEHXZ 004429d0 f   InstanceBase.obj
 0001:000419e0       ?IsWoodenDoor@CInstanceBase@@QAEHXZ 004429e0 f   InstanceBase.obj
 0001:00041a20       ?IsStoneDoor@CInstanceBase@@QAEHXZ 00442a20 f   InstanceBase.obj
 0001:00041a50       ?IsFlag@CInstanceBase@@QAEHXZ 00442a50 f   InstanceBase.obj
 0001:00041a80       ?IsForceVisible@CInstanceBase@@QAEHXZ 00442a80 f   InstanceBase.obj
 0001:00041ac0       ?GetInstanceType@CInstanceBase@@QAEHXZ 00442ac0 f   InstanceBase.obj
 0001:00041ad0       ?GetVirtualID@CInstanceBase@@QAEKXZ 00442ad0 f   InstanceBase.obj
 0001:00041ae0       ?GetVirtualNumber@CInstanceBase@@QAEKXZ 00442ae0 f   InstanceBase.obj
 0001:00041af0       ?__IsInViewFrustum@CInstanceBase@@IAE_NXZ 00442af0 f   InstanceBase.obj
 0001:00041b00       ?__CanRender@CInstanceBase@@IAE_NXZ 00442b00 f   InstanceBase.obj
 0001:00041b30       ?IntersectBoundingBox@CInstanceBase@@QAE_NXZ 00442b30 f   InstanceBase.obj
 0001:00041b60       ?IntersectDefendingSphere@CInstanceBase@@QAE_NXZ 00442b60 f   InstanceBase.obj
 0001:00041b70       ?GetDistance@CInstanceBase@@QAEMPAV1@@Z 00442b70 f   InstanceBase.obj
 0001:00041bc0       ?GetDistance@CInstanceBase@@QAEMABUD3DXVECTOR3@@@Z 00442bc0 f   InstanceBase.obj
 0001:00041c30       ?GetGraphicThingInstancePtr@CInstanceBase@@QAEPAVCActorInstance@@XZ 00442c30 f   InstanceBase.obj
 0001:00041c30       ?GetGraphicThingInstanceRef@CInstanceBase@@QAEAAVCActorInstance@@XZ 00442c30 f   InstanceBase.obj
 0001:00041c40       ?RefreshActorInstance@CInstanceBase@@IAEXXZ 00442c40 f   InstanceBase.obj
 0001:00041c50       ?Refresh@CInstanceBase@@QAEXK_N@Z 00442c50 f   InstanceBase.obj
 0001:00041c60       ?RestoreRenderMode@CInstanceBase@@QAEXXZ 00442c60 f   InstanceBase.obj
 0001:00041c70       ?SetAddRenderMode@CInstanceBase@@QAEXXZ 00442c70 f   InstanceBase.obj
 0001:00041c80       ?SetModulateRenderMode@CInstanceBase@@QAEXXZ 00442c80 f   InstanceBase.obj
 0001:00041c90       ?SetAddColor@CInstanceBase@@QAEXABUD3DXCOLOR@@@Z 00442c90 f   InstanceBase.obj
 0001:00041ca0       ?__SetBlendRenderingMode@CInstanceBase@@IAEXXZ 00442ca0 f   InstanceBase.obj
 0001:00041cb0       ?__SetAlphaValue@CInstanceBase@@IAEXM@Z 00442cb0 f   InstanceBase.obj
 0001:00041cd0       ?__GetAlphaValue@CInstanceBase@@IAEMXZ 00442cd0 f   InstanceBase.obj
 0001:00041cf0       ?SetHair@CInstanceBase@@QAEXK@Z 00442cf0 f   InstanceBase.obj
 0001:00041d20       ?ChangeHair@CInstanceBase@@QAEXK@Z 00442d20 f   InstanceBase.obj
 0001:00041d60       ?SetArmor@CInstanceBase@@QAEXK@Z 00442d60 f   InstanceBase.obj
 0001:00041de0       ?SetShape@CInstanceBase@@QAEXKM@Z 00442de0 f   InstanceBase.obj
 0001:00041e30       ?GetWeaponType@CInstanceBase@@QAEKXZ 00442e30 f   InstanceBase.obj
 0001:00041e70       ?__ClearWeaponRefineEffect@CInstanceBase@@IAEXXZ 00442e70 f   InstanceBase.obj
 0001:00041eb0       ?__ClearArmorRefineEffect@CInstanceBase@@IAEXXZ 00442eb0 f   InstanceBase.obj
 0001:00041ed0       ?__GetRefinedEffect@CInstanceBase@@IAEIPAVCItemData@@@Z 00442ed0 f   InstanceBase.obj
 0001:00042030       ?SetWeapon@CInstanceBase@@QAE_NK@Z 00443030 f   InstanceBase.obj
 0001:000420b0       ?ChangeWeapon@CInstanceBase@@QAEXK@Z 004430b0 f   InstanceBase.obj
 0001:000420f0       ?ChangeArmor@CInstanceBase@@QAE_NK@Z 004430f0 f   InstanceBase.obj
 0001:00042240       ?__IsShapeAnimalWear@CInstanceBase@@IAE_NXZ 00443240 f   InstanceBase.obj
 0001:00042270       ?RefreshState@CInstanceBase@@IAEXK_N@Z 00443270 f   InstanceBase.obj
 0001:00042490       ?RegisterBoundingSphere@CInstanceBase@@QAEXXZ 00443490 f   InstanceBase.obj
 0001:000424b0       ?Destroy@CInstanceBase@@QAEXXZ 004434b0 f   InstanceBase.obj
 0001:00042540       ?__InitializeRotationSpeed@CInstanceBase@@IAEXXZ 00443540 f   InstanceBase.obj
 0001:00042550       ?__Warrior_Initialize@CInstanceBase@@IAEXXZ 00443550 f   InstanceBase.obj
 0001:00042560       ?__Initialize@CInstanceBase@@IAEXXZ 00443560 f   InstanceBase.obj
 0001:000427c0       ??0CInstanceBase@@QAE@XZ   004437c0 f   InstanceBase.obj
 0001:00042920       ??_ECInstanceBase@@UAEPAXI@Z 00443920 f i * CIL library *:* CIL module *
 0001:00042920       ??_GCInstanceBase@@UAEPAXI@Z 00443920 f i InstanceBase.obj
 0001:00042950       ??1?$map@KKU?$less@K@std@@V?$allocator@U?$pair@$$CBKK@std@@@2@@std@@QAE@XZ 00443950 f i InstanceBase.obj
 0001:00042950       ??1SEffectContainer@CInstanceBase@@QAE@XZ 00443950 f i InstanceBase.obj
 0001:00042950       ??1?$map@KPAUSGroundItemInstance@CPythonItem@@U?$less@K@std@@V?$allocator@U?$pair@$$CBKPAUSGroundItemInstance@CPythonItem@@@std@@@4@@std@@QAE@XZ 00443950 f i PythonItem.obj
 0001:00042950       ??1?$_Tree@V?$_Tmap_traits@KKU?$less@K@std@@V?$allocator@U?$pair@$$CBKK@std@@@2@$0A@@std@@@std@@QAE@XZ 00443950 f i InstanceBase.obj
 0001:00042970       ??1CInstanceBase@@UAE@XZ   00443970 f   InstanceBase.obj
 0001:00042a80       ?GetBoundBox@CInstanceBase@@QAEXPAUD3DXVECTOR3@@0@Z 00443a80 f   InstanceBase.obj
 0001:00042a90       ??1?$CDynamicPool@VCInstanceBase@@@@UAE@XZ 00443a90 f i InstanceBase.obj
 0001:00042b00       ??1?$list@USEffectDamage@CInstanceBase@@V?$allocator@USEffectDamage@CInstanceBase@@@std@@@std@@QAE@XZ 00443b00 f i InstanceBase.obj
 0001:00042b00       ??1?$list@UtagRECT@@V?$allocator@UtagRECT@@@std@@@std@@QAE@XZ 00443b00 f i GameLib:MapOutdoor.obj
 0001:00042b40       ?push_back@?$list@USCommand@CInstanceBase@@V?$allocator@USCommand@CInstanceBase@@@std@@@std@@QAEXABUSCommand@CInstanceBase@@@Z 00443b40 f i InstanceBase.obj
 0001:00042c10       ??1?$list@USCommand@CInstanceBase@@V?$allocator@USCommand@CInstanceBase@@@std@@@std@@QAE@XZ 00443c10 f i InstanceBase.obj
 0001:00042c50       ??_G?$CDynamicPool@VCInstanceBase@@@@UAEPAXI@Z 00443c50 f i InstanceBase.obj
 0001:00042c50       ??_E?$CDynamicPool@VCInstanceBase@@@@UAEPAXI@Z 00443c50 f i * CIL library *:* CIL module *
 0001:00042c80       ??$_Traits_find_first_of@U?$char_traits@D@std@@@std@@YAIQBDII0IU?$integral_constant@_N$00@0@@Z 00443c80 f i InstanceBase.obj
 0001:00042d30       ??$_Emplace_reallocate@ABQAVCInstanceBase@@@?$vector@PAVCInstanceBase@@V?$allocator@PAVCInstanceBase@@@std@@@std@@QAEPAPAVCInstanceBase@@QAPAV2@ABQAV2@@Z 00443d30 f i InstanceBase.obj
 0001:00042d30       ??$_Emplace_reallocate@ABQAUSEventSet@CPythonEventManager@@@?$vector@PAUSEventSet@CPythonEventManager@@V?$allocator@PAUSEventSet@CPythonEventManager@@@std@@@std@@QAEPAPAUSEventSet@CPythonEventManager@@QAPAU23@ABQAU23@@Z 00443d30 f i PythonEventManager.obj
 0001:00042d30       ??$_Emplace_reallocate@ABQAUSChatLine@CWhisper@@@?$vector@PAUSChatLine@CWhisper@@V?$allocator@PAUSChatLine@CWhisper@@@std@@@std@@QAEPAPAUSChatLine@CWhisper@@QAPAU23@ABQAU23@@Z 00443d30 f i PythonChat.obj
 0001:00042d30       ??$_Emplace_reallocate@ABQAUSGroundItemInstance@CPythonItem@@@?$vector@PAUSGroundItemInstance@CPythonItem@@V?$allocator@PAUSGroundItemInstance@CPythonItem@@@std@@@std@@QAEPAPAUSGroundItemInstance@CPythonItem@@QAPAU23@ABQAU23@@Z 00443d30 f i PythonItem.obj
 0001:00042d30       ??$_Emplace_reallocate@ABQAUSTextTail@CPythonTextTail@@@?$vector@PAUSTextTail@CPythonTextTail@@V?$allocator@PAUSTextTail@CPythonTextTail@@@std@@@std@@QAEPAPAUSTextTail@CPythonTextTail@@QAPAU23@ABQAU23@@Z 00443d30 f i PythonTextTail.obj
 0001:00042d30       ??$_Emplace_reallocate@PAUSEventSet@CPythonEventManager@@@?$vector@PAUSEventSet@CPythonEventManager@@V?$allocator@PAUSEventSet@CPythonEventManager@@@std@@@std@@QAEPAPAUSEventSet@CPythonEventManager@@QAPAU23@$$QAPAU23@@Z 00443d30 f i PythonEventManager.obj
 0001:00042d30       ??$_Emplace_reallocate@ABQAUSChatLine@CPythonChat@@@?$vector@PAUSChatLine@CPythonChat@@V?$allocator@PAUSChatLine@CPythonChat@@@std@@@std@@QAEPAPAUSChatLine@CPythonChat@@QAPAU23@ABQAU23@@Z 00443d30 f i PythonChat.obj
 0001:00042d30       ??$_Emplace_reallocate@ABQAVCWhisper@@@?$vector@PAVCWhisper@@V?$allocator@PAVCWhisper@@@std@@@std@@QAEPAPAVCWhisper@@QAPAV2@ABQAV2@@Z 00443d30 f i PythonChat.obj
 0001:00042e30       ??$_Construct_in_place@PAU?$_List_node@PAVCInstanceBase@@PAX@std@@ABQAU12@@std@@YAXAAPAU?$_List_node@PAVCInstanceBase@@PAX@0@ABQAU10@@Z 00443e30 f i PythonCharacterManager.obj
 0001:00042e30       ??$_Construct_in_place@PAU?$_Tree_node@U?$pair@$$CBV?$basic_string@DU?$char_traits@D@std@@V?$allocator@D@2@@std@@H@std@@PAX@std@@AAPAU12@@std@@YAXAAPAU?$_Tree_node@U?$pair@$$CBV?$basic_string@DU?$char_traits@D@std@@V?$allocator@D@2@@std@@H@std@@PAX@0@0@Z 00443e30 f i PythonEventManager.obj
 0001:00042e30       ??$_Construct_in_place@PAU?$_Tree_node@U?$pair@$$CBKUSSkillData@CPythonSkill@@@std@@PAX@std@@AAPAU12@@std@@YAXAAPAU?$_Tree_node@U?$pair@$$CBKUSSkillData@CPythonSkill@@@std@@PAX@0@0@Z 00443e30 f i PythonSkill.obj
 0001:00042e30       ??$_Construct_in_place@PAU?$_List_node@USCommand@CInstanceBase@@PAX@std@@AAPAU12@@std@@YAXAAPAU?$_List_node@USCommand@CInstanceBase@@PAX@0@0@Z 00443e30 f i InstanceBase.obj
 0001:00042e30       ??$_Construct_in_place@PAU?$_Tree_node@U?$pair@$$CBHUSChatSet@CPythonChat@@@std@@PAX@std@@AAPAU12@@std@@YAXAAPAU?$_Tree_node@U?$pair@$$CBHUSChatSet@CPythonChat@@@std@@PAX@0@0@Z 00443e30 f i PythonChat.obj
 0001:00042e30       ??$_Construct_in_place@PAU?$_List_node@USChannel@CServerStateChecker@@PAX@std@@ABQAU12@@std@@YAXAAPAU?$_List_node@USChannel@CServerStateChecker@@PAX@0@ABQAU10@@Z 00443e30 f i ServerStateChecker.obj
 0001:00042e30       ??$_Construct_in_place@PAU?$_Tree_node@U?$pair@$$CBKUSPartyMemberInfo@CPythonPlayer@@@std@@PAX@std@@ABQAU12@@std@@YAXAAPAU?$_Tree_node@U?$pair@$$CBKUSPartyMemberInfo@CPythonPlayer@@@std@@PAX@0@ABQAU10@@Z 00443e30 f i PythonPlayer.obj
 0001:00042e30       ??$_Construct_in_place@PAU?$_Tree_node@U?$pair@$$CBV?$basic_string@DU?$char_traits@D@std@@V?$allocator@D@2@@std@@E@std@@PAX@std@@ABQAU12@@std@@YAXAAPAU?$_Tree_node@U?$pair@$$CBV?$basic_string@DU?$char_traits@D@std@@V?$allocator@D@2@@std@@E@std@@PAX@0@ABQAU10@@Z 00443e30 f i PythonMessenger.obj
 0001:00042e30       ??$_Construct_in_place@PAU?$_Tree_node@U?$pair@$$CBKPAVCInstanceBase@@@std@@PAX@std@@ABQAU12@@std@@YAXAAPAU?$_Tree_node@U?$pair@$$CBKPAVCInstanceBase@@@std@@PAX@0@ABQAU10@@Z 00443e30 f i PythonCharacterManager.obj
 0001:00042e30       ??$_Construct_in_place@PAU?$_Tree_node@U?$pair@$$CBKPAUSGroundItemInstance@CPythonItem@@@std@@PAX@std@@ABQAU12@@std@@YAXAAPAU?$_Tree_node@U?$pair@$$CBKPAUSGroundItemInstance@CPythonItem@@@std@@PAX@0@ABQAU10@@Z 00443e30 f i PythonItem.obj
 0001:00042e30       ??$_Construct_in_place@PAU?$_Tree_node@U?$pair@$$CBKUSPartyMemberInfo@CPythonPlayer@@@std@@PAX@std@@AAPAU12@@std@@YAXAAPAU?$_Tree_node@U?$pair@$$CBKUSPartyMemberInfo@CPythonPlayer@@@std@@PAX@0@0@Z 00443e30 f i PythonPlayer.obj
 0001:00042e30       ??$_Construct_in_place@PAU?$_Tree_node@U?$pair@$$CBKPAUSGroundItemInstance@CPythonItem@@@std@@PAX@std@@AAPAU12@@std@@YAXAAPAU?$_Tree_node@U?$pair@$$CBKPAUSGroundItemInstance@CPythonItem@@@std@@PAX@0@0@Z 00443e30 f i PythonItem.obj
 0001:00042e30       ??$_Construct_in_place@PAU?$_Tree_node@U?$pair@$$CBUSItemPos@@USShopItemTable@@@std@@PAX@std@@AAPAU12@@std@@YAXAAPAU?$_Tree_node@U?$pair@$$CBUSItemPos@@USShopItemTable@@@std@@PAX@0@0@Z 00443e30 f i PythonShop.obj
 0001:00042e30       ??$_Construct_in_place@PAU?$_Tree_node@U?$pair@$$CBKPAVCGuildMarkImage@@@std@@PAX@std@@AAPAU12@@std@@YAXAAPAU?$_Tree_node@U?$pair@$$CBKPAVCGuildMarkImage@@@std@@PAX@0@0@Z 00443e30 f i MarkManager.obj
 0001:00042e30       ??$_Construct_in_place@PAU?$_Tree_node@U?$pair@$$CBHV?$basic_string@DU?$char_traits@D@std@@V?$allocator@D@2@@std@@@std@@PAX@std@@AAPAU12@@std@@YAXAAPAU?$_Tree_node@U?$pair@$$CBHV?$basic_string@DU?$char_traits@D@std@@V?$allocator@D@2@@std@@@std@@PAX@0@0@Z 00443e30 f i InstanceBaseEffect.obj
 0001:00042e30       ??$_Construct_in_place@PAU?$_Tree_node@U?$pair@$$CBHUSChatSet@CPythonChat@@@std@@PAX@std@@ABQAU12@@std@@YAXAAPAU?$_Tree_node@U?$pair@$$CBHUSChatSet@CPythonChat@@@std@@PAX@0@ABQAU10@@Z 00443e30 f i PythonChat.obj
 0001:00042e30       ??$_Construct_in_place@PAU?$_List_node@USWaitChat@CPythonChat@@PAX@std@@ABQAU12@@std@@YAXAAPAU?$_List_node@USWaitChat@CPythonChat@@PAX@0@ABQAU10@@Z 00443e30 f i PythonChat.obj
 0001:00042e30       ??$_Construct_in_place@PAU?$_Tree_node@U?$pair@$$CBKPAVCGuildMarkImage@@@std@@PAX@std@@ABQAU12@@std@@YAXAAPAU?$_Tree_node@U?$pair@$$CBKPAVCGuildMarkImage@@@std@@PAX@0@ABQAU10@@Z 00443e30 f i MarkManager.obj
 0001:00042e30       ??$_Construct_in_place@PAU?$_List_node@PAUSTextTail@CPythonTextTail@@PAX@std@@ABQAU12@@std@@YAXAAPAU?$_List_node@PAUSTextTail@CPythonTextTail@@PAX@0@ABQAU10@@Z 00443e30 f i PythonTextTail.obj
 0001:00042e30       ??$_Construct_in_place@PAU?$_Tree_node@U?$pair@$$CBKUSNetworkActorData@@@std@@PAX@std@@ABQAU12@@std@@YAXAAPAU?$_Tree_node@U?$pair@$$CBKUSNetworkActorData@@@std@@PAX@0@ABQAU10@@Z 00443e30 f i NetworkActorManager.obj
 0001:00042e30       ??$_Construct_in_place@PAU?$_Tree_node@U?$pair@$$CBHPAX@std@@PAX@std@@AAPAU12@@std@@YAXAAPAU?$_Tree_node@U?$pair@$$CBHPAX@std@@PAX@0@0@Z 00443e30 f i PythonApplicationCursor.obj
 0001:00042e30       ??$_Construct_in_place@PAU?$_Tree_node@U?$pair@$$CBV?$basic_string@DU?$char_traits@D@std@@V?$allocator@D@2@@std@@E@std@@PAX@std@@AAPAU12@@std@@YAXAAPAU?$_Tree_node@U?$pair@$$CBV?$basic_string@DU?$char_traits@D@std@@V?$allocator@D@2@@std@@E@std@@PAX@0@0@Z 00443e30 f i PythonMessenger.obj
 0001:00042e30       ??$_Construct_in_place@PAU?$_Tree_node@U?$pair@$$CBKUTGuildSymbol@CGuildMarkManager@@@std@@PAX@std@@ABQAU12@@std@@YAXAAPAU?$_Tree_node@U?$pair@$$CBKUTGuildSymbol@CGuildMarkManager@@@std@@PAX@0@ABQAU10@@Z 00443e30 f i MarkManager.obj
 0001:00042e30       ??$_Construct_in_place@PAU?$_Tree_node@U?$pair@$$CBHPAVCGraphicImage@@@std@@PAX@std@@AAPAU12@@std@@YAXAAPAU?$_Tree_node@U?$pair@$$CBHPAVCGraphicImage@@@std@@PAX@0@0@Z 00443e30 f i PythonPlayerModule.obj
 0001:00042e30       ??$_Construct_in_place@PAU?$_Tree_node@U?$pair@$$CBEUSGuildGradeData@CPythonGuild@@@std@@PAX@std@@AAPAU12@@std@@YAXAAPAU?$_Tree_node@U?$pair@$$CBEUSGuildGradeData@CPythonGuild@@@std@@PAX@0@0@Z 00443e30 f i PythonGuild.obj
 0001:00042e30       ??$_Construct_in_place@PAU?$_Tree_node@U?$pair@$$CBKUSSkillData@CPythonSkill@@@std@@PAX@std@@ABQAU12@@std@@YAXAAPAU?$_Tree_node@U?$pair@$$CBKUSSkillData@CPythonSkill@@@std@@PAX@0@ABQAU10@@Z 00443e30 f i PythonSkill.obj
 0001:00042e30       ??$_Construct_in_place@PAU?$_Tree_node@U?$pair@$$CBMPAVCInstanceBase@@@std@@PAX@std@@ABQAU12@@std@@YAXAAPAU?$_Tree_node@U?$pair@$$CBMPAVCInstanceBase@@@std@@PAX@0@ABQAU10@@Z 00443e30 f i InstanceBaseBattle.obj
 0001:00042e30       ??$_Construct_in_place@PAU?$_List_node@PAVCInstanceBase@@PAX@std@@AAPAU12@@std@@YAXAAPAU?$_List_node@PAVCInstanceBase@@PAX@0@0@Z 00443e30 f i PythonCharacterManager.obj
 0001:00042e30       ??$_Construct_in_place@PAU?$_List_node@USEffectDamage@CInstanceBase@@PAX@std@@AAPAU12@@std@@YAXAAPAU?$_List_node@USEffectDamage@CInstanceBase@@PAX@0@0@Z 00443e30 f i InstanceBase.obj
 0001:00042e30       ??$_Construct_in_place@PAU?$_Tree_node@U?$pair@$$CBKUSObserver@CPythonMiniMap@@@std@@PAX@std@@ABQAU12@@std@@YAXAAPAU?$_Tree_node@U?$pair@$$CBKUSObserver@CPythonMiniMap@@@std@@PAX@0@ABQAU10@@Z 00443e30 f i PythonMiniMap.obj
 0001:00042e30       ??$_Construct_in_place@PAU?$_List_node@USTextLine@CPythonEventManager@@PAX@std@@AAPAU12@@std@@YAXAAPAU?$_List_node@USTextLine@CPythonEventManager@@PAX@0@0@Z 00443e30 f i PythonEventManager.obj
 0001:00042e30       ??$_Construct_in_place@PAU?$_Tree_node@U?$pair@$$CBKUSReserveTargetEffect@CPythonBackground@@@std@@PAX@std@@ABQAU12@@std@@YAXAAPAU?$_Tree_node@U?$pair@$$CBKUSReserveTargetEffect@CPythonBackground@@@std@@PAX@0@ABQAU10@@Z 00443e30 f i PythonBackground.obj
 0001:00042e30       ??$_Construct_in_place@PAU?$_Tree_node@U?$pair@$$CBKPAUSMobTable@CPythonNonPlayer@@@std@@PAX@std@@ABQAU12@@std@@YAXAAPAU?$_Tree_node@U?$pair@$$CBKPAUSMobTable@CPythonNonPlayer@@@std@@PAX@0@ABQAU10@@Z 00443e30 f i PythonNonPlayer.obj
 0001:00042e30       ??$_Construct_in_place@PAU?$_Tree_node@U?$pair@$$CBHV?$basic_string@DU?$char_traits@D@std@@V?$allocator@D@2@@std@@@std@@PAX@std@@ABQAU12@@std@@YAXAAPAU?$_Tree_node@U?$pair@$$CBHV?$basic_string@DU?$char_traits@D@std@@V?$allocator@D@2@@std@@@std@@PAX@0@ABQAU10@@Z 00443e30 f i InstanceBaseEffect.obj
 0001:00042e30       ??$_Construct_in_place@PAU?$_Tree_node@U?$pair@$$CBKPAVCInstanceBase@@@std@@PAX@std@@AAPAU12@@std@@YAXAAPAU?$_Tree_node@U?$pair@$$CBKPAVCInstanceBase@@@std@@PAX@0@0@Z 00443e30 f i PythonCharacterManager.obj
 0001:00042e30       ??$_Construct_in_place@PAU?$_Tree_node@U?$pair@$$CBMPAVCInstanceBase@@@std@@PAX@std@@AAPAU12@@std@@YAXAAPAU?$_Tree_node@U?$pair@$$CBMPAVCInstanceBase@@@std@@PAX@0@0@Z 00443e30 f i InstanceBaseBattle.obj
 0001:00042e30       ??$_Construct_in_place@PAU?$_Tree_node@U?$pair@$$CBKUSNetworkActorData@@@std@@PAX@std@@AAPAU12@@std@@YAXAAPAU?$_Tree_node@U?$pair@$$CBKUSNetworkActorData@@@std@@PAX@0@0@Z 00443e30 f i NetworkActorManager.obj
 0001:00042e30       ??$_Construct_in_place@PAU?$_List_node@USEffectDamage@CInstanceBase@@PAX@std@@ABQAU12@@std@@YAXAAPAU?$_List_node@USEffectDamage@CInstanceBase@@PAX@0@ABQAU10@@Z 00443e30 f i InstanceBaseEffect.obj
 0001:00042e30       ??$_Construct_in_place@PAU?$_Tree_node@U?$pair@$$CBKUSReserveTargetEffect@CPythonBackground@@@std@@PAX@std@@AAPAU12@@std@@YAXAAPAU?$_Tree_node@U?$pair@$$CBKUSReserveTargetEffect@CPythonBackground@@@std@@PAX@0@0@Z 00443e30 f i PythonBackground.obj
 0001:00042e30       ??$_Construct_in_place@PAU?$_Tree_node@U?$pair@$$CBHPAX@std@@PAX@std@@ABQAU12@@std@@YAXAAPAU?$_Tree_node@U?$pair@$$CBHPAX@std@@PAX@0@ABQAU10@@Z 00443e30 f i PythonApplication.obj
 0001:00042e30       ??$_Construct_in_place@PAU?$_List_node@PAUSChatLine@CPythonChat@@PAX@std@@ABQAU12@@std@@YAXAAPAU?$_List_node@PAUSChatLine@CPythonChat@@PAX@0@ABQAU10@@Z 00443e30 f i PythonChat.obj
 0001:00042e30       ??$_Construct_in_place@PAU?$_Tree_node@U?$pair@$$CBKPAUSTextTail@CPythonTextTail@@@std@@PAX@std@@ABQAU12@@std@@YAXAAPAU?$_Tree_node@U?$pair@$$CBKPAUSTextTail@CPythonTextTail@@@std@@PAX@0@ABQAU10@@Z 00443e30 f i PythonTextTail.obj
 0001:00042e30       ??$_Construct_in_place@PAU?$_List_node@USCommand@CInstanceBase@@PAX@std@@ABQAU12@@std@@YAXAAPAU?$_List_node@USCommand@CInstanceBase@@PAX@0@ABQAU10@@Z 00443e30 f i InstanceBase.obj
 0001:00042e30       ??$_Construct_in_place@PAU?$_Tree_node@U?$pair@$$CBEUSGuildGradeData@CPythonGuild@@@std@@PAX@std@@ABQAU12@@std@@YAXAAPAU?$_Tree_node@U?$pair@$$CBEUSGuildGradeData@CPythonGuild@@@std@@PAX@0@ABQAU10@@Z 00443e30 f i PythonGuild.obj
 0001:00042e30       ??$_Construct_in_place@PAU?$_List_node@USWaitChat@CPythonChat@@PAX@std@@AAPAU12@@std@@YAXAAPAU?$_List_node@USWaitChat@CPythonChat@@PAX@0@0@Z 00443e30 f i PythonChat.obj
 0001:00042e30       ??$_Construct_in_place@PAU?$_Tree_node@U?$pair@$$CBKPAUSMobTable@CPythonNonPlayer@@@std@@PAX@std@@AAPAU12@@std@@YAXAAPAU?$_Tree_node@U?$pair@$$CBKPAUSMobTable@CPythonNonPlayer@@@std@@PAX@0@0@Z 00443e30 f i PythonNonPlayer.obj
 0001:00042e30       ??$_Construct_in_place@PAU?$_Tree_node@V?$basic_string@DU?$char_traits@D@std@@V?$allocator@D@2@@std@@PAX@std@@ABQAU12@@std@@YAXAAPAU?$_Tree_node@V?$basic_string@DU?$char_traits@D@std@@V?$allocator@D@2@@std@@PAX@0@ABQAU10@@Z 00443e30 f i PythonBackground.obj
 0001:00042e30       ??$_Construct_in_place@PAU?$_Tree_node@U?$pair@$$CBHPAVCGraphicImage@@@std@@PAX@std@@ABQAU12@@std@@YAXAAPAU?$_Tree_node@U?$pair@$$CBHPAVCGraphicImage@@@std@@PAX@0@ABQAU10@@Z 00443e30 f i PythonPlayerModule.obj
 0001:00042e30       ??$_Construct_in_place@PAU?$_Tree_node@U?$pair@$$CBV?$basic_string@DU?$char_traits@D@std@@V?$allocator@D@2@@std@@PAVCWhisper@@@std@@PAX@std@@AAPAU12@@std@@YAXAAPAU?$_Tree_node@U?$pair@$$CBV?$basic_string@DU?$char_traits@D@std@@V?$allocator@D@2@@std@@PAVCWhisper@@@std@@PAX@0@0@Z 00443e30 f i PythonChat.obj
 0001:00042e30       ??$_Construct_in_place@PAU?$_List_node@USChannel@CServerStateChecker@@PAX@std@@AAPAU12@@std@@YAXAAPAU?$_List_node@USChannel@CServerStateChecker@@PAX@0@0@Z 00443e30 f i ServerStateChecker.obj
 0001:00042e30       ??$_Construct_in_place@PAU?$_Tree_node@V?$basic_string@DU?$char_traits@D@std@@V?$allocator@D@2@@std@@PAX@std@@AAPAU12@@std@@YAXAAPAU?$_Tree_node@V?$basic_string@DU?$char_traits@D@std@@V?$allocator@D@2@@std@@PAX@0@0@Z 00443e30 f i PythonBackground.obj
 0001:00042e30       ??$_Construct_in_place@PAU?$_Tree_node@U?$pair@$$CBUSItemPos@@USShopItemTable@@@std@@PAX@std@@ABQAU12@@std@@YAXAAPAU?$_Tree_node@U?$pair@$$CBUSItemPos@@USShopItemTable@@@std@@PAX@0@ABQAU10@@Z 00443e30 f i PythonShop.obj
 0001:00042e30       ??$_Construct_in_place@PAU?$_List_node@PAUSChatLine@CWhisper@@PAX@std@@AAPAU12@@std@@YAXAAPAU?$_List_node@PAUSChatLine@CWhisper@@PAX@0@0@Z 00443e30 f i PythonChat.obj
 0001:00042e30       ??$_Construct_in_place@PAU?$_List_node@PAUSChatLine@CPythonChat@@PAX@std@@AAPAU12@@std@@YAXAAPAU?$_List_node@PAUSChatLine@CPythonChat@@PAX@0@0@Z 00443e30 f i PythonChat.obj
 0001:00042e30       ??$_Construct_in_place@PAU?$_Tree_node@U?$pair@$$CBKUSObserver@CPythonMiniMap@@@std@@PAX@std@@AAPAU12@@std@@YAXAAPAU?$_Tree_node@U?$pair@$$CBKUSObserver@CPythonMiniMap@@@std@@PAX@0@0@Z 00443e30 f i PythonMiniMap.obj
 0001:00042e30       ??$_Construct_in_place@PAU?$_Tree_node@U?$pair@$$CBV?$basic_string@DU?$char_traits@D@std@@V?$allocator@D@2@@std@@PAVCWhisper@@@std@@PAX@std@@ABQAU12@@std@@YAXAAPAU?$_Tree_node@U?$pair@$$CBV?$basic_string@DU?$char_traits@D@std@@V?$allocator@D@2@@std@@PAVCWhisper@@@std@@PAX@0@ABQAU10@@Z 00443e30 f i PythonChat.obj
 0001:00042e30       ??$_Construct_in_place@PAU?$_Tree_node@U?$pair@$$CBV?$basic_string@DU?$char_traits@D@std@@V?$allocator@D@2@@std@@H@std@@PAX@std@@ABQAU12@@std@@YAXAAPAU?$_Tree_node@U?$pair@$$CBV?$basic_string@DU?$char_traits@D@std@@V?$allocator@D@2@@std@@H@std@@PAX@0@ABQAU10@@Z 00443e30 f i PythonEventManager.obj
 0001:00042e30       ??$_Construct_in_place@PAU?$_List_node@USTextLine@CPythonEventManager@@PAX@std@@ABQAU12@@std@@YAXAAPAU?$_List_node@USTextLine@CPythonEventManager@@PAX@0@ABQAU10@@Z 00443e30 f i PythonEventManager.obj
 0001:00042e30       ??$_Construct_in_place@PAU?$_Tree_node@U?$pair@$$CBKPAUSTextTail@CPythonTextTail@@@std@@PAX@std@@AAPAU12@@std@@YAXAAPAU?$_Tree_node@U?$pair@$$CBKPAUSTextTail@CPythonTextTail@@@std@@PAX@0@0@Z 00443e30 f i PythonTextTail.obj
 0001:00042e30       ??$_Construct_in_place@PAU?$_List_node@PAUSTextTail@CPythonTextTail@@PAX@std@@AAPAU12@@std@@YAXAAPAU?$_List_node@PAUSTextTail@CPythonTextTail@@PAX@0@0@Z 00443e30 f i PythonTextTail.obj
 0001:00042e40       ??$_Uninitialized_move@PAPAUSChatLine@CPythonChat@@V?$allocator@PAUSChatLine@CPythonChat@@@std@@@std@@YAPAPAUSChatLine@CPythonChat@@QAPAU12@0PAPAU12@AAV?$allocator@PAUSChatLine@CPythonChat@@@0@@Z 00443e40 f i PythonChat.obj
 0001:00042e40       ??$_Uninitialized_move@PAPAUSChatLine@CWhisper@@V?$allocator@PAUSChatLine@CWhisper@@@std@@@std@@YAPAPAUSChatLine@CWhisper@@QAPAU12@0PAPAU12@AAV?$allocator@PAUSChatLine@CWhisper@@@0@@Z 00443e40 f i PythonChat.obj
 0001:00042e40       ??$_Uninitialized_move@PAPAUSEventSet@CPythonEventManager@@V?$allocator@PAUSEventSet@CPythonEventManager@@@std@@@std@@YAPAPAUSEventSet@CPythonEventManager@@QAPAU12@0PAPAU12@AAV?$allocator@PAUSEventSet@CPythonEventManager@@@0@@Z 00443e40 f i PythonEventManager.obj
 0001:00042e40       ??$_Uninitialized_move@PAPAVCWhisper@@V?$allocator@PAVCWhisper@@@std@@@std@@YAPAPAVCWhisper@@QAPAV1@0PAPAV1@AAV?$allocator@PAVCWhisper@@@0@@Z 00443e40 f i PythonChat.obj
 0001:00042e40       ??$_Uninitialized_move@PAPAUSTextTail@CPythonTextTail@@V?$allocator@PAUSTextTail@CPythonTextTail@@@std@@@std@@YAPAPAUSTextTail@CPythonTextTail@@QAPAU12@0PAPAU12@AAV?$allocator@PAUSTextTail@CPythonTextTail@@@0@@Z 00443e40 f i PythonTextTail.obj
 0001:00042e40       ??$_Uninitialized_move@PAPAVCInstanceBase@@V?$allocator@PAVCInstanceBase@@@std@@@std@@YAPAPAVCInstanceBase@@QAPAV1@0PAPAV1@AAV?$allocator@PAVCInstanceBase@@@0@@Z 00443e40 f i InstanceBase.obj
 0001:00042e40       ??$_Uninitialized_move@PAPAUSGroundItemInstance@CPythonItem@@V?$allocator@PAUSGroundItemInstance@CPythonItem@@@std@@@std@@YAPAPAUSGroundItemInstance@CPythonItem@@QAPAU12@0PAPAU12@AAV?$allocator@PAUSGroundItemInstance@CPythonItem@@@0@@Z 00443e40 f i PythonItem.obj
 0001:00042e70       ??1?$_Alloc_construct_ptr@V?$allocator@U?$_Tree_node@U?$pair@$$CBIV?$basic_string@DU?$char_traits@D@std@@V?$allocator@D@2@@std@@@std@@PAX@std@@@std@@@std@@QAE@XZ 00443e70 f i EterLib:GrpDevice.obj
 0001:00042e70       ??1?$_Alloc_construct_ptr@V?$allocator@U?$_Tree_node@U?$pair@$$CBKV?$basic_string@DU?$char_traits@D@std@@V?$allocator@D@2@@std@@@std@@PAX@std@@@std@@@std@@QAE@XZ 00443e70 f i PythonGuild.obj
 0001:00042e70       ??1?$_Alloc_construct_ptr@V?$allocator@U?$_List_node@USCommand@CInstanceBase@@PAX@std@@@std@@@std@@QAE@XZ 00443e70 f i InstanceBase.obj
 0001:00042e70       ??1?$_Alloc_construct_ptr@V?$allocator@U?$_Tree_node@U?$pair@$$CBV?$basic_string@DU?$char_traits@D@std@@V?$allocator@D@2@@std@@PAVCGraphicImageInstance@@@std@@PAX@std@@@std@@@std@@QAE@XZ 00443e70 f i EterLib:SkyBox.obj
 0001:00042e70       ??1?$_Alloc_construct_ptr@V?$allocator@U?$_Tree_node@U?$pair@$$CBV?$basic_string@DU?$char_traits@D@std@@V?$allocator@D@2@@std@@H@std@@PAX@std@@@std@@@std@@QAE@XZ 00443e70 f i PythonEventManager.obj
 0001:00042e70       ??1?$_Tree_temp_node_alloc@V?$allocator@U?$_Tree_node@U?$pair@$$CBV?$basic_string@DU?$char_traits@D@std@@V?$allocator@D@2@@std@@PAVCWindow@UI@@@std@@PAX@std@@@std@@@std@@QAE@XZ 00443e70 f i EterPythonLib:PythonWindowManager.obj
 0001:00042e70       ??1?$_Alloc_construct_ptr@V?$allocator@U?$_Tree_node@U?$pair@$$CBV?$basic_string@DU?$char_traits@D@std@@V?$allocator@D@2@@std@@P6APAVCResource@@PBD@Z@std@@PAX@std@@@std@@@std@@QAE@XZ 00443e70 f i EterLib:ResourceManager.obj
 0001:00042e70       ??1?$_Alloc_construct_ptr@V?$allocator@U?$_Tree_node@U?$pair@$$CBV?$basic_string@DU?$char_traits@D@std@@V?$allocator@D@2@@std@@E@std@@PAX@std@@@std@@@std@@QAE@XZ 00443e70 f i PythonMessenger.obj
 0001:00042e70       ??1?$_Alloc_construct_ptr@V?$allocator@U?$_Tree_node@U?$pair@$$CBV?$basic_string@DU?$char_traits@D@std@@V?$allocator@D@2@@std@@K@std@@PAX@std@@@std@@@std@@QAE@XZ 00443e70 f i PythonSkill.obj
 0001:00042e70       ??1?$_Tree_temp_node_alloc@V?$allocator@U?$_Tree_node@U?$pair@$$CBV?$basic_string@DU?$char_traits@D@std@@V?$allocator@D@2@@std@@M@std@@PAX@std@@@std@@@std@@QAE@XZ 00443e70 f i MilesLib:SoundManager.obj
 0001:00042e70       ??1?$_Alloc_construct_ptr@V?$allocator@U?$_Tree_node@U?$pair@$$CBHV?$basic_string@DU?$char_traits@D@std@@V?$allocator@D@2@@std@@@std@@PAX@std@@@std@@@std@@QAE@XZ 00443e70 f i InstanceBaseEffect.obj
 0001:00042e70       ??1?$_Tree_temp_node_alloc@V?$allocator@U?$_Tree_node@U?$pair@$$CBV?$basic_string@DU?$char_traits@D@std@@V?$allocator@D@2@@std@@PAVCWhisper@@@std@@PAX@std@@@std@@@std@@QAE@XZ 00443e70 f i PythonChat.obj
 0001:00042e70       ??1?$_Alloc_construct_ptr@V?$allocator@U?$_Tree_node@U?$pair@$$CBV?$basic_string@DU?$char_traits@D@std@@V?$allocator@D@2@@std@@PAVCWindow@UI@@@std@@PAX@std@@@std@@@std@@QAE@XZ 00443e70 f i EterPythonLib:PythonWindowManager.obj
 0001:00042e70       ??1?$_Alloc_construct_ptr@V?$allocator@U?$_Tree_node@U?$pair@$$CBV?$basic_string@DU?$char_traits@D@std@@V?$allocator@D@2@@std@@M@std@@PAX@std@@@std@@@std@@QAE@XZ 00443e70 f i MilesLib:SoundManager.obj
 0001:00042e70       ??1?$_Tree_temp_node_alloc@V?$allocator@U?$_Tree_node@U?$pair@$$CBHV?$basic_string@DU?$char_traits@D@std@@V?$allocator@D@2@@std@@@std@@PAX@std@@@std@@@std@@QAE@XZ 00443e70 f i InstanceBaseEffect.obj
 0001:00042e70       ??1?$_Tree_temp_node_alloc@V?$allocator@U?$_Tree_node@U?$pair@$$CBV?$basic_string@DU?$char_traits@D@std@@V?$allocator@D@2@@std@@K@std@@PAX@std@@@std@@@std@@QAE@XZ 00443e70 f i PythonSkill.obj
 0001:00042e70       ??1?$_Tree_temp_node_alloc@V?$allocator@U?$_Tree_node@U?$pair@$$CBV?$basic_string@DU?$char_traits@D@std@@V?$allocator@D@2@@std@@PAVCGraphicImageInstance@@@std@@PAX@std@@@std@@@std@@QAE@XZ 00443e70 f i EterLib:SkyBox.obj
 0001:00042e70       ??1?$_Alloc_construct_ptr@V?$allocator@U?$_Tree_node@U?$pair@$$CBV?$basic_string@DU?$char_traits@D@std@@V?$allocator@D@2@@std@@PAVCWhisper@@@std@@PAX@std@@@std@@@std@@QAE@XZ 00443e70 f i PythonChat.obj
 0001:00042e90       ??$_Erase_tree@V?$allocator@U?$_Tree_node@U?$pair@$$CBKH@std@@PAX@std@@@std@@@?$_Tree_val@U?$_Tree_simple_types@U?$pair@$$CBKH@std@@@std@@@std@@QAEXAAV?$allocator@U?$_Tree_node@U?$pair@$$CBKH@std@@PAX@std@@@1@PAU?$_Tree_node@U?$pair@$$CBKH@std@@PAX@1@@Z 00443e90 f i GameLib:MapOutdoor.obj
 0001:00042e90       ??$_Erase_tree@V?$allocator@U?$_Tree_node@U?$pair@$$CBKPAVCEffectInstance@@@std@@PAX@std@@@std@@@?$_Tree_val@U?$_Tree_simple_types@U?$pair@$$CBKPAVCEffectInstance@@@std@@@std@@@std@@QAEXAAV?$allocator@U?$_Tree_node@U?$pair@$$CBKPAVCEffectInstance@@@std@@PAX@std@@@1@PAU?$_Tree_node@U?$pair@$$CBKPAVCEffectInstance@@@std@@PAX@1@@Z 00443e90 f i EffectLib:EffectManager.obj
 0001:00042e90       ??$_Erase_tree@V?$allocator@U?$_Tree_node@U?$pair@$$CBKPAVCSpeedTreeWrapper@@@std@@PAX@std@@@std@@@?$_Tree_val@U?$_Tree_simple_types@U?$pair@$$CBKPAVCSpeedTreeWrapper@@@std@@@std@@@std@@QAEXAAV?$allocator@U?$_Tree_node@U?$pair@$$CBKPAVCSpeedTreeWrapper@@@std@@PAX@std@@@1@PAU?$_Tree_node@U?$pair@$$CBKPAVCSpeedTreeWrapper@@@std@@PAX@1@@Z 00443e90 f i SpeedTreeLib:SpeedTreeForest.obj
 0001:00042e90       ??$_Erase_tree@V?$allocator@U?$_Tree_node@U?$pair@QAVCGraphicThingInstance@@K@std@@PAX@std@@@std@@@?$_Tree_val@U?$_Tree_simple_types@U?$pair@QAVCGraphicThingInstance@@K@std@@@std@@@std@@QAEXAAV?$allocator@U?$_Tree_node@U?$pair@QAVCGraphicThingInstance@@K@std@@PAX@std@@@1@PAU?$_Tree_node@U?$pair@QAVCGraphicThingInstance@@K@std@@PAX@1@@Z 00443e90 f i GameLib:Area.obj
 0001:00042e90       ??$_Erase_tree@V?$allocator@U?$_Tree_node@U?$pair@$$CBKPAUSMobTable@CPythonNonPlayer@@@std@@PAX@std@@@std@@@?$_Tree_val@U?$_Tree_simple_types@U?$pair@$$CBKPAUSMobTable@CPythonNonPlayer@@@std@@@std@@@std@@QAEXAAV?$allocator@U?$_Tree_node@U?$pair@$$CBKPAUSMobTable@CPythonNonPlayer@@@std@@PAX@std@@@1@PAU?$_Tree_node@U?$pair@$$CBKPAUSMobTable@CPythonNonPlayer@@@std@@PAX@1@@Z 00443e90 f i PythonNonPlayer.obj
 0001:00042e90       ??$_Erase_tree@V?$allocator@U?$_Tree_node@U?$pair@$$CBMPAVCInstanceBase@@@std@@PAX@std@@@std@@@?$_Tree_val@U?$_Tree_simple_types@U?$pair@$$CBMPAVCInstanceBase@@@std@@@std@@@std@@QAEXAAV?$allocator@U?$_Tree_node@U?$pair@$$CBMPAVCInstanceBase@@@std@@PAX@std@@@1@PAU?$_Tree_node@U?$pair@$$CBMPAVCInstanceBase@@@std@@PAX@1@@Z 00443e90 f i InstanceBaseBattle.obj
 0001:00042e90       ??$_Erase_tree@V?$allocator@U?$_Tree_node@U?$pair@$$CBJPAVCResource@@@std@@PAX@std@@@std@@@?$_Tree_val@U?$_Tree_simple_types@U?$pair@$$CBJPAVCResource@@@std@@@std@@@std@@QAEXAAV?$allocator@U?$_Tree_node@U?$pair@$$CBJPAVCResource@@@std@@PAX@std@@@1@PAU?$_Tree_node@U?$pair@$$CBJPAVCResource@@@std@@PAX@1@@Z 00443e90 f i EterLib:ResourceManager.obj
 0001:00042e90       ??$_Erase_tree@V?$allocator@U?$_Tree_node@U?$pair@$$CBKPAVCResource@@@std@@PAX@std@@@std@@@?$_Tree_val@U?$_Tree_simple_types@U?$pair@$$CBKPAVCResource@@@std@@@std@@@std@@QAEXAAV?$allocator@U?$_Tree_node@U?$pair@$$CBKPAVCResource@@@std@@PAX@std@@@1@PAU?$_Tree_node@U?$pair@$$CBKPAVCResource@@@std@@PAX@1@@Z 00443e90 f i EterLib:ResourceManager.obj
 0001:00042e90       ??$_Erase_tree@V?$allocator@U?$_Tree_node@U?$pair@$$CBEPAVCCamera@@@std@@PAX@std@@@std@@@?$_Tree_val@U?$_Tree_simple_types@U?$pair@$$CBEPAVCCamera@@@std@@@std@@@std@@QAEXAAV?$allocator@U?$_Tree_node@U?$pair@$$CBEPAVCCamera@@@std@@PAX@std@@@1@PAU?$_Tree_node@U?$pair@$$CBEPAVCCamera@@@std@@PAX@1@@Z 00443e90 f i EterLib:Camera.obj
 0001:00042e90       ??$_Erase_tree_and_orphan@V?$allocator@U?$_Tree_node@U?$pair@QAVCActorInstance@@M@std@@PAX@std@@@std@@@?$_Tree_val@U?$_Tree_simple_types@U?$pair@QAVCActorInstance@@M@std@@@std@@@std@@QAEXAAV?$allocator@U?$_Tree_node@U?$pair@QAVCActorInstance@@M@std@@PAX@std@@@1@PAU?$_Tree_node@U?$pair@QAVCActorInstance@@M@std@@PAX@1@@Z 00443e90 f i GameLib:ActorInstanceCollisionDetection.obj
 0001:00042e90       ??$_Erase_tree@V?$allocator@U?$_Tree_node@U?$pair@$$CBKPAVCSoundData@@@std@@PAX@std@@@std@@@?$_Tree_val@U?$_Tree_simple_types@U?$pair@$$CBKPAVCSoundData@@@std@@@std@@@std@@QAEXAAV?$allocator@U?$_Tree_node@U?$pair@$$CBKPAVCSoundData@@@std@@PAX@std@@@1@PAU?$_Tree_node@U?$pair@$$CBKPAVCSoundData@@@std@@PAX@1@@Z 00443e90 f i MilesLib:SoundBase.obj
 0001:00042e90       ??$_Erase_tree@V?$allocator@U?$_Tree_node@U?$pair@$$CBKPAVCEffectData@@@std@@PAX@std@@@std@@@?$_Tree_val@U?$_Tree_simple_types@U?$pair@$$CBKPAVCEffectData@@@std@@@std@@@std@@QAEXAAV?$allocator@U?$_Tree_node@U?$pair@$$CBKPAVCEffectData@@@std@@PAX@std@@@1@PAU?$_Tree_node@U?$pair@$$CBKPAVCEffectData@@@std@@PAX@1@@Z 00443e90 f i EffectLib:EffectManager.obj
 0001:00042e90       ??$_Erase_tree@V?$allocator@U?$_Tree_node@U?$pair@$$CBHPAE@std@@PAX@std@@@std@@@?$_Tree_val@U?$_Tree_simple_types@U?$pair@$$CBHPAE@std@@@std@@@std@@QAEXAAV?$allocator@U?$_Tree_node@U?$pair@$$CBHPAE@std@@PAX@std@@@1@PAU?$_Tree_node@U?$pair@$$CBHPAE@std@@PAX@1@@Z 00443e90 f i GameLib:MapOutdoor.obj
 0001:00042e90       ??$_Erase_tree@V?$allocator@U?$_Tree_node@U?$pair@$$CBKPAVCGuildMarkImage@@@std@@PAX@std@@@std@@@?$_Tree_val@U?$_Tree_simple_types@U?$pair@$$CBKPAVCGuildMarkImage@@@std@@@std@@@std@@QAEXAAV?$allocator@U?$_Tree_node@U?$pair@$$CBKPAVCGuildMarkImage@@@std@@PAX@std@@@1@PAU?$_Tree_node@U?$pair@$$CBKPAVCGuildMarkImage@@@std@@PAX@1@@Z 00443e90 f i MarkManager.obj
 0001:00042e90       ??$_Erase_tree@V?$allocator@U?$_Tree_node@U?$pair@$$CBGPAUHFONT__@@@std@@PAX@std@@@std@@@?$_Tree_val@U?$_Tree_simple_types@U?$pair@$$CBGPAUHFONT__@@@std@@@std@@@std@@QAEXAAV?$allocator@U?$_Tree_node@U?$pair@$$CBGPAUHFONT__@@@std@@PAX@std@@@1@PAU?$_Tree_node@U?$pair@$$CBGPAUHFONT__@@@std@@PAX@1@@Z 00443e90 f i EterLib:GrpFontTexture.obj
 0001:00042e90       ??$_Erase_tree@V?$allocator@U?$_Tree_node@U?$pair@$$CBKPAVCLight@@@std@@PAX@std@@@std@@@?$_Tree_val@U?$_Tree_simple_types@U?$pair@$$CBKPAVCLight@@@std@@@std@@@std@@QAEXAAV?$allocator@U?$_Tree_node@U?$pair@$$CBKPAVCLight@@@std@@PAX@std@@@1@PAU?$_Tree_node@U?$pair@$$CBKPAVCLight@@@std@@PAX@1@@Z 00443e90 f i EterLib:GrpLightManager.obj
 0001:00042e90       ??$_Erase_tree@V?$allocator@U?$_Tree_node@U?$pair@$$CBGPAUSMotionModeData@CRaceData@@@std@@PAX@std@@@std@@@?$_Tree_val@U?$_Tree_simple_types@U?$pair@$$CBGPAUSMotionModeData@CRaceData@@@std@@@std@@@std@@QAEXAAV?$allocator@U?$_Tree_node@U?$pair@$$CBGPAUSMotionModeData@CRaceData@@@std@@PAX@std@@@1@PAU?$_Tree_node@U?$pair@$$CBGPAUSMotionModeData@CRaceData@@@std@@PAX@1@@Z 00443e90 f i GameLib:RaceData.obj
 0001:00042e90       ??$_Erase_tree@V?$allocator@U?$_Tree_node@U?$pair@$$CBKK@std@@PAX@std@@@std@@@?$_Tree_val@U?$_Tree_simple_types@U?$pair@$$CBKK@std@@@std@@@std@@QAEXAAV?$allocator@U?$_Tree_node@U?$pair@$$CBKK@std@@PAX@std@@@1@PAU?$_Tree_node@U?$pair@$$CBKK@std@@PAX@1@@Z 00443e90 f i InstanceBase.obj
 0001:00042e90       ??$_Erase_tree@V?$allocator@U?$_Tree_node@U?$pair@$$CBHP6APAVCResource@@PBD@Z@std@@PAX@std@@@std@@@?$_Tree_val@U?$_Tree_simple_types@U?$pair@$$CBHP6APAVCResource@@PBD@Z@std@@@std@@@std@@QAEXAAV?$allocator@U?$_Tree_node@U?$pair@$$CBHP6APAVCResource@@PBD@Z@std@@PAX@std@@@1@PAU?$_Tree_node@U?$pair@$$CBHP6APAVCResource@@PBD@Z@std@@PAX@1@@Z 00443e90 f i EterLib:ResourceManager.obj
 0001:00042e90       ??$_Erase_tree@V?$allocator@U?$_Tree_node@U?$pair@$$CBKPAUSTextTail@CPythonTextTail@@@std@@PAX@std@@@std@@@?$_Tree_val@U?$_Tree_simple_types@U?$pair@$$CBKPAUSTextTail@CPythonTextTail@@@std@@@std@@@std@@QAEXAAV?$allocator@U?$_Tree_node@U?$pair@$$CBKPAUSTextTail@CPythonTextTail@@@std@@PAX@std@@@1@PAU?$_Tree_node@U?$pair@$$CBKPAUSTextTail@CPythonTextTail@@@std@@PAX@1@@Z 00443e90 f i PythonTextTail.obj
 0001:00042e90       ??$_Erase_tree@V?$allocator@U?$_Tree_node@U?$pair@$$CBKPAUSGroundItemInstance@CPythonItem@@@std@@PAX@std@@@std@@@?$_Tree_val@U?$_Tree_simple_types@U?$pair@$$CBKPAUSGroundItemInstance@CPythonItem@@@std@@@std@@@std@@QAEXAAV?$allocator@U?$_Tree_node@U?$pair@$$CBKPAUSGroundItemInstance@CPythonItem@@@std@@PAX@std@@@1@PAU?$_Tree_node@U?$pair@$$CBKPAUSGroundItemInstance@CPythonItem@@@std@@PAX@1@@Z 00443e90 f i PythonItem.obj
 0001:00042e90       ??$_Erase_tree@V?$allocator@U?$_Tree_node@U?$pair@$$CBKPAVCFlyingData@@@std@@PAX@std@@@std@@@?$_Tree_val@U?$_Tree_simple_types@U?$pair@$$CBKPAVCFlyingData@@@std@@@std@@@std@@QAEXAAV?$allocator@U?$_Tree_node@U?$pair@$$CBKPAVCFlyingData@@@std@@PAX@std@@@1@PAU?$_Tree_node@U?$pair@$$CBKPAVCFlyingData@@@std@@PAX@1@@Z 00443e90 f i GameLib:FlyingObjectManager.obj
 0001:00042e90       ??$_Erase_tree@V?$allocator@U?$_Tree_node@U?$pair@$$CBHPAVCWindow@UI@@@std@@PAX@std@@@std@@@?$_Tree_val@U?$_Tree_simple_types@U?$pair@$$CBHPAVCWindow@UI@@@std@@@std@@@std@@QAEXAAV?$allocator@U?$_Tree_node@U?$pair@$$CBHPAVCWindow@UI@@@std@@PAX@std@@@1@PAU?$_Tree_node@U?$pair@$$CBHPAVCWindow@UI@@@std@@PAX@1@@Z 00443e90 f i EterPythonLib:PythonWindowManager.obj
 0001:00042e90       ??$_Erase_tree@V?$allocator@U?$_Tree_node@U?$pair@$$CBKPAVCRaceData@@@std@@PAX@std@@@std@@@?$_Tree_val@U?$_Tree_simple_types@U?$pair@$$CBKPAVCRaceData@@@std@@@std@@@std@@QAEXAAV?$allocator@U?$_Tree_node@U?$pair@$$CBKPAVCRaceData@@@std@@PAX@std@@@1@PAU?$_Tree_node@U?$pair@$$CBKPAVCRaceData@@@std@@PAX@1@@Z 00443e90 f i GameLib:RaceManager.obj
 0001:00042e90       ??$_Erase_tree@V?$allocator@U?$_Tree_node@U?$pair@$$CBKPAVCItemData@@@std@@PAX@std@@@std@@@?$_Tree_val@U?$_Tree_simple_types@U?$pair@$$CBKPAVCItemData@@@std@@@std@@@std@@QAEXAAV?$allocator@U?$_Tree_node@U?$pair@$$CBKPAVCItemData@@@std@@PAX@std@@@1@PAU?$_Tree_node@U?$pair@$$CBKPAVCItemData@@@std@@PAX@1@@Z 00443e90 f i GameLib:ItemManager.obj
 0001:00042e90       ??$_Erase_tree@V?$allocator@U?$_Tree_node@U?$pair@$$CBKPAVCProperty@@@std@@PAX@std@@@std@@@?$_Tree_val@U?$_Tree_simple_types@U?$pair@$$CBKPAVCProperty@@@std@@@std@@@std@@QAEXAAV?$allocator@U?$_Tree_node@U?$pair@$$CBKPAVCProperty@@@std@@PAX@std@@@1@PAU?$_Tree_node@U?$pair@$$CBKPAVCProperty@@@std@@PAX@1@@Z 00443e90 f i GameLib:PropertyManager.obj
 0001:00042e90       ??$_Erase_tree@V?$allocator@U?$_Tree_node@U?$pair@$$CBKPAVCTextFileLoader@@@std@@PAX@std@@@std@@@?$_Tree_val@U?$_Tree_simple_types@U?$pair@$$CBKPAVCTextFileLoader@@@std@@@std@@@std@@QAEXAAV?$allocator@U?$_Tree_node@U?$pair@$$CBKPAVCTextFileLoader@@@std@@PAX@std@@@1@PAU?$_Tree_node@U?$pair@$$CBKPAVCTextFileLoader@@@std@@PAX@1@@Z 00443e90 f i EterLib:TextFileLoader.obj
 0001:00042e90       ??$_Erase_tree@V?$allocator@U?$_Tree_node@U?$pair@$$CBKPAUSEnvironmentData@@@std@@PAX@std@@@std@@@?$_Tree_val@U?$_Tree_simple_types@U?$pair@$$CBKPAUSEnvironmentData@@@std@@@std@@@std@@QAEXAAV?$allocator@U?$_Tree_node@U?$pair@$$CBKPAUSEnvironmentData@@@std@@PAX@std@@@1@PAU?$_Tree_node@U?$pair@$$CBKPAUSEnvironmentData@@@std@@PAX@1@@Z 00443e90 f i GameLib:MapManager.obj
 0001:00042e90       ??$_Erase_tree@V?$allocator@U?$_Tree_node@U?$pair@$$CBHPAVCGraphicImage@@@std@@PAX@std@@@std@@@?$_Tree_val@U?$_Tree_simple_types@U?$pair@$$CBHPAVCGraphicImage@@@std@@@std@@@std@@QAEXAAV?$allocator@U?$_Tree_node@U?$pair@$$CBHPAVCGraphicImage@@@std@@PAX@std@@@1@PAU?$_Tree_node@U?$pair@$$CBHPAVCGraphicImage@@@std@@PAX@1@@Z 00443e90 f i PythonPlayerModule.obj
 0001:00042e90       ??$_Erase_tree@V?$allocator@U?$_Tree_node@U?$pair@$$CBKPAVCInstanceBase@@@std@@PAX@std@@@std@@@?$_Tree_val@U?$_Tree_simple_types@U?$pair@$$CBKPAVCInstanceBase@@@std@@@std@@@std@@QAEXAAV?$allocator@U?$_Tree_node@U?$pair@$$CBKPAVCInstanceBase@@@std@@PAX@std@@@1@PAU?$_Tree_node@U?$pair@$$CBKPAVCInstanceBase@@@std@@PAX@1@@Z 00443e90 f i PythonCharacterManager.obj
 0001:00042e90       ??$_Erase_tree@V?$allocator@U?$_Tree_node@U?$pair@$$CBHPAX@std@@PAX@std@@@std@@@?$_Tree_val@U?$_Tree_simple_types@U?$pair@$$CBHPAX@std@@@std@@@std@@QAEXAAV?$allocator@U?$_Tree_node@U?$pair@$$CBHPAX@std@@PAX@std@@@1@PAU?$_Tree_node@U?$pair@$$CBHPAX@std@@PAX@1@@Z 00443e90 f i PythonApplication.obj
 0001:00042e90       ??$_Erase_tree@V?$allocator@U?$_Tree_node@U?$pair@QAVCResource@@K@std@@PAX@std@@@std@@@?$_Tree_val@U?$_Tree_simple_types@U?$pair@QAVCResource@@K@std@@@std@@@std@@QAEXAAV?$allocator@U?$_Tree_node@U?$pair@QAVCResource@@K@std@@PAX@std@@@1@PAU?$_Tree_node@U?$pair@QAVCResource@@K@std@@PAX@1@@Z 00443e90 f i EterLib:ResourceManager.obj
 0001:00042e90       ??$_Erase_tree@V?$allocator@U?$_Tree_node@U?$pair@QAVCActorInstance@@M@std@@PAX@std@@@std@@@?$_Tree_val@U?$_Tree_simple_types@U?$pair@QAVCActorInstance@@M@std@@@std@@@std@@QAEXAAV?$allocator@U?$_Tree_node@U?$pair@QAVCActorInstance@@M@std@@PAX@std@@@1@PAU?$_Tree_node@U?$pair@QAVCActorInstance@@M@std@@PAX@1@@Z 00443e90 f i GameLib:ActorInstance.obj
 0001:00042ed0       ??$_Copy_memmove@PAPAUSEventSet@CPythonEventManager@@PAPAU12@@std@@YAPAPAUSEventSet@CPythonEventManager@@PAPAU12@00@Z 00443ed0 f i PythonEventManager.obj
 0001:00042ed0       ??$_Copy_memmove@PAPAPAUSChatLine@CPythonChat@@PAPAPAU12@@std@@YAPAPAPAUSChatLine@CPythonChat@@PAPAPAU12@00@Z 00443ed0 f i PythonChat.obj
 0001:00042ed0       ??$_Copy_memmove@PAPAUSGroundItemInstance@CPythonItem@@PAPAU12@@std@@YAPAPAUSGroundItemInstance@CPythonItem@@PAPAU12@00@Z 00443ed0 f i PythonItem.obj
 0001:00042ed0       ??$_Copy_memmove@PAUTMarkPosition@CPythonMiniMap@@PAU12@@std@@YAPAUTMarkPosition@CPythonMiniMap@@PAU12@00@Z 00443ed0 f i PythonMiniMap.obj
 0001:00042ed0       ??$_Copy_memmove@PADPAD@std@@YAPADPAD00@Z 00443ed0 f i PythonNetworkStreamPhaseGame.obj
 0001:00042ed0       ??$_Copy_memmove@PAPAUSChatLine@CWhisper@@PAPAU12@@std@@YAPAPAUSChatLine@CWhisper@@PAPAU12@00@Z 00443ed0 f i PythonChat.obj
 0001:00042ed0       ??$_Copy_memmove@PAPAVCInstanceBase@@PAPAV1@@std@@YAPAPAVCInstanceBase@@PAPAV1@00@Z 00443ed0 f i InstanceBase.obj
 0001:00042ed0       ??$_Copy_memmove@PAUTGuildAreaInfo@CPythonMiniMap@@PAU12@@std@@YAPAUTGuildAreaInfo@CPythonMiniMap@@PAU12@00@Z 00443ed0 f i PythonMiniMap.obj
 0001:00042ed0       ??$_Copy_memmove@PAPAUSChatLine@CPythonChat@@PAPAU12@@std@@YAPAPAUSChatLine@CPythonChat@@PAPAU12@00@Z 00443ed0 f i PythonChat.obj
 0001:00042ed0       ??$_Copy_memmove@PAPAVCWhisper@@PAPAV1@@std@@YAPAPAVCWhisper@@PAPAV1@00@Z 00443ed0 f i PythonChat.obj
 0001:00042ed0       ??$_Copy_memmove@PAUSRequireStatData@CPythonSkill@@PAU12@@std@@YAPAUSRequireStatData@CPythonSkill@@PAU12@00@Z 00443ed0 f i PythonSkill.obj
 0001:00042ed0       ??$_Copy_memmove@PAPAPAUSChatLine@CWhisper@@PAPAPAU12@@std@@YAPAPAPAUSChatLine@CWhisper@@PAPAPAU12@00@Z 00443ed0 f i PythonChat.obj
 0001:00042ed0       ??$_Copy_memmove@PAUSVictim@CPythonPlayerEventHandler@@PAU12@@std@@YAPAUSVictim@CPythonPlayerEventHandler@@PAU12@00@Z 00443ed0 f i PythonPlayerEventHandler.obj
 0001:00042ed0       ??$_Copy_memmove@PAPAUSTextTail@CPythonTextTail@@PAPAU12@@std@@YAPAPAUSTextTail@CPythonTextTail@@PAPAU12@00@Z 00443ed0 f i PythonTextTail.obj
 0001:00042ed0       ??$_Copy_memmove@PAUpacket_item@@PAU1@@std@@YAPAUpacket_item@@PAU1@00@Z 00443ed0 f i PythonSafeBox.obj
 0001:00042ef0       _fmodf                     00443ef0 f i InstanceBase.obj
 0001:00042f30       ___local_stdio_printf_options 00443f30 f i InstanceBase.obj
 0001:00042f40       __vsnprintf_l              00443f40 f i InstanceBase.obj
 0001:00042f80       _sprintf                   00443f80 f i InstanceBase.obj
 0001:00042fa0       ?resize@?$basic_string@DU?$char_traits@D@std@@V?$allocator@D@2@@std@@QAEXID@Z 00443fa0 f i InstanceBase.obj
 0001:00043100       ?NEW_UnsignedDegreeToSignedDegree@@YAMM@Z 00444100 f   InstanceBaseBattle.obj
 0001:00043140       ?NEW_GetSignedDegreeFromDirPixelPosition@@YAMABUD3DXVECTOR3@@@Z 00444140 f   InstanceBaseBattle.obj
 0001:000431f0       ?IsFlyTargetObject@CInstanceBase@@QAE_NXZ 004441f0 f   InstanceBaseBattle.obj
 0001:00043200       ?ClearFlyTargetInstance@CInstanceBase@@QAEXXZ 00444200 f   InstanceBaseBattle.obj
 0001:00043210       ?SetFlyTargetInstance@CInstanceBase@@QAEXAAV1@@Z 00444210 f   InstanceBaseBattle.obj
 0001:000432a0       ?AddFlyTargetPosition@CInstanceBase@@QAEXABUD3DXVECTOR3@@@Z 004442a0 f   InstanceBaseBattle.obj
 0001:00043320       ?AddFlyTargetInstance@CInstanceBase@@QAEXAAV1@@Z 00444320 f   InstanceBaseBattle.obj
 0001:000433b0       ?NEW_GetDistanceFromDestInstance@CInstanceBase@@QAEMAAV1@@Z 004443b0 f   InstanceBaseBattle.obj
 0001:000433e0       ?NEW_GetDistanceFromDestPixelPosition@CInstanceBase@@QAEMABUD3DXVECTOR3@@@Z 004443e0 f   InstanceBaseBattle.obj
 0001:00043430       ?NEW_GetDistanceFromDirPixelPosition@CInstanceBase@@QAEMABUD3DXVECTOR3@@@Z 00444430 f   InstanceBaseBattle.obj
 0001:00043470       ?NEW_GetRotation@CInstanceBase@@QAEMXZ 00444470 f   InstanceBaseBattle.obj
 0001:00043480       ?NEW_GetRotationFromDirPixelPosition@CInstanceBase@@QAEMABUD3DXVECTOR3@@@Z 00444480 f   InstanceBaseBattle.obj
 0001:00043490       ?NEW_GetRotationFromDestPixelPosition@CInstanceBase@@QAEMABUD3DXVECTOR3@@@Z 00444490 f   InstanceBaseBattle.obj
 0001:000434e0       ?NEW_GetRotationFromDestInstance@CInstanceBase@@QAEMAAV1@@Z 004444e0 f   InstanceBaseBattle.obj
 0001:00043510       ?NEW_GetRandomPositionInFanRange@CInstanceBase@@QAEXAAV1@PAUD3DXVECTOR3@@@Z 00444510 f   InstanceBaseBattle.obj
 0001:00043600       ?NEW_GetFrontInstance@CInstanceBase@@QAE_NPAPAV1@M@Z 00444600 f   InstanceBaseBattle.obj
 0001:00043790       ??1?$map@GPAUHFONT__@@U?$less@G@std@@V?$allocator@U?$pair@$$CBGPAUHFONT__@@@std@@@3@@std@@QAE@XZ 00444790 f i EterLib:GrpFontTexture.obj
 0001:00043790       ??1?$multimap@MPAVCInstanceBase@@U?$less@M@std@@V?$allocator@U?$pair@$$CBMPAVCInstanceBase@@@std@@@3@@std@@QAE@XZ 00444790 f i InstanceBaseBattle.obj
 0001:00043790       ??1?$map@KPAVCResource@@U?$less@K@std@@V?$allocator@U?$pair@$$CBKPAVCResource@@@std@@@3@@std@@QAE@XZ 00444790 f i EterLib:ResourceManager.obj
 0001:00043790       ??1?$map@EPAVCCamera@@U?$less@E@std@@V?$allocator@U?$pair@$$CBEPAVCCamera@@@std@@@3@@std@@QAE@XZ 00444790 f i EterLib:Camera.obj
 0001:00043790       ??1?$map@HPAEU?$less@H@std@@V?$allocator@U?$pair@$$CBHPAE@std@@@2@@std@@QAE@XZ 00444790 f i GameLib:MapOutdoor.obj
 0001:00043790       ??1?$map@KPAUSTextTail@CPythonTextTail@@U?$less@K@std@@V?$allocator@U?$pair@$$CBKPAUSTextTail@CPythonTextTail@@@std@@@4@@std@@QAE@XZ 00444790 f i PythonTextTail.obj
 0001:00043790       ??1?$map@KPAVCRaceData@@U?$less@K@std@@V?$allocator@U?$pair@$$CBKPAVCRaceData@@@std@@@3@@std@@QAE@XZ 00444790 f i GameLib:RaceManager.obj
 0001:00043790       ??1?$map@HPAXU?$less@H@std@@V?$allocator@U?$pair@$$CBHPAX@std@@@2@@std@@QAE@XZ 00444790 f i PythonApplication.obj
 0001:00043790       ??1?$map@HP6APAVCResource@@PBD@ZU?$less@H@std@@V?$allocator@U?$pair@$$CBHP6APAVCResource@@PBD@Z@std@@@3@@std@@QAE@XZ 00444790 f i EterLib:ResourceManager.obj
 0001:00043790       ??1?$map@GPAUSMotionModeData@CRaceData@@U?$less@G@std@@V?$allocator@U?$pair@$$CBGPAUSMotionModeData@CRaceData@@@std@@@4@@std@@QAE@XZ 00444790 f i GameLib:RaceData.obj
 0001:00043790       ??1?$map@PAVCGraphicThingInstance@@KU?$less@PAVCGraphicThingInstance@@@std@@V?$allocator@U?$pair@QAVCGraphicThingInstance@@K@std@@@3@@std@@QAE@XZ 00444790 f i GameLib:Area.obj
 0001:00043790       ??1?$map@KPAVCFlyingData@@U?$less@K@std@@V?$allocator@U?$pair@$$CBKPAVCFlyingData@@@std@@@3@@std@@QAE@XZ 00444790 f i GameLib:FlyingObjectManager.obj
 0001:00043790       ??1?$map@KPAVCProperty@@U?$less@K@std@@V?$allocator@U?$pair@$$CBKPAVCProperty@@@std@@@3@@std@@QAE@XZ 00444790 f i GameLib:PropertyManager.obj
 0001:00043790       ??1?$map@KPAVCSpeedTreeWrapper@@U?$less@K@std@@V?$allocator@U?$pair@$$CBKPAVCSpeedTreeWrapper@@@std@@@3@@std@@QAE@XZ 00444790 f i SpeedTreeLib:SpeedTreeForest.obj
 0001:00043790       ??1?$map@HPAVCWindow@UI@@U?$less@H@std@@V?$allocator@U?$pair@$$CBHPAVCWindow@UI@@@std@@@4@@std@@QAE@XZ 00444790 f i EterPythonLib:PythonWindowManager.obj
 0001:00043790       ??1?$map@KPAVCGuildMarkImage@@U?$less@K@std@@V?$allocator@U?$pair@$$CBKPAVCGuildMarkImage@@@std@@@3@@std@@QAE@XZ 00444790 f i MarkManager.obj
 0001:00043790       ??1?$map@KPAVCEffectData@@U?$less@K@std@@V?$allocator@U?$pair@$$CBKPAVCEffectData@@@std@@@3@@std@@QAE@XZ 00444790 f i EffectLib:EffectManager.obj
 0001:00043790       ??1?$map@KPAVCInstanceBase@@U?$less@K@std@@V?$allocator@U?$pair@$$CBKPAVCInstanceBase@@@std@@@3@@std@@QAE@XZ 00444790 f i PythonCharacterManager.obj
 0001:00043790       ??1?$map@PAVCResource@@KU?$less@PAVCResource@@@std@@V?$allocator@U?$pair@QAVCResource@@K@std@@@3@@std@@QAE@XZ 00444790 f i EterLib:ResourceManager.obj
 0001:00043790       ??1?$map@KHU?$less@K@std@@V?$allocator@U?$pair@$$CBKH@std@@@2@@std@@QAE@XZ 00444790 f i GameLib:MapOutdoor.obj
 0001:00043790       ??1?$map@KPAVCEffectInstance@@U?$less@K@std@@V?$allocator@U?$pair@$$CBKPAVCEffectInstance@@@std@@@3@@std@@QAE@XZ 00444790 f i EffectLib:EffectManager.obj
 0001:00043790       ??1?$map@KPAUSEnvironmentData@@U?$less@K@std@@V?$allocator@U?$pair@$$CBKPAUSEnvironmentData@@@std@@@3@@std@@QAE@XZ 00444790 f i GameLib:MapManager.obj
 0001:000437a0       ?NEW_GetInstanceVectorInFanRange@CInstanceBase@@QAE_NMAAV1@PAV?$vector@PAVCInstanceBase@@V?$allocator@PAVCInstanceBase@@@std@@@std@@@Z 004447a0 f   InstanceBaseBattle.obj
 0001:000439a0       ?NEW_GetInstanceVectorInCircleRange@CInstanceBase@@QAE_NMPAV?$vector@PAVCInstanceBase@@V?$allocator@PAVCInstanceBase@@@std@@@std@@@Z 004449a0 f   InstanceBaseBattle.obj
 0001:00043b30       ?NEW_IsClickableDistanceDestPixelPosition@CInstanceBase@@QAEHABUD3DXVECTOR3@@@Z 00444b30 f   InstanceBaseBattle.obj
 0001:00043b50       ?NEW_IsClickableDistanceDestInstance@CInstanceBase@@QAEHAAV1@@Z 00444b50 f   InstanceBaseBattle.obj
 0001:00043bd0       ?NEW_UseSkill@CInstanceBase@@QAE_NIII_N@Z 00444bd0 f   InstanceBaseBattle.obj
 0001:00043cb0       ?NEW_Attack@CInstanceBase@@QAEXXZ 00444cb0 f   InstanceBaseBattle.obj
 0001:00043cd0       ?NEW_Attack@CInstanceBase@@QAEXM@Z 00444cd0 f   InstanceBaseBattle.obj
 0001:00043d50       ?NEW_AttackToDestPixelPositionDirection@CInstanceBase@@QAEXABUD3DXVECTOR3@@@Z 00444d50 f   InstanceBaseBattle.obj
 0001:00043d70       ?NEW_AttackToDestInstanceDirection@CInstanceBase@@QAE_NAAV1@PAVIFlyEventHandler@@@Z 00444d70 f   InstanceBaseBattle.obj
 0001:00043d80       ?NEW_AttackToDestInstanceDirection@CInstanceBase@@QAE_NAAV1@@Z 00444d80 f   InstanceBaseBattle.obj
 0001:00043db0       ?AttackProcess@CInstanceBase@@IAEXXZ 00444db0 f   InstanceBaseBattle.obj
 0001:00043e30       ?InputNormalAttack@CInstanceBase@@QAEXM@Z 00444e30 f   InstanceBaseBattle.obj
 0001:00043e50       ?InputComboAttack@CInstanceBase@@QAEXM@Z 00444e50 f   InstanceBaseBattle.obj
 0001:00043e70       ?RunNormalAttack@CInstanceBase@@QAEXM@Z 00444e70 f   InstanceBaseBattle.obj
 0001:00043eb0       ?RunComboAttack@CInstanceBase@@QAEXMK@Z 00444eb0 f   InstanceBaseBattle.obj
 0001:00043ef0       ?CheckAdvancing@CInstanceBase@@QAEHXZ 00444ef0 f   InstanceBaseBattle.obj
 0001:00044210       ?CheckAttacking@CInstanceBase@@QAEHAAV1@@Z 00445210 f   InstanceBaseBattle.obj
 0001:00044260       ?IsUsingSkill@CInstanceBase@@QAEHXZ 00445260 f   InstanceBaseBattle.obj
 0001:00044270       ?IsUsingMovingSkill@CInstanceBase@@QAEHXZ 00445270 f   InstanceBaseBattle.obj
 0001:00044280       ?CanAttackHorseLevel@CInstanceBase@@QAEHXZ 00445280 f   InstanceBaseBattle.obj
 0001:000442a0       ?IsAffect@CInstanceBase@@QAE_NI@Z 004452a0 f   InstanceBaseBattle.obj
 0001:000442b0       ?GetComboIndex@CInstanceBase@@QAEKXZ 004452b0 f   InstanceBaseBattle.obj
 0001:000442c0       ?Revive@CInstanceBase@@QAEXXZ 004452c0 f   InstanceBaseBattle.obj
 0001:000442e0       ?Stun@CInstanceBase@@QAEXXZ 004452e0 f   InstanceBaseBattle.obj
 0001:00044300       ?Die@CInstanceBase@@QAEXXZ 00445300 f   InstanceBaseBattle.obj
 0001:00044340       ?Hide@CInstanceBase@@QAEXXZ 00445340 f   InstanceBaseBattle.obj
 0001:00044380       ?Show@CInstanceBase@@QAEXXZ 00445380 f   InstanceBaseBattle.obj
 0001:000443c0       ??1?$_Tree@V?$_Tmap_traits@PAVCActorInstance@@MU?$less@PAVCActorInstance@@@std@@V?$allocator@U?$pair@QAVCActorInstance@@M@std@@@3@$0A@@std@@@std@@QAE@XZ 004453c0 f i GameLib:ActorInstance.obj
 0001:000443c0       ??1?$_Tree@V?$_Tmap_traits@KPAVCInstanceBase@@U?$less@K@std@@V?$allocator@U?$pair@$$CBKPAVCInstanceBase@@@std@@@3@$0A@@std@@@std@@QAE@XZ 004453c0 f i PythonCharacterManager.obj
 0001:000443c0       ??1?$_Tree@V?$_Tmap_traits@KPAVCEffectInstance@@U?$less@K@std@@V?$allocator@U?$pair@$$CBKPAVCEffectInstance@@@std@@@3@$0A@@std@@@std@@QAE@XZ 004453c0 f i EffectLib:EffectManager.obj
 0001:000443c0       ??1?$_Tree@V?$_Tmap_traits@KPAVCEffectData@@U?$less@K@std@@V?$allocator@U?$pair@$$CBKPAVCEffectData@@@std@@@3@$0A@@std@@@std@@QAE@XZ 004453c0 f i EffectLib:EffectManager.obj
 0001:000443c0       ??1?$_Tree@V?$_Tmap_traits@PAVCGraphicThingInstance@@KU?$less@PAVCGraphicThingInstance@@@std@@V?$allocator@U?$pair@QAVCGraphicThingInstance@@K@std@@@3@$0A@@std@@@std@@QAE@XZ 004453c0 f i GameLib:Area.obj
 0001:000443c0       ??1?$_Tree@V?$_Tmap_traits@KPAVCProperty@@U?$less@K@std@@V?$allocator@U?$pair@$$CBKPAVCProperty@@@std@@@3@$0A@@std@@@std@@QAE@XZ 004453c0 f i GameLib:PropertyManager.obj
 0001:000443c0       ??1?$_Tree@V?$_Tmap_traits@KPAUSMobTable@CPythonNonPlayer@@U?$less@K@std@@V?$allocator@U?$pair@$$CBKPAUSMobTable@CPythonNonPlayer@@@std@@@4@$0A@@std@@@std@@QAE@XZ 004453c0 f i PythonNonPlayer.obj
 0001:000443c0       ??1?$_Tree@V?$_Tmap_traits@KPAVCLight@@U?$less@K@std@@V?$allocator@U?$pair@$$CBKPAVCLight@@@std@@@3@$0A@@std@@@std@@QAE@XZ 004453c0 f i EterLib:GrpLightManager.obj
 0001:000443c0       ??1?$_Tree@V?$_Tmap_traits@KPAUSTextTail@CPythonTextTail@@U?$less@K@std@@V?$allocator@U?$pair@$$CBKPAUSTextTail@CPythonTextTail@@@std@@@4@$0A@@std@@@std@@QAE@XZ 004453c0 f i PythonTextTail.obj
 0001:000443c0       ??1?$_Tree@V?$_Tmap_traits@HPAVCWindow@UI@@U?$less@H@std@@V?$allocator@U?$pair@$$CBHPAVCWindow@UI@@@std@@@4@$0A@@std@@@std@@QAE@XZ 004453c0 f i EterPythonLib:PythonWindowManager.obj
 0001:000443c0       ??1?$_Tree@V?$_Tmap_traits@KHU?$less@K@std@@V?$allocator@U?$pair@$$CBKH@std@@@2@$0A@@std@@@std@@QAE@XZ 004453c0 f i GameLib:MapOutdoor.obj
 0001:000443c0       ??1?$_Tree@V?$_Tmap_traits@KPAVCRaceData@@U?$less@K@std@@V?$allocator@U?$pair@$$CBKPAVCRaceData@@@std@@@3@$0A@@std@@@std@@QAE@XZ 004453c0 f i GameLib:RaceManager.obj
 0001:000443c0       ??1?$_Tree@V?$_Tmap_traits@GPAUSMotionModeData@CRaceData@@U?$less@G@std@@V?$allocator@U?$pair@$$CBGPAUSMotionModeData@CRaceData@@@std@@@4@$0A@@std@@@std@@QAE@XZ 004453c0 f i GameLib:RaceData.obj
 0001:000443c0       ??1?$_Tree@V?$_Tmap_traits@KPAVCSoundData@@U?$less@K@std@@V?$allocator@U?$pair@$$CBKPAVCSoundData@@@std@@@3@$0A@@std@@@std@@QAE@XZ 004453c0 f i MilesLib:SoundBase.obj
 0001:000443c0       ??1?$_Tree@V?$_Tmap_traits@HPAVCGraphicImage@@U?$less@H@std@@V?$allocator@U?$pair@$$CBHPAVCGraphicImage@@@std@@@3@$0A@@std@@@std@@QAE@XZ 004453c0 f i PythonPlayerModule.obj
 0001:000443c0       ??1?$_Tree@V?$_Tmap_traits@JPAVCResource@@U?$less@J@std@@V?$allocator@U?$pair@$$CBJPAVCResource@@@std@@@3@$0A@@std@@@std@@QAE@XZ 004453c0 f i EterLib:ResourceManager.obj
 0001:000443c0       ??1?$_Tree@V?$_Tmap_traits@EPAVCCamera@@U?$less@E@std@@V?$allocator@U?$pair@$$CBEPAVCCamera@@@std@@@3@$0A@@std@@@std@@QAE@XZ 004453c0 f i EterLib:Camera.obj
 0001:000443c0       ??1?$_Tree@V?$_Tmap_traits@KPAVCGuildMarkImage@@U?$less@K@std@@V?$allocator@U?$pair@$$CBKPAVCGuildMarkImage@@@std@@@3@$0A@@std@@@std@@QAE@XZ 004453c0 f i MarkManager.obj
 0001:000443c0       ??1?$_Tree@V?$_Tmap_traits@MPAVCInstanceBase@@U?$less@M@std@@V?$allocator@U?$pair@$$CBMPAVCInstanceBase@@@std@@@3@$00@std@@@std@@QAE@XZ 004453c0 f i InstanceBaseBattle.obj
 0001:000443c0       ??1?$_Tree@V?$_Tmap_traits@KPAVCItemData@@U?$less@K@std@@V?$allocator@U?$pair@$$CBKPAVCItemData@@@std@@@3@$0A@@std@@@std@@QAE@XZ 004453c0 f i GameLib:ItemManager.obj
 0001:000443c0       ??1?$_Tree@V?$_Tmap_traits@KPAVCResource@@U?$less@K@std@@V?$allocator@U?$pair@$$CBKPAVCResource@@@std@@@3@$0A@@std@@@std@@QAE@XZ 004453c0 f i EterLib:ResourceManager.obj
 0001:000443c0       ??1?$_Tree@V?$_Tmap_traits@KPAUSEnvironmentData@@U?$less@K@std@@V?$allocator@U?$pair@$$CBKPAUSEnvironmentData@@@std@@@3@$0A@@std@@@std@@QAE@XZ 004453c0 f i GameLib:MapManager.obj
 0001:000443c0       ??1?$_Tree@V?$_Tmap_traits@KPAVCTextFileLoader@@U?$less@K@std@@V?$allocator@U?$pair@$$CBKPAVCTextFileLoader@@@std@@@3@$0A@@std@@@std@@QAE@XZ 004453c0 f i EterLib:TextFileLoader.obj
 0001:000443c0       ??1?$_Tree@V?$_Tmap_traits@HPAEU?$less@H@std@@V?$allocator@U?$pair@$$CBHPAE@std@@@2@$0A@@std@@@std@@QAE@XZ 004453c0 f i GameLib:MapOutdoor.obj
 0001:000443c0       ??1?$_Tree@V?$_Tmap_traits@HP6APAVCResource@@PBD@ZU?$less@H@std@@V?$allocator@U?$pair@$$CBHP6APAVCResource@@PBD@Z@std@@@3@$0A@@std@@@std@@QAE@XZ 004453c0 f i EterLib:ResourceManager.obj
 0001:000443c0       ??1?$_Tree@V?$_Tmap_traits@HPAXU?$less@H@std@@V?$allocator@U?$pair@$$CBHPAX@std@@@2@$0A@@std@@@std@@QAE@XZ 004453c0 f i PythonApplication.obj
 0001:000443c0       ??1?$_Tree@V?$_Tmap_traits@KPAVCSpeedTreeWrapper@@U?$less@K@std@@V?$allocator@U?$pair@$$CBKPAVCSpeedTreeWrapper@@@std@@@3@$0A@@std@@@std@@QAE@XZ 004453c0 f i SpeedTreeLib:SpeedTreeForest.obj
 0001:000443c0       ??1?$_Tree@V?$_Tmap_traits@KPAVCFlyingData@@U?$less@K@std@@V?$allocator@U?$pair@$$CBKPAVCFlyingData@@@std@@@3@$0A@@std@@@std@@QAE@XZ 004453c0 f i GameLib:FlyingObjectManager.obj
 0001:000443c0       ??1?$_Tree@V?$_Tmap_traits@GPAUHFONT__@@U?$less@G@std@@V?$allocator@U?$pair@$$CBGPAUHFONT__@@@std@@@3@$0A@@std@@@std@@QAE@XZ 004453c0 f i EterLib:GrpFontTexture.obj
 0001:000443c0       ??1?$_Tree@V?$_Tmap_traits@PAVCResource@@KU?$less@PAVCResource@@@std@@V?$allocator@U?$pair@QAVCResource@@K@std@@@3@$0A@@std@@@std@@QAE@XZ 004453c0 f i EterLib:ResourceManager.obj
 0001:00044400       ??E?$_Tree_unchecked_const_iterator@V?$_Tree_val@U?$_Tree_simple_types@PAVCFlyTarget@@@std@@@std@@U_Iterator_base0@2@@std@@QAEAAV01@XZ 00445400 f i GameLib:ActorInstance.obj
 0001:00044400       ??E?$_Tree_unchecked_const_iterator@V?$_Tree_val@U?$_Tree_simple_types@U?$pair@$$CBJPAVCResource@@@std@@@std@@@std@@U_Iterator_base0@2@@std@@QAEAAV01@XZ 00445400 f i EterLib:ResourceManager.obj
 0001:00044400       ??E?$_Tree_unchecked_const_iterator@V?$_Tree_val@U?$_Tree_simple_types@U?$pair@$$CBV?$basic_string@DU?$char_traits@D@std@@V?$allocator@D@2@@std@@M@std@@@std@@@std@@U_Iterator_base0@2@@std@@QAEAAV01@XZ 00445400 f i MilesLib:SoundManager.obj
 0001:00044400       ??E?$_Tree_unchecked_const_iterator@V?$_Tree_val@U?$_Tree_simple_types@U?$pair@$$CBKPAUSGroundItemInstance@CPythonItem@@@std@@@std@@@std@@U_Iterator_base0@2@@std@@QAEAAV01@XZ 00445400 f i PythonItem.obj
 0001:00044400       ??E?$_Tree_unchecked_const_iterator@V?$_Tree_val@U?$_Tree_simple_types@U?$pair@$$CBHPAVCWindow@UI@@@std@@@std@@@std@@U_Iterator_base0@2@@std@@QAEAAV01@XZ 00445400 f i EterPythonLib:PythonWindowManager.obj
 0001:00044400       ??E?$_Tree_unchecked_const_iterator@V?$_Tree_val@U?$_Tree_simple_types@U?$pair@$$CBKPAUSTextTail@CPythonTextTail@@@std@@@std@@@std@@U_Iterator_base0@2@@std@@QAEAAV01@XZ 00445400 f i PythonTextTail.obj
 0001:00044400       ??E?$_Tree_unchecked_const_iterator@V?$_Tree_val@U?$_Tree_simple_types@U?$pair@$$CBKK@std@@@std@@@std@@U_Iterator_base0@2@@std@@QAEAAV01@XZ 00445400 f i InstanceBaseEffect.obj
 0001:00044400       ??E?$_Tree_unchecked_const_iterator@V?$_Tree_val@U?$_Tree_simple_types@U?$pair@$$CBKPAVCEffectInstance@@@std@@@std@@@std@@U_Iterator_base0@2@@std@@QAEAAV01@XZ 00445400 f i EffectLib:EffectManager.obj
 0001:00044400       ??E?$_Tree_unchecked_const_iterator@V?$_Tree_val@U?$_Tree_simple_types@U?$pair@$$CBKPAVCProperty@@@std@@@std@@@std@@U_Iterator_base0@2@@std@@QAEAAV01@XZ 00445400 f i GameLib:PropertyManager.obj
 0001:00044400       ??E?$_Tree_unchecked_const_iterator@V?$_Tree_val@U?$_Tree_simple_types@U?$pair@$$CBEPAVCCamera@@@std@@@std@@@std@@U_Iterator_base0@2@@std@@QAEAAV01@XZ 00445400 f i EterLib:Camera.obj
 0001:00044400       ??E?$_Tree_unchecked_const_iterator@V?$_Tree_val@U?$_Tree_simple_types@U?$pair@$$CBKV?$basic_string@DU?$char_traits@D@std@@V?$allocator@D@2@@std@@@std@@@std@@@std@@U_Iterator_base0@2@@std@@QAEAAV01@XZ 00445400 f i EterLib:ResourceManager.obj
 0001:00044400       ??E?$_Tree_unchecked_const_iterator@V?$_Tree_val@U?$_Tree_simple_types@U?$pair@$$CBKPAVCEffectData@@@std@@@std@@@std@@U_Iterator_base0@2@@std@@QAEAAV01@XZ 00445400 f i EffectLib:EffectManager.obj
 0001:00044400       ??E?$_Tree_unchecked_const_iterator@V?$_Tree_val@U?$_Tree_simple_types@U?$pair@$$CBKPAVCInstanceBase@@@std@@@std@@@std@@U_Iterator_base0@2@@std@@QAEAAV01@XZ 00445400 f i InstanceBaseBattle.obj
 0001:00044400       ??E?$_Tree_iterator@V?$_Tree_val@U?$_Tree_simple_types@U?$pair@$$CBGPAUSMotionModeData@CRaceData@@@std@@@std@@@std@@@std@@QAEAAV01@XZ 00445400 f i GameLib:RaceData.obj
 0001:00044400       ??E?$_Tree_unchecked_const_iterator@V?$_Tree_val@U?$_Tree_simple_types@U?$pair@$$CBKUSNetworkActorData@@@std@@@std@@@std@@U_Iterator_base0@2@@std@@QAEAAV01@XZ 00445400 f i NetworkActorManager.obj
 0001:00044400       ??E?$_Tree_unchecked_const_iterator@V?$_Tree_val@U?$_Tree_simple_types@U?$pair@QAVCResource@@K@std@@@std@@@std@@U_Iterator_base0@2@@std@@QAEAAV01@XZ 00445400 f i EterLib:ResourceManager.obj
 0001:00044400       ??E?$_Tree_unchecked_const_iterator@V?$_Tree_val@U?$_Tree_simple_types@U?$pair@$$CBKPAVCLight@@@std@@@std@@@std@@U_Iterator_base0@2@@std@@QAEAAV01@XZ 00445400 f i EterLib:GrpLightManager.obj
 0001:00044460       ??$insert@$00$0A@@?$_Tree@V?$_Tmap_traits@MPAVCInstanceBase@@U?$less@M@std@@V?$allocator@U?$pair@$$CBMPAVCInstanceBase@@@std@@@3@$00@std@@@std@@QAE?AV?$_Tree_iterator@V?$_Tree_val@U?$_Tree_simple_types@U?$pair@$$CBMPAVCInstanceBase@@@std@@@std@@@std@@@1@$$QAU?$pair@$$CBMPAVCInstanceBase@@@1@@Z 00445460 f i InstanceBaseBattle.obj
 0001:00044550       ??$emplace@U?$pair@MPAVCInstanceBase@@@std@@@?$multimap@MPAVCInstanceBase@@U?$less@M@std@@V?$allocator@U?$pair@$$CBMPAVCInstanceBase@@@std@@@3@@std@@QAE?AV?$_Tree_iterator@V?$_Tree_val@U?$_Tree_simple_types@U?$pair@$$CBMPAVCInstanceBase@@@std@@@std@@@std@@@1@$$QAU?$pair@MPAVCInstanceBase@@@1@@Z 00445550 f i InstanceBaseBattle.obj
 0001:00044640       ??1?$_Alloc_construct_ptr@V?$allocator@U?$_Tree_node@U?$pair@QAVCResource@@K@std@@PAX@std@@@std@@@std@@QAE@XZ 00445640 f i EterLib:ResourceManager.obj
 0001:00044640       ??1?$_Alloc_construct_ptr@V?$allocator@U?$_Tree_node@U?$pair@$$CBKPAVCFlyingData@@@std@@PAX@std@@@std@@@std@@QAE@XZ 00445640 f i GameLib:FlyingObjectManager.obj
 0001:00044640       ??1?$_Alloc_construct_ptr@V?$allocator@U?$_Tree_node@U?$pair@$$CBEPAVCCamera@@@std@@PAX@std@@@std@@@std@@QAE@XZ 00445640 f i EterLib:Camera.obj
 0001:00044640       ??1?$_Alloc_construct_ptr@V?$allocator@U?$_Tree_node@U?$pair@$$CBKPAVCInstanceBase@@@std@@PAX@std@@@std@@@std@@QAE@XZ 00445640 f i PythonCharacterManager.obj
 0001:00044640       ??1?$_Alloc_construct_ptr@V?$allocator@U?$_Tree_node@U?$pair@$$CBKK@std@@PAX@std@@@std@@@std@@QAE@XZ 00445640 f i InstanceBaseEffect.obj
 0001:00044640       ??1?$_Alloc_construct_ptr@V?$allocator@U?$_Tree_node@U?$pair@$$CBKPAVCItemData@@@std@@PAX@std@@@std@@@std@@QAE@XZ 00445640 f i GameLib:ItemManager.obj
 0001:00044640       ??1?$_Alloc_construct_ptr@V?$allocator@U?$_Tree_node@U?$pair@$$CBKPAVCSoundData@@@std@@PAX@std@@@std@@@std@@QAE@XZ 00445640 f i MilesLib:SoundBase.obj
 0001:00044640       ??1?$_Alloc_construct_ptr@V?$allocator@U?$_Tree_node@U?$pair@$$CBKPAUSMobTable@CPythonNonPlayer@@@std@@PAX@std@@@std@@@std@@QAE@XZ 00445640 f i PythonNonPlayer.obj
 0001:00044640       ??1?$_Alloc_construct_ptr@V?$allocator@U?$_List_node@UtagRECT@@PAX@std@@@std@@@std@@QAE@XZ 00445640 f i GameLib:MapOutdoor.obj
 0001:00044640       ??1?$_Alloc_construct_ptr@V?$allocator@U?$_Tree_node@U?$pair@$$CBKPAVCEffectData@@@std@@PAX@std@@@std@@@std@@QAE@XZ 00445640 f i EffectLib:EffectManager.obj
 0001:00044640       ??1?$_Alloc_construct_ptr@V?$allocator@U?$_Tree_node@U?$pair@$$CBKPAUSGroundItemInstance@CPythonItem@@@std@@PAX@std@@@std@@@std@@QAE@XZ 00445640 f i PythonItem.obj
 0001:00044640       ??1?$_Alloc_construct_ptr@V?$allocator@U?$_Tree_node@U?$pair@$$CBJPAVCResource@@@std@@PAX@std@@@std@@@std@@QAE@XZ 00445640 f i EterLib:ResourceManager.obj
 0001:00044640       ??1?$_Alloc_construct_ptr@V?$allocator@U?$_Tree_node@U?$pair@$$CBKPAVCSpeedTreeWrapper@@@std@@PAX@std@@@std@@@std@@QAE@XZ 00445640 f i SpeedTreeLib:SpeedTreeForest.obj
 0001:00044640       ??1?$_Alloc_construct_ptr@V?$allocator@U?$_Tree_node@U?$pair@$$CBKPAVCTextFileLoader@@@std@@PAX@std@@@std@@@std@@QAE@XZ 00445640 f i EterLib:TextFileLoader.obj
 0001:00044640       ??1?$_Alloc_construct_ptr@V?$allocator@U?$_Tree_node@U?$pair@$$CBHPAX@std@@PAX@std@@@std@@@std@@QAE@XZ 00445640 f i PythonApplicationCursor.obj
 0001:00044640       ??1?$_Alloc_construct_ptr@V?$allocator@U?$_Tree_node@U?$pair@$$CBKPAVCProperty@@@std@@PAX@std@@@std@@@std@@QAE@XZ 00445640 f i GameLib:PropertyManager.obj
 0001:00044640       ??1?$_Alloc_construct_ptr@V?$allocator@U?$_Tree_node@U?$pair@$$CBKPAVCResource@@@std@@PAX@std@@@std@@@std@@QAE@XZ 00445640 f i EterLib:ResourceManager.obj
 0001:00044640       ??1?$_Alloc_construct_ptr@V?$allocator@U?$_Tree_node@U?$pair@$$CBGPAUHFONT__@@@std@@PAX@std@@@std@@@std@@QAE@XZ 00445640 f i EterLib:GrpFontTexture.obj
 0001:00044640       ??1?$_Alloc_construct_ptr@V?$allocator@U?$_List_node@USEffectDamage@CInstanceBase@@PAX@std@@@std@@@std@@QAE@XZ 00445640 f i InstanceBaseEffect.obj
 0001:00044640       ??1?$_Alloc_construct_ptr@V?$allocator@U?$_Tree_node@U?$pair@$$CBHPAVCGraphicImage@@@std@@PAX@std@@@std@@@std@@QAE@XZ 00445640 f i PythonPlayerModule.obj
 0001:00044640       ??1?$_Alloc_construct_ptr@V?$allocator@U?$_Tree_node@U?$pair@$$CBHPAE@std@@PAX@std@@@std@@@std@@QAE@XZ 00445640 f i GameLib:MapOutdoor.obj
 0001:00044640       ??1?$_Alloc_construct_ptr@V?$allocator@U?$_Tree_node@U?$pair@$$CBKH@std@@PAX@std@@@std@@@std@@QAE@XZ 00445640 f i GameLib:MapOutdoor.obj
 0001:00044640       ??1?$_Alloc_construct_ptr@V?$allocator@U?$_Tree_node@U?$pair@$$CBHPAVCWindow@UI@@@std@@PAX@std@@@std@@@std@@QAE@XZ 00445640 f i EterPythonLib:PythonWindowManager.obj
 0001:00044640       ??1?$_Tree_temp_node@V?$allocator@U?$_Tree_node@U?$pair@$$CBKK@std@@PAX@std@@@std@@@std@@QAE@XZ 00445640 f i InstanceBaseEffect.obj
 0001:00044640       ??1?$_Alloc_construct_ptr@V?$allocator@U?$_Tree_node@U?$pair@$$CBGPAUSMotionModeData@CRaceData@@@std@@PAX@std@@@std@@@std@@QAE@XZ 00445640 f i GameLib:RaceData.obj
 0001:00044640       ??1?$_Alloc_construct_ptr@V?$allocator@U?$_Tree_node@U?$pair@$$CBKPAVCGuildMarkImage@@@std@@PAX@std@@@std@@@std@@QAE@XZ 00445640 f i MarkManager.obj
 0001:00044640       ??1?$_Alloc_construct_ptr@V?$allocator@U?$_Tree_node@U?$pair@$$CBKPAUSTextTail@CPythonTextTail@@@std@@PAX@std@@@std@@@std@@QAE@XZ 00445640 f i PythonTextTail.obj
 0001:00044640       ??1?$_Alloc_construct_ptr@V?$allocator@U?$_Tree_node@U?$pair@QAVCActorInstance@@M@std@@PAX@std@@@std@@@std@@QAE@XZ 00445640 f i GameLib:ActorInstanceCollisionDetection.obj
 0001:00044640       ??1?$_Alloc_construct_ptr@V?$allocator@U?$_Tree_node@U?$pair@$$CBKPAVCEffectInstance@@@std@@PAX@std@@@std@@@std@@QAE@XZ 00445640 f i EffectLib:EffectManager.obj
 0001:00044640       ??1?$node_constructor@V?$allocator@U?$grouped_ptr_node@U?$pair@$$CBKUItem@CEterFileDict@@@std@@@detail@unordered@boost@@@std@@@detail@unordered@boost@@QAE@XZ 00445640 f i EterPack:EterPack.obj
 0001:00044640       ??1?$_Tree_temp_node@V?$allocator@U?$_Tree_node@U?$pair@$$CBMPAVCInstanceBase@@@std@@PAX@std@@@std@@@std@@QAE@XZ 00445640 f i InstanceBaseBattle.obj
 0001:00044640       ??1?$_Alloc_construct_ptr@V?$allocator@U?$_Tree_node@U?$pair@$$CBKPAUSEnvironmentData@@@std@@PAX@std@@@std@@@std@@QAE@XZ 00445640 f i GameLib:MapManager.obj
 0001:00044640       ??1?$_Alloc_construct_ptr@V?$allocator@U?$_Tree_node@U?$pair@$$CBKPAVCRaceData@@@std@@PAX@std@@@std@@@std@@QAE@XZ 00445640 f i GameLib:RaceManager.obj
 0001:00044640       ??1?$_Alloc_construct_ptr@V?$allocator@U?$_Tree_node@U?$pair@$$CBKPAVCLight@@@std@@PAX@std@@@std@@@std@@QAE@XZ 00445640 f i EterLib:GrpLightManager.obj
 0001:00044640       ??1?$_Alloc_construct_ptr@V?$allocator@U?$_Tree_node@U?$pair@QAVCGraphicThingInstance@@K@std@@PAX@std@@@std@@@std@@QAE@XZ 00445640 f i GameLib:Area.obj
 0001:00044640       ??1?$_Alloc_construct_ptr@V?$allocator@U?$_Tree_node@U?$pair@$$CBMPAVCInstanceBase@@@std@@PAX@std@@@std@@@std@@QAE@XZ 00445640 f i InstanceBaseBattle.obj
 0001:00044660       ?_Insert_node@?$_Tree_val@U?$_Tree_simple_types@U?$pair@$$CBV?$basic_string@DU?$char_traits@D@std@@V?$allocator@D@2@@std@@E@std@@@std@@@std@@QAEPAU?$_Tree_node@U?$pair@$$CBV?$basic_string@DU?$char_traits@D@std@@V?$allocator@D@2@@std@@E@std@@PAX@2@U?$_Tree_id@PAU?$_Tree_node@U?$pair@$$CBV?$basic_string@DU?$char_traits@D@std@@V?$allocator@D@2@@std@@E@std@@PAX@std@@@2@QAU32@@Z 00445660 f i PythonMessenger.obj
 0001:00044660       ?_Insert_node@?$_Tree_val@U?$_Tree_simple_types@PAD@std@@@std@@QAEPAU?$_Tree_node@PADPAX@2@U?$_Tree_id@PAU?$_Tree_node@PADPAX@std@@@2@QAU32@@Z 00445660 f i EterLib:MSWindow.obj
 0001:00044660       ?_Insert_node@?$_Tree_val@U?$_Tree_simple_types@U?$pair@$$CBKPAUSTextTail@CPythonTextTail@@@std@@@std@@@std@@QAEPAU?$_Tree_node@U?$pair@$$CBKPAUSTextTail@CPythonTextTail@@@std@@PAX@2@U?$_Tree_id@PAU?$_Tree_node@U?$pair@$$CBKPAUSTextTail@CPythonTextTail@@@std@@PAX@std@@@2@QAU32@@Z 00445660 f i PythonTextTail.obj
 0001:00044660       ?_Insert_node@?$_Tree_val@U?$_Tree_simple_types@U?$pair@$$CBHUSChatSet@CPythonChat@@@std@@@std@@@std@@QAEPAU?$_Tree_node@U?$pair@$$CBHUSChatSet@CPythonChat@@@std@@PAX@2@U?$_Tree_id@PAU?$_Tree_node@U?$pair@$$CBHUSChatSet@CPythonChat@@@std@@PAX@std@@@2@QAU32@@Z 00445660 f i PythonChat.obj
 0001:00044660       ?_Insert_node@?$_Tree_val@U?$_Tree_simple_types@U?$pair@$$CBUSItemPos@@USShopItemTable@@@std@@@std@@@std@@QAEPAU?$_Tree_node@U?$pair@$$CBUSItemPos@@USShopItemTable@@@std@@PAX@2@U?$_Tree_id@PAU?$_Tree_node@U?$pair@$$CBUSItemPos@@USShopItemTable@@@std@@PAX@std@@@2@QAU32@@Z 00445660 f i PythonShop.obj
 0001:00044660       ?_Insert_node@?$_Tree_val@U?$_Tree_simple_types@U?$pair@QAVCResource@@K@std@@@std@@@std@@QAEPAU?$_Tree_node@U?$pair@QAVCResource@@K@std@@PAX@2@U?$_Tree_id@PAU?$_Tree_node@U?$pair@QAVCResource@@K@std@@PAX@std@@@2@QAU32@@Z 00445660 f i EterLib:ResourceManager.obj
 0001:00044660       ?_Insert_node@?$_Tree_val@U?$_Tree_simple_types@U?$pair@$$CBV?$basic_string@DU?$char_traits@D@std@@V?$allocator@D@2@@std@@PAVCGraphicImageInstance@@@std@@@std@@@std@@QAEPAU?$_Tree_node@U?$pair@$$CBV?$basic_string@DU?$char_traits@D@std@@V?$allocator@D@2@@std@@PAVCGraphicImageInstance@@@std@@PAX@2@U?$_Tree_id@PAU?$_Tree_node@U?$pair@$$CBV?$basic_string@DU?$char_traits@D@std@@V?$allocator@D@2@@std@@PAVCGraphicImageInstance@@@std@@PAX@std@@@2@QAU32@@Z 00445660 f i EterLib:SkyBox.obj
 0001:00044660       ?_Insert_node@?$_Tree_val@U?$_Tree_simple_types@U?$pair@$$CBKPAVCFlyingData@@@std@@@std@@@std@@QAEPAU?$_Tree_node@U?$pair@$$CBKPAVCFlyingData@@@std@@PAX@2@U?$_Tree_id@PAU?$_Tree_node@U?$pair@$$CBKPAVCFlyingData@@@std@@PAX@std@@@2@QAU32@@Z 00445660 f i GameLib:FlyingObjectManager.obj
 0001:00044660       ?_Insert_node@?$_Tree_val@U?$_Tree_simple_types@U?$pair@$$CBHV?$basic_string@DU?$char_traits@D@std@@V?$allocator@D@2@@std@@@std@@@std@@@std@@QAEPAU?$_Tree_node@U?$pair@$$CBHV?$basic_string@DU?$char_traits@D@std@@V?$allocator@D@2@@std@@@std@@PAX@2@U?$_Tree_id@PAU?$_Tree_node@U?$pair@$$CBHV?$basic_string@DU?$char_traits@D@std@@V?$allocator@D@2@@std@@@std@@PAX@std@@@2@QAU32@@Z 00445660 f i InstanceBaseEffect.obj
 0001:00044660       ?_Insert_node@?$_Tree_val@U?$_Tree_simple_types@U?$pair@$$CBU?$pair@G_W@std@@USCharacterInfomation@CGraphicFontTexture@@@std@@@std@@@std@@QAEPAU?$_Tree_node@U?$pair@$$CBU?$pair@G_W@std@@USCharacterInfomation@CGraphicFontTexture@@@std@@PAX@2@U?$_Tree_id@PAU?$_Tree_node@U?$pair@$$CBU?$pair@G_W@std@@USCharacterInfomation@CGraphicFontTexture@@@std@@PAX@std@@@2@QAU32@@Z 00445660 f i EterLib:GrpFontTexture.obj
 0001:00044660       ?_Insert_node@?$_Tree_val@U?$_Tree_simple_types@U?$pair@$$CBKV?$vector@V?$basic_string@DU?$char_traits@D@std@@V?$allocator@D@2@@std@@V?$allocator@V?$basic_string@DU?$char_traits@D@std@@V?$allocator@D@2@@std@@@2@@std@@@std@@@std@@@std@@QAEPAU?$_Tree_node@U?$pair@$$CBKV?$vector@V?$basic_string@DU?$char_traits@D@std@@V?$allocator@D@2@@std@@V?$allocator@V?$basic_string@DU?$char_traits@D@std@@V?$allocator@D@2@@std@@@2@@std@@@std@@PAX@2@U?$_Tree_id@PAU?$_Tree_node@U?$pair@$$CBKV?$vector@V?$basic_string@DU?$char_traits@D@std@@V?$allocator@D@2@@std@@V?$allocator@V?$basic_string@DU?$char_traits@D@std@@V?$allocator@D@2@@std@@@2@@std@@@std@@PAX@std@@@2@QAU32@@Z 00445660 f i EterLib:TextFileLoader.obj
 0001:00044660       ?_Insert_node@?$_Tree_val@U?$_Tree_simple_types@U?$pair@$$CBKPAVCProperty@@@std@@@std@@@std@@QAEPAU?$_Tree_node@U?$pair@$$CBKPAVCProperty@@@std@@PAX@2@U?$_Tree_id@PAU?$_Tree_node@U?$pair@$$CBKPAVCProperty@@@std@@PAX@std@@@2@QAU32@@Z 00445660 f i GameLib:PropertyManager.obj
 0001:00044660       ?_Insert_node@?$_Tree_val@U?$_Tree_simple_types@H@std@@@std@@QAEPAU?$_Tree_node@HPAX@2@U?$_Tree_id@PAU?$_Tree_node@HPAX@std@@@2@QAU32@@Z 00445660 f i PythonBackground.obj
 0001:00044660       ?_Insert_node@?$_Tree_val@U?$_Tree_simple_types@U?$pair@$$CBKUSPartyMemberInfo@CPythonPlayer@@@std@@@std@@@std@@QAEPAU?$_Tree_node@U?$pair@$$CBKUSPartyMemberInfo@CPythonPlayer@@@std@@PAX@2@U?$_Tree_id@PAU?$_Tree_node@U?$pair@$$CBKUSPartyMemberInfo@CPythonPlayer@@@std@@PAX@std@@@2@QAU32@@Z 00445660 f i PythonPlayer.obj
 0001:00044660       ?_Insert_node@?$_Tree_val@U?$_Tree_simple_types@U?$pair@$$CBV?$basic_string@DU?$char_traits@D@std@@V?$allocator@D@2@@std@@K@std@@@std@@@std@@QAEPAU?$_Tree_node@U?$pair@$$CBV?$basic_string@DU?$char_traits@D@std@@V?$allocator@D@2@@std@@K@std@@PAX@2@U?$_Tree_id@PAU?$_Tree_node@U?$pair@$$CBV?$basic_string@DU?$char_traits@D@std@@V?$allocator@D@2@@std@@K@std@@PAX@std@@@2@QAU32@@Z 00445660 f i PythonSkill.obj
 0001:00044660       ?_Insert_node@?$_Tree_val@U?$_Tree_simple_types@V?$basic_string@DU?$char_traits@D@std@@V?$allocator@D@2@@std@@@std@@@std@@QAEPAU?$_Tree_node@V?$basic_string@DU?$char_traits@D@std@@V?$allocator@D@2@@std@@PAX@2@U?$_Tree_id@PAU?$_Tree_node@V?$basic_string@DU?$char_traits@D@std@@V?$allocator@D@2@@std@@PAX@std@@@2@QAU32@@Z 00445660 f i PythonBackground.obj
 0001:00044660       ?_Insert_node@?$_Tree_val@U?$_Tree_simple_types@PAVCFlyTarget@@@std@@@std@@QAEPAU?$_Tree_node@PAVCFlyTarget@@PAX@2@U?$_Tree_id@PAU?$_Tree_node@PAVCFlyTarget@@PAX@std@@@2@QAU32@@Z 00445660 f i GameLib:FlyTarget.obj
 0001:00044660       ?_Insert_node@?$_Tree_val@U?$_Tree_simple_types@U?$pair@$$CBKPAUSGroundItemInstance@CPythonItem@@@std@@@std@@@std@@QAEPAU?$_Tree_node@U?$pair@$$CBKPAUSGroundItemInstance@CPythonItem@@@std@@PAX@2@U?$_Tree_id@PAU?$_Tree_node@U?$pair@$$CBKPAUSGroundItemInstance@CPythonItem@@@std@@PAX@std@@@2@QAU32@@Z 00445660 f i PythonItem.obj
 0001:00044660       ?_Insert_node@?$_Tree_val@U?$_Tree_simple_types@U?$pair@$$CBHUSPacketType@CNetworkPacketHeaderMap@@@std@@@std@@@std@@QAEPAU?$_Tree_node@U?$pair@$$CBHUSPacketType@CNetworkPacketHeaderMap@@@std@@PAX@2@U?$_Tree_id@PAU?$_Tree_node@U?$pair@$$CBHUSPacketType@CNetworkPacketHeaderMap@@@std@@PAX@std@@@2@QAU32@@Z 00445660 f i EterLib:NetPacketHeaderMap.obj
 0001:00044660       ?_Insert_node@?$_Tree_val@U?$_Tree_simple_types@U?$pair@$$CBV?$basic_string@DU?$char_traits@D@std@@V?$allocator@D@2@@std@@H@std@@@std@@@std@@QAEPAU?$_Tree_node@U?$pair@$$CBV?$basic_string@DU?$char_traits@D@std@@V?$allocator@D@2@@std@@H@std@@PAX@2@U?$_Tree_id@PAU?$_Tree_node@U?$pair@$$CBV?$basic_string@DU?$char_traits@D@std@@V?$allocator@D@2@@std@@H@std@@PAX@std@@@2@QAU32@@Z 00445660 f i PythonEventManager.obj
 0001:00044660       ?_Insert_node@?$_Tree_val@U?$_Tree_simple_types@U?$pair@$$CBKPAVCEffectData@@@std@@@std@@@std@@QAEPAU?$_Tree_node@U?$pair@$$CBKPAVCEffectData@@@std@@PAX@2@U?$_Tree_id@PAU?$_Tree_node@U?$pair@$$CBKPAVCEffectData@@@std@@PAX@std@@@2@QAU32@@Z 00445660 f i EffectLib:EffectManager.obj
 0001:00044660       ?_Insert_node@?$_Tree_val@U?$_Tree_simple_types@U?$pair@$$CBGPAUHFONT__@@@std@@@std@@@std@@QAEPAU?$_Tree_node@U?$pair@$$CBGPAUHFONT__@@@std@@PAX@2@U?$_Tree_id@PAU?$_Tree_node@U?$pair@$$CBGPAUHFONT__@@@std@@PAX@std@@@2@QAU32@@Z 00445660 f i EterLib:GrpFontTexture.obj
 0001:00044660       ?_Insert_node@?$_Tree_val@U?$_Tree_simple_types@U?$pair@$$CBKPAVCResource@@@std@@@std@@@std@@QAEPAU?$_Tree_node@U?$pair@$$CBKPAVCResource@@@std@@PAX@2@U?$_Tree_id@PAU?$_Tree_node@U?$pair@$$CBKPAVCResource@@@std@@PAX@std@@@2@QAU32@@Z 00445660 f i EterLib:ResourceManager.obj
 0001:00044660       ?_Insert_node@?$_Tree_val@U?$_Tree_simple_types@M@std@@@std@@QAEPAU?$_Tree_node@MPAX@2@U?$_Tree_id@PAU?$_Tree_node@MPAX@std@@@2@QAU32@@Z 00445660 f i EffectLib:ParticleSystemData.obj
 0001:00044660       ?_Insert_node@?$_Tree_val@U?$_Tree_simple_types@U?$pair@$$CBHPAE@std@@@std@@@std@@QAEPAU?$_Tree_node@U?$pair@$$CBHPAE@std@@PAX@2@U?$_Tree_id@PAU?$_Tree_node@U?$pair@$$CBHPAE@std@@PAX@std@@@2@QAU32@@Z 00445660 f i GameLib:MapOutdoor.obj
 0001:00044660       ?_Insert_node@?$_Tree_val@U?$_Tree_simple_types@U?$pair@$$CBIV?$basic_string@DU?$char_traits@D@std@@V?$allocator@D@2@@std@@@std@@@std@@@std@@QAEPAU?$_Tree_node@U?$pair@$$CBIV?$basic_string@DU?$char_traits@D@std@@V?$allocator@D@2@@std@@@std@@PAX@2@U?$_Tree_id@PAU?$_Tree_node@U?$pair@$$CBIV?$basic_string@DU?$char_traits@D@std@@V?$allocator@D@2@@std@@@std@@PAX@std@@@2@QAU32@@Z 00445660 f i EterLib:GrpDevice.obj
 0001:00044660       ?_Insert_node@?$_Tree_val@U?$_Tree_simple_types@K@std@@@std@@QAEPAU?$_Tree_node@KPAX@2@U?$_Tree_id@PAU?$_Tree_node@KPAX@std@@@2@QAU32@@Z 00445660 f i InstanceBaseEffect.obj
 0001:00044660       ?_Insert_node@?$_Tree_val@U?$_Tree_simple_types@U?$pair@$$CBKPAVCSoundData@@@std@@@std@@@std@@QAEPAU?$_Tree_node@U?$pair@$$CBKPAVCSoundData@@@std@@PAX@2@U?$_Tree_id@PAU?$_Tree_node@U?$pair@$$CBKPAVCSoundData@@@std@@PAX@std@@@2@QAU32@@Z 00445660 f i MilesLib:SoundBase.obj
 0001:00044660       ?_Insert_node@?$_Tree_val@U?$_Tree_simple_types@U?$pair@$$CBV?$basic_string@DU?$char_traits@D@std@@V?$allocator@D@2@@std@@P6APAVCResource@@PBD@Z@std@@@std@@@std@@QAEPAU?$_Tree_node@U?$pair@$$CBV?$basic_string@DU?$char_traits@D@std@@V?$allocator@D@2@@std@@P6APAVCResource@@PBD@Z@std@@PAX@2@U?$_Tree_id@PAU?$_Tree_node@U?$pair@$$CBV?$basic_string@DU?$char_traits@D@std@@V?$allocator@D@2@@std@@P6APAVCResource@@PBD@Z@std@@PAX@std@@@2@QAU32@@Z 00445660 f i EterLib:ResourceManager.obj
 0001:00044660       ?_Insert_node@?$_Tree_val@U?$_Tree_simple_types@U?$pair@QBUSHitData@NRaceData@@V?$map@PAVCActorInstance@@MU?$less@PAVCActorInstance@@@std@@V?$allocator@U?$pair@QAVCActorInstance@@M@std@@@3@@std@@@std@@@std@@@std@@QAEPAU?$_Tree_node@U?$pair@QBUSHitData@NRaceData@@V?$map@PAVCActorInstance@@MU?$less@PAVCActorInstance@@@std@@V?$allocator@U?$pair@QAVCActorInstance@@M@std@@@3@@std@@@std@@PAX@2@U?$_Tree_id@PAU?$_Tree_node@U?$pair@QBUSHitData@NRaceData@@V?$map@PAVCActorInstance@@MU?$less@PAVCActorInstance@@@std@@V?$allocator@U?$pair@QAVCActorInstance@@M@std@@@3@@std@@@std@@PAX@std@@@2@QAU32@@Z 00445660 f i GameLib:ActorInstanceCollisionDetection.obj
 0001:00044660       ?_Insert_node@?$_Tree_val@U?$_Tree_simple_types@U?$pair@$$CBV?$basic_string@DU?$char_traits@D@std@@V?$allocator@D@2@@std@@M@std@@@std@@@std@@QAEPAU?$_Tree_node@U?$pair@$$CBV?$basic_string@DU?$char_traits@D@std@@V?$allocator@D@2@@std@@M@std@@PAX@2@U?$_Tree_id@PAU?$_Tree_node@U?$pair@$$CBV?$basic_string@DU?$char_traits@D@std@@V?$allocator@D@2@@std@@M@std@@PAX@std@@@2@QAU32@@Z 00445660 f i MilesLib:SoundManager.obj
 0001:00044660       ?_Insert_node@?$_Tree_val@U?$_Tree_simple_types@U?$pair@$$CBGV?$vector@USMotion@CRaceData@@V?$allocator@USMotion@CRaceData@@@std@@@std@@@std@@@std@@@std@@QAEPAU?$_Tree_node@U?$pair@$$CBGV?$vector@USMotion@CRaceData@@V?$allocator@USMotion@CRaceData@@@std@@@std@@@std@@PAX@2@U?$_Tree_id@PAU?$_Tree_node@U?$pair@$$CBGV?$vector@USMotion@CRaceData@@V?$allocator@USMotion@CRaceData@@@std@@@std@@@std@@PAX@std@@@2@QAU32@@Z 00445660 f i GameLib:RaceData.obj
 0001:00044660       ?_Insert_node@?$_Tree_val@U?$_Tree_simple_types@PAUSObjectInstance@CArea@@@std@@@std@@QAEPAU?$_Tree_node@PAUSObjectInstance@CArea@@PAX@2@U?$_Tree_id@PAU?$_Tree_node@PAUSObjectInstance@CArea@@PAX@std@@@2@QAU32@@Z 00445660 f i GameLib:Area.obj
 0001:00044660       ?_Insert_node@?$_Tree_val@U?$_Tree_simple_types@U?$pair@$$CBKUSNetworkActorData@@@std@@@std@@@std@@QAEPAU?$_Tree_node@U?$pair@$$CBKUSNetworkActorData@@@std@@PAX@2@U?$_Tree_id@PAU?$_Tree_node@U?$pair@$$CBKUSNetworkActorData@@@std@@PAX@std@@@2@QAU32@@Z 00445660 f i NetworkActorManager.obj
 0001:00044660       ?_Insert_node@?$_Tree_val@U?$_Tree_simple_types@U?$pair@$$CBKV?$basic_string@DU?$char_traits@D@std@@V?$allocator@D@2@@std@@@std@@@std@@@std@@QAEPAU?$_Tree_node@U?$pair@$$CBKV?$basic_string@DU?$char_traits@D@std@@V?$allocator@D@2@@std@@@std@@PAX@2@U?$_Tree_id@PAU?$_Tree_node@U?$pair@$$CBKV?$basic_string@DU?$char_traits@D@std@@V?$allocator@D@2@@std@@@std@@PAX@std@@@2@QAU32@@Z 00445660 f i PythonGuild.obj
 0001:00044660       ?_Insert_node@?$_Tree_val@U?$_Tree_simple_types@U?$pair@$$CBHPAVCWindow@UI@@@std@@@std@@@std@@QAEPAU?$_Tree_node@U?$pair@$$CBHPAVCWindow@UI@@@std@@PAX@2@U?$_Tree_id@PAU?$_Tree_node@U?$pair@$$CBHPAVCWindow@UI@@@std@@PAX@std@@@2@QAU32@@Z 00445660 f i EterPythonLib:PythonWindowManager.obj
 0001:00044660       ?_Insert_node@?$_Tree_val@U?$_Tree_simple_types@U?$pair@$$CBKUSIndexFlyData@CFlyingManager@@@std@@@std@@@std@@QAEPAU?$_Tree_node@U?$pair@$$CBKUSIndexFlyData@CFlyingManager@@@std@@PAX@2@U?$_Tree_id@PAU?$_Tree_node@U?$pair@$$CBKUSIndexFlyData@CFlyingManager@@@std@@PAX@std@@@2@QAU32@@Z 00445660 f i GameLib:FlyingObjectManager.obj
 0001:00044660       ?_Insert_node@?$_Tree_val@U?$_Tree_simple_types@PAVIActorInstance@@@std@@@std@@QAEPAU?$_Tree_node@PAVIActorInstance@@PAX@2@U?$_Tree_id@PAU?$_Tree_node@PAVIActorInstance@@PAX@std@@@2@QAU32@@Z 00445660 f i GameLib:FlyingInstance.obj
 0001:00044660       ?_Insert_node@?$_Tree_val@U?$_Tree_simple_types@U?$pair@$$CBJPAVCResource@@@std@@@std@@@std@@QAEPAU?$_Tree_node@U?$pair@$$CBJPAVCResource@@@std@@PAX@2@U?$_Tree_id@PAU?$_Tree_node@U?$pair@$$CBJPAVCResource@@@std@@PAX@std@@@2@QAU32@@Z 00445660 f i EterLib:ResourceManager.obj
 0001:00044660       ?_Insert_node@?$_Tree_val@U?$_Tree_simple_types@U?$pair@$$CBKPAVCInstanceBase@@@std@@@std@@@std@@QAEPAU?$_Tree_node@U?$pair@$$CBKPAVCInstanceBase@@@std@@PAX@2@U?$_Tree_id@PAU?$_Tree_node@U?$pair@$$CBKPAVCInstanceBase@@@std@@PAX@std@@@2@QAU32@@Z 00445660 f i PythonCharacterManager.obj
 0001:00044660       ?_Insert_node@?$_Tree_val@U?$_Tree_simple_types@U?$pair@$$CBKPAUSEnvironmentData@@@std@@@std@@@std@@QAEPAU?$_Tree_node@U?$pair@$$CBKPAUSEnvironmentData@@@std@@PAX@2@U?$_Tree_id@PAU?$_Tree_node@U?$pair@$$CBKPAUSEnvironmentData@@@std@@PAX@std@@@2@QAU32@@Z 00445660 f i GameLib:MapManager.obj
 0001:00044660       ?_Insert_node@?$_Tree_val@U?$_Tree_simple_types@U?$pair@$$CBKUSReserveTargetEffect@CPythonBackground@@@std@@@std@@@std@@QAEPAU?$_Tree_node@U?$pair@$$CBKUSReserveTargetEffect@CPythonBackground@@@std@@PAX@2@U?$_Tree_id@PAU?$_Tree_node@U?$pair@$$CBKUSReserveTargetEffect@CPythonBackground@@@std@@PAX@std@@@2@QAU32@@Z 00445660 f i PythonBackground.obj
 0001:00044660       ?_Insert_node@?$_Tree_val@U?$_Tree_simple_types@U?$pair@$$CBV?$basic_string@DU?$char_traits@D@std@@V?$allocator@D@2@@std@@PAVCWhisper@@@std@@@std@@@std@@QAEPAU?$_Tree_node@U?$pair@$$CBV?$basic_string@DU?$char_traits@D@std@@V?$allocator@D@2@@std@@PAVCWhisper@@@std@@PAX@2@U?$_Tree_id@PAU?$_Tree_node@U?$pair@$$CBV?$basic_string@DU?$char_traits@D@std@@V?$allocator@D@2@@std@@PAVCWhisper@@@std@@PAX@std@@@2@QAU32@@Z 00445660 f i PythonChat.obj
 0001:00044660       ?_Insert_node@?$_Tree_val@U?$_Tree_simple_types@U?$pair@$$CBGPAUSMotionModeData@CRaceData@@@std@@@std@@@std@@QAEPAU?$_Tree_node@U?$pair@$$CBGPAUSMotionModeData@CRaceData@@@std@@PAX@2@U?$_Tree_id@PAU?$_Tree_node@U?$pair@$$CBGPAUSMotionModeData@CRaceData@@@std@@PAX@std@@@2@QAU32@@Z 00445660 f i GameLib:RaceData.obj
 0001:00044660       ?_Insert_node@?$_Tree_val@U?$_Tree_simple_types@U?$pair@QAVCActorInstance@@M@std@@@std@@@std@@QAEPAU?$_Tree_node@U?$pair@QAVCActorInstance@@M@std@@PAX@2@U?$_Tree_id@PAU?$_Tree_node@U?$pair@QAVCActorInstance@@M@std@@PAX@std@@@2@QAU32@@Z 00445660 f i GameLib:ActorInstanceCollisionDetection.obj
 0001:00044660       ?_Insert_node@?$_Tree_val@U?$_Tree_simple_types@U?$pair@$$CBKPAUSMobTable@CPythonNonPlayer@@@std@@@std@@@std@@QAEPAU?$_Tree_node@U?$pair@$$CBKPAUSMobTable@CPythonNonPlayer@@@std@@PAX@2@U?$_Tree_id@PAU?$_Tree_node@U?$pair@$$CBKPAUSMobTable@CPythonNonPlayer@@@std@@PAX@std@@@2@QAU32@@Z 00445660 f i PythonNonPlayer.obj
 0001:00044660       ?_Insert_node@?$_Tree_val@U?$_Tree_simple_types@U?$pair@$$CBHPAVCGraphicImage@@@std@@@std@@@std@@QAEPAU?$_Tree_node@U?$pair@$$CBHPAVCGraphicImage@@@std@@PAX@2@U?$_Tree_id@PAU?$_Tree_node@U?$pair@$$CBHPAVCGraphicImage@@@std@@PAX@std@@@2@QAU32@@Z 00445660 f i PythonPlayerModule.obj
 0001:00044660       ?_Insert_node@?$_Tree_val@U?$_Tree_simple_types@U?$pair@$$CBMPAVCInstanceBase@@@std@@@std@@@std@@QAEPAU?$_Tree_node@U?$pair@$$CBMPAVCInstanceBase@@@std@@PAX@2@U?$_Tree_id@PAU?$_Tree_node@U?$pair@$$CBMPAVCInstanceBase@@@std@@PAX@std@@@2@QAU32@@Z 00445660 f i InstanceBaseBattle.obj
 0001:00044660       ?_Insert_node@?$_Tree_val@U?$_Tree_simple_types@U?$pair@$$CBKUSSkillData@CPythonSkill@@@std@@@std@@@std@@QAEPAU?$_Tree_node@U?$pair@$$CBKUSSkillData@CPythonSkill@@@std@@PAX@2@U?$_Tree_id@PAU?$_Tree_node@U?$pair@$$CBKUSSkillData@CPythonSkill@@@std@@PAX@std@@@2@QAU32@@Z 00445660 f i PythonSkill.obj
 0001:00044660       ?_Insert_node@?$_Tree_val@U?$_Tree_simple_types@U?$pair@$$CBKPAVCItemData@@@std@@@std@@@std@@QAEPAU?$_Tree_node@U?$pair@$$CBKPAVCItemData@@@std@@PAX@2@U?$_Tree_id@PAU?$_Tree_node@U?$pair@$$CBKPAVCItemData@@@std@@PAX@std@@@2@QAU32@@Z 00445660 f i GameLib:ItemManager.obj
 0001:00044660       ?_Insert_node@?$_Tree_val@U?$_Tree_simple_types@U?$pair@$$CBKUSObserver@CPythonMiniMap@@@std@@@std@@@std@@QAEPAU?$_Tree_node@U?$pair@$$CBKUSObserver@CPythonMiniMap@@@std@@PAX@2@U?$_Tree_id@PAU?$_Tree_node@U?$pair@$$CBKUSObserver@CPythonMiniMap@@@std@@PAX@std@@@2@QAU32@@Z 00445660 f i PythonMiniMap.obj
 0001:00044660       ?_Insert_node@?$_Tree_val@U?$_Tree_simple_types@U?$pair@$$CBKPAVCGuildMarkImage@@@std@@@std@@@std@@QAEPAU?$_Tree_node@U?$pair@$$CBKPAVCGuildMarkImage@@@std@@PAX@2@U?$_Tree_id@PAU?$_Tree_node@U?$pair@$$CBKPAVCGuildMarkImage@@@std@@PAX@std@@@2@QAU32@@Z 00445660 f i MarkManager.obj
 0001:00044660       ?_Insert_node@?$_Tree_val@U?$_Tree_simple_types@U?$pair@$$CBKUSHair@CRaceData@@@std@@@std@@@std@@QAEPAU?$_Tree_node@U?$pair@$$CBKUSHair@CRaceData@@@std@@PAX@2@U?$_Tree_id@PAU?$_Tree_node@U?$pair@$$CBKUSHair@CRaceData@@@std@@PAX@std@@@2@QAU32@@Z 00445660 f i GameLib:RaceData.obj
 0001:00044660       ?_Insert_node@?$_Tree_val@U?$_Tree_simple_types@U?$pair@$$CBKK@std@@@std@@@std@@QAEPAU?$_Tree_node@U?$pair@$$CBKK@std@@PAX@2@U?$_Tree_id@PAU?$_Tree_node@U?$pair@$$CBKK@std@@PAX@std@@@2@QAU32@@Z 00445660 f i InstanceBaseEffect.obj
 0001:00044660       ?_Insert_node@?$_Tree_val@U?$_Tree_simple_types@U?$pair@$$CBKPAVCSpeedTreeWrapper@@@std@@@std@@@std@@QAEPAU?$_Tree_node@U?$pair@$$CBKPAVCSpeedTreeWrapper@@@std@@PAX@2@U?$_Tree_id@PAU?$_Tree_node@U?$pair@$$CBKPAVCSpeedTreeWrapper@@@std@@PAX@std@@@2@QAU32@@Z 00445660 f i SpeedTreeLib:SpeedTreeForest.obj
 0001:00044660       ?_Insert_node@?$_Tree_val@U?$_Tree_simple_types@U?$pair@$$CBV?$basic_string@DU?$char_traits@D@std@@V?$allocator@D@2@@std@@V12@@std@@@std@@@std@@QAEPAU?$_Tree_node@U?$pair@$$CBV?$basic_string@DU?$char_traits@D@std@@V?$allocator@D@2@@std@@V12@@std@@PAX@2@U?$_Tree_id@PAU?$_Tree_node@U?$pair@$$CBV?$basic_string@DU?$char_traits@D@std@@V?$allocator@D@2@@std@@V12@@std@@PAX@std@@@2@QAU32@@Z 00445660 f i PythonSkill.obj
 0001:00044660       ?_Insert_node@?$_Tree_val@U?$_Tree_simple_types@U?$pair@$$CBV?$basic_string@DU?$char_traits@D@std@@V?$allocator@D@2@@std@@V?$vector@V?$basic_string@DU?$char_traits@D@std@@V?$allocator@D@2@@std@@V?$allocator@V?$basic_string@DU?$char_traits@D@std@@V?$allocator@D@2@@std@@@2@@2@@std@@@std@@@std@@QAEPAU?$_Tree_node@U?$pair@$$CBV?$basic_string@DU?$char_traits@D@std@@V?$allocator@D@2@@std@@V?$vector@V?$basic_string@DU?$char_traits@D@std@@V?$allocator@D@2@@std@@V?$allocator@V?$basic_string@DU?$char_traits@D@std@@V?$allocator@D@2@@std@@@2@@2@@std@@PAX@2@U?$_Tree_id@PAU?$_Tree_node@U?$pair@$$CBV?$basic_string@DU?$char_traits@D@std@@V?$allocator@D@2@@std@@V?$vector@V?$basic_string@DU?$char_traits@D@std@@V?$allocator@D@2@@std@@V?$allocator@V?$basic_string@DU?$char_traits@D@std@@V?$allocator@D@2@@std@@@2@@2@@std@@PAX@std@@@2@QAU32@@Z 00445660 f i PythonMiniMap.obj
 0001:00044660       ?_Insert_node@?$_Tree_val@U?$_Tree_simple_types@U?$pair@$$CBKUSShape@CRaceData@@@std@@@std@@@std@@QAEPAU?$_Tree_node@U?$pair@$$CBKUSShape@CRaceData@@@std@@PAX@2@U?$_Tree_id@PAU?$_Tree_node@U?$pair@$$CBKUSShape@CRaceData@@@std@@PAX@std@@@2@QAU32@@Z 00445660 f i GameLib:RaceData.obj
 0001:00044660       ?_Insert_node@?$_Tree_val@U?$_Tree_simple_types@U?$pair@$$CBEUSGuildGradeData@CPythonGuild@@@std@@@std@@@std@@QAEPAU?$_Tree_node@U?$pair@$$CBEUSGuildGradeData@CPythonGuild@@@std@@PAX@2@U?$_Tree_id@PAU?$_Tree_node@U?$pair@$$CBEUSGuildGradeData@CPythonGuild@@@std@@PAX@std@@@2@QAU32@@Z 00445660 f i PythonGuild.obj
 0001:00044660       ?_Insert_node@?$_Tree_val@U?$_Tree_simple_types@U?$pair@QAVCGraphicThingInstance@@K@std@@@std@@@std@@QAEPAU?$_Tree_node@U?$pair@QAVCGraphicThingInstance@@K@std@@PAX@2@U?$_Tree_id@PAU?$_Tree_node@U?$pair@QAVCGraphicThingInstance@@K@std@@PAX@std@@@2@QAU32@@Z 00445660 f i GameLib:Area.obj
 0001:00044660       ?_Insert_node@?$_Tree_val@U?$_Tree_simple_types@U?$pair@$$CBMUCDynamicSphereInstance@@@std@@@std@@@std@@QAEPAU?$_Tree_node@U?$pair@$$CBMUCDynamicSphereInstance@@@std@@PAX@2@U?$_Tree_id@PAU?$_Tree_node@U?$pair@$$CBMUCDynamicSphereInstance@@@std@@PAX@std@@@2@QAU32@@Z 00445660 f i GameLib:GameType.obj
 0001:00044660       ?_Insert_node@?$_Tree_val@U?$_Tree_simple_types@U?$pair@$$CBKPAVCRaceData@@@std@@@std@@@std@@QAEPAU?$_Tree_node@U?$pair@$$CBKPAVCRaceData@@@std@@PAX@2@U?$_Tree_id@PAU?$_Tree_node@U?$pair@$$CBKPAVCRaceData@@@std@@PAX@std@@@2@QAU32@@Z 00445660 f i GameLib:RaceManager.obj
 0001:00044660       ?_Insert_node@?$_Tree_val@U?$_Tree_simple_types@U?$pair@$$CBKPAVCTextFileLoader@@@std@@@std@@@std@@QAEPAU?$_Tree_node@U?$pair@$$CBKPAVCTextFileLoader@@@std@@PAX@2@U?$_Tree_id@PAU?$_Tree_node@U?$pair@$$CBKPAVCTextFileLoader@@@std@@PAX@std@@@2@QAU32@@Z 00445660 f i EterLib:TextFileLoader.obj
 0001:00044660       ?_Insert_node@?$_Tree_val@U?$_Tree_simple_types@U?$pair@$$CBKUSComboAttackData@CRaceData@@@std@@@std@@@std@@QAEPAU?$_Tree_node@U?$pair@$$CBKUSComboAttackData@CRaceData@@@std@@PAX@2@U?$_Tree_id@PAU?$_Tree_node@U?$pair@$$CBKUSComboAttackData@CRaceData@@@std@@PAX@std@@@2@QAU32@@Z 00445660 f i GameLib:RaceData.obj
 0001:00044660       ?_Insert_node@?$_Tree_val@U?$_Tree_simple_types@U?$pair@$$CBKH@std@@@std@@@std@@QAEPAU?$_Tree_node@U?$pair@$$CBKH@std@@PAX@2@U?$_Tree_id@PAU?$_Tree_node@U?$pair@$$CBKH@std@@PAX@std@@@2@QAU32@@Z 00445660 f i GameLib:MapOutdoor.obj
 0001:00044660       ?_Insert_node@?$_Tree_val@U?$_Tree_simple_types@U?$pair@$$CBKPAVCLight@@@std@@@std@@@std@@QAEPAU?$_Tree_node@U?$pair@$$CBKPAVCLight@@@std@@PAX@2@U?$_Tree_id@PAU?$_Tree_node@U?$pair@$$CBKPAVCLight@@@std@@PAX@std@@@2@QAU32@@Z 00445660 f i EterLib:GrpLightManager.obj
 0001:00044660       ?_Insert_node@?$_Tree_val@U?$_Tree_simple_types@U?$pair@$$CBHPAX@std@@@std@@@std@@QAEPAU?$_Tree_node@U?$pair@$$CBHPAX@std@@PAX@2@U?$_Tree_id@PAU?$_Tree_node@U?$pair@$$CBHPAX@std@@PAX@std@@@2@QAU32@@Z 00445660 f i PythonApplicationCursor.obj
 0001:00044660       ?_Insert_node@?$_Tree_val@U?$_Tree_simple_types@U?$pair@$$CBEPAVCCamera@@@std@@@std@@@std@@QAEPAU?$_Tree_node@U?$pair@$$CBEPAVCCamera@@@std@@PAX@2@U?$_Tree_id@PAU?$_Tree_node@U?$pair@$$CBEPAVCCamera@@@std@@PAX@std@@@2@QAU32@@Z 00445660 f i EterLib:Camera.obj
 0001:00044660       ?_Insert_node@?$_Tree_val@U?$_Tree_simple_types@U?$pair@$$CBKPAVCEffectInstance@@@std@@@std@@@std@@QAEPAU?$_Tree_node@U?$pair@$$CBKPAVCEffectInstance@@@std@@PAX@2@U?$_Tree_id@PAU?$_Tree_node@U?$pair@$$CBKPAVCEffectInstance@@@std@@PAX@std@@@2@QAU32@@Z 00445660 f i EffectLib:EffectManager.obj
 0001:00044660       ?_Insert_node@?$_Tree_val@U?$_Tree_simple_types@U?$pair@$$CBV?$basic_string@DU?$char_traits@D@std@@V?$allocator@D@2@@std@@PAVCWindow@UI@@@std@@@std@@@std@@QAEPAU?$_Tree_node@U?$pair@$$CBV?$basic_string@DU?$char_traits@D@std@@V?$allocator@D@2@@std@@PAVCWindow@UI@@@std@@PAX@2@U?$_Tree_id@PAU?$_Tree_node@U?$pair@$$CBV?$basic_string@DU?$char_traits@D@std@@V?$allocator@D@2@@std@@PAVCWindow@UI@@@std@@PAX@std@@@2@QAU32@@Z 00445660 f i EterPythonLib:PythonWindowManager.obj
 0001:00044870       ?_Throw_tree_length_error@std@@YAXXZ 00445870 f i InstanceBaseBattle.obj
 0001:00044880       _acosf                     00445880 f i InstanceBaseBattle.obj
 0001:000448b0       ??1?$_Tree@V?$_Tset_traits@HU?$less@H@std@@V?$allocator@H@2@$0A@@std@@@std@@QAE@XZ 004458b0 f i PythonBackground.obj
 0001:000448b0       ??1?$_Tree@V?$_Tset_traits@KU?$less@K@std@@V?$allocator@K@2@$0A@@std@@@std@@QAE@XZ 004458b0 f i InstanceBaseEffect.obj
 0001:000448b0       ??1?$set@KU?$less@K@std@@V?$allocator@K@2@@std@@QAE@XZ 004458b0 f i InstanceBaseEffect.obj
 0001:000448b0       ??1?$set@HU?$less@H@std@@V?$allocator@H@2@@std@@QAE@XZ 004458b0 f i PythonBackground.obj
 0001:000448d0       ?SetEmpireNameMode@CInstanceBase@@SAX_N@Z 004458d0 f   InstanceBaseEffect.obj
 0001:00044970       ?GetIndexedNameColor@CInstanceBase@@SAABUD3DXCOLOR@@I@Z 00445970 f   InstanceBaseEffect.obj
 0001:000449d0       ?AddDamageEffect@CInstanceBase@@QAEXKEHH@Z 004459d0 f   InstanceBaseEffect.obj
 0001:00044ad0       ?ProcessDamage@CInstanceBase@@IAEXXZ 00445ad0 f   InstanceBaseEffect.obj
 0001:00045180       ?AttachSpecialEffect@CInstanceBase@@QAEXK@Z 00446180 f   InstanceBaseEffect.obj
 0001:00045190       ?LevelUp@CInstanceBase@@QAEXXZ 00446190 f   InstanceBaseEffect.obj
 0001:000451a0       ?SkillUp@CInstanceBase@@QAEXXZ 004461a0 f   InstanceBaseEffect.obj
 0001:000451b0       ?CreateSpecialEffect@CInstanceBase@@QAEXK@Z 004461b0 f   InstanceBaseEffect.obj
 0001:00045210       ?__EffectContainer_Destroy@CInstanceBase@@IAEXXZ 00446210 f   InstanceBaseEffect.obj
 0001:00045270       ?__EffectContainer_Initialize@CInstanceBase@@IAEXXZ 00446270 f   InstanceBaseEffect.obj
 0001:000452a0       ?__EffectContainer_GetDict@CInstanceBase@@IAEAAV?$map@KKU?$less@K@std@@V?$allocator@U?$pair@$$CBKK@std@@@2@@std@@XZ 004462a0 f   InstanceBaseEffect.obj
 0001:000452b0       ?__EffectContainer_AttachEffect@CInstanceBase@@IAEKK@Z 004462b0 f   InstanceBaseEffect.obj
 0001:00045330       ?__EffectContainer_DetachEffect@CInstanceBase@@IAEXK@Z 00446330 f   InstanceBaseEffect.obj
 0001:00045390       ?__AttachEmpireEffect@CInstanceBase@@IAEXK@Z 00446390 f   InstanceBaseEffect.obj
 0001:00045420       ?__AttachSelectEffect@CInstanceBase@@IAEXXZ 00446420 f   InstanceBaseEffect.obj
 0001:00045430       ?__DetachSelectEffect@CInstanceBase@@IAEXXZ 00446430 f   InstanceBaseEffect.obj
 0001:00045440       ?__AttachTargetEffect@CInstanceBase@@IAEXXZ 00446440 f   InstanceBaseEffect.obj
 0001:00045450       ?__DetachTargetEffect@CInstanceBase@@IAEXXZ 00446450 f   InstanceBaseEffect.obj
 0001:00045460       ?__StoneSmoke_Inialize@CInstanceBase@@IAEXXZ 00446460 f   InstanceBaseEffect.obj
 0001:00045470       ?__StoneSmoke_Destroy@CInstanceBase@@IAEXXZ 00446470 f   InstanceBaseEffect.obj
 0001:00045490       ?__StoneSmoke_Create@CInstanceBase@@IAEXK@Z 00446490 f   InstanceBaseEffect.obj
 0001:000454b0       ?SetAlpha@CInstanceBase@@QAEXM@Z 004464b0 f   InstanceBaseEffect.obj
 0001:000454e0       ?UpdateDeleting@CInstanceBase@@QAE_NXZ 004464e0 f   InstanceBaseEffect.obj
 0001:00045550       ?DeleteBlendOut@CInstanceBase@@QAEXXZ 00446550 f   InstanceBaseEffect.obj
 0001:00045590       ?ClearPVPKeySystem@CInstanceBase@@SAXXZ 00446590 f   InstanceBaseEffect.obj
 0001:00045640       ?InsertPVPKey@CInstanceBase@@SAXKK@Z 00446640 f   InstanceBaseEffect.obj
 0001:00045670       ?RemovePVPKey@CInstanceBase@@SAXKK@Z 00446670 f   InstanceBaseEffect.obj
 0001:00045690       ?InsertGVGKey@CInstanceBase@@SAXKK@Z 00446690 f   InstanceBaseEffect.obj
 0001:000456c0       ?RemoveGVGKey@CInstanceBase@@SAXKK@Z 004466c0 f   InstanceBaseEffect.obj
 0001:000456e0       ?InsertDUELKey@CInstanceBase@@SAXKK@Z 004466e0 f   InstanceBaseEffect.obj
 0001:00045710       ?__GetPVPKey@CInstanceBase@@KAKKK@Z 00446710 f   InstanceBaseEffect.obj
 0001:00045750       ?__FindPVPKey@CInstanceBase@@KA_NKK@Z 00446750 f   InstanceBaseEffect.obj
 0001:000457a0       ?__FindGVGKey@CInstanceBase@@KA_NKK@Z 004467a0 f   InstanceBaseEffect.obj
 0001:000457f0       ?__FindDUELKey@CInstanceBase@@KA_NKK@Z 004467f0 f   InstanceBaseEffect.obj
 0001:00045840       ?IsPVPInstance@CInstanceBase@@QAE_NAAV1@@Z 00446840 f   InstanceBaseEffect.obj
 0001:000458b0       ?GetNameColor@CInstanceBase@@QAEABUD3DXCOLOR@@XZ 004468b0 f   InstanceBaseEffect.obj
 0001:000458c0       ?GetNameColorIndex@CInstanceBase@@QAEIXZ 004468c0 f   InstanceBaseEffect.obj
 0001:00045a20       ?GetTitleColor@CInstanceBase@@QAEABUD3DXCOLOR@@XZ 00446a20 f   InstanceBaseEffect.obj
 0001:00045a80       ?AttachTextTail@CInstanceBase@@QAEXXZ 00446a80 f   InstanceBaseEffect.obj
 0001:00045b60       ?DetachTextTail@CInstanceBase@@QAEXXZ 00446b60 f   InstanceBaseEffect.obj
 0001:00045b80       ?UpdateTextTailLevel@CInstanceBase@@QAEXK@Z 00446b80 f   InstanceBaseEffect.obj
 0001:00045c20       ?RefreshTextTail@CInstanceBase@@QAEXXZ 00446c20 f   InstanceBaseEffect.obj
 0001:00045cc0       ?RefreshTextTailTitle@CInstanceBase@@QAEXXZ 00446cc0 f   InstanceBaseEffect.obj
 0001:00045cd0       ?__ClearAffectFlagContainer@CInstanceBase@@QAEXXZ 00446cd0 f   InstanceBaseEffect.obj
 0001:00045ce0       ?__ClearAffects@CInstanceBase@@QAEXXZ 00446ce0 f   InstanceBaseEffect.obj
 0001:00045d40       ?__SetNormalAffectFlagContainer@CInstanceBase@@QAEXABVCAffectFlagContainer@@@Z 00446d40 f   InstanceBaseEffect.obj
 0001:00045db0       ?__SetStoneSmokeFlagContainer@CInstanceBase@@QAEXABVCAffectFlagContainer@@@Z 00446db0 f   InstanceBaseEffect.obj
 0001:00045e50       ?SetAffectFlagContainer@CInstanceBase@@QAEXABVCAffectFlagContainer@@@Z 00446e50 f   InstanceBaseEffect.obj
 0001:00045e90       ?SCRIPT_SetAffect@CInstanceBase@@QAEXI_N@Z 00446e90 f   InstanceBaseEffect.obj
 0001:00045ea0       ?__Assassin_SetEunhyeongAffect@CInstanceBase@@IAEX_N@Z 00446ea0 f   InstanceBaseEffect.obj
 0001:00045f50       ?__Warrior_SetGeomgyeongAffect@CInstanceBase@@IAEX_N@Z 00446f50 f   InstanceBaseEffect.obj
 0001:00045ff0       ?__SetAffect@CInstanceBase@@QAEXI_N@Z 00446ff0 f   InstanceBaseEffect.obj
 0001:00046170       ?IsPossibleEmoticon@CInstanceBase@@QAE_NXZ 00447170 f   InstanceBaseEffect.obj
 0001:000461d0       ?SetFishEmoticon@CInstanceBase@@QAEXXZ 004471d0 f   InstanceBaseEffect.obj
 0001:000461e0       ?SetEmoticon@CInstanceBase@@QAEXI@Z 004471e0 f   InstanceBaseEffect.obj
 0001:000462c0       ?SetDustGap@CInstanceBase@@SAXM@Z 004472c0 f   InstanceBaseEffect.obj
 0001:000462d0       ?SetHorseDustGap@CInstanceBase@@SAXM@Z 004472d0 f   InstanceBaseEffect.obj
 0001:000462e0       ?__DetachEffect@CInstanceBase@@IAEXK@Z 004472e0 f   InstanceBaseEffect.obj
 0001:000462f0       ?__AttachEffect@CInstanceBase@@IAEKI@Z 004472f0 f   InstanceBaseEffect.obj
 0001:00046410       ?RegisterEffect@CInstanceBase@@SA_NIPBD0_N@Z 00447410 f   InstanceBaseEffect.obj
 0001:000464a0       ?RegisterTitleName@CInstanceBase@@SAXHPBD@Z 004474a0 f   InstanceBaseEffect.obj
 0001:000465c0       ?__RGBToD3DXColoru@@YA?AUD3DXCOLOR@@III@Z 004475c0 f   InstanceBaseEffect.obj
 0001:00046640       ?RegisterNameColor@CInstanceBase@@SA_NIIII@Z 00447640 f   InstanceBaseEffect.obj
 0001:00046680       ?RegisterTitleColor@CInstanceBase@@SA_NIIII@Z 00447680 f   InstanceBaseEffect.obj
 0001:000466c0       ?erase@?$_Tree@V?$_Tset_traits@KU?$less@K@std@@V?$allocator@K@2@$0A@@std@@@std@@QAEIABK@Z 004476c0 f i InstanceBaseEffect.obj
 0001:00046890       ?push_back@?$vector@V?$basic_string@DU?$char_traits@D@std@@V?$allocator@D@2@@std@@V?$allocator@V?$basic_string@DU?$char_traits@D@std@@V?$allocator@D@2@@std@@@2@@std@@QAEX$$QAV?$basic_string@DU?$char_traits@D@std@@V?$allocator@D@2@@2@@Z 00447890 f i InstanceBaseEffect.obj
 0001:000468f0       ??1?$vector@V?$basic_string@DU?$char_traits@D@std@@V?$allocator@D@2@@std@@V?$allocator@V?$basic_string@DU?$char_traits@D@std@@V?$allocator@D@2@@std@@@2@@std@@QAE@XZ 004478f0 f i InstanceBaseEffect.obj
 0001:00046940       ??0?$vector@V?$basic_string@DU?$char_traits@D@std@@V?$allocator@D@2@@std@@V?$allocator@V?$basic_string@DU?$char_traits@D@std@@V?$allocator@D@2@@std@@@2@@std@@QAE@ABV01@@Z 00447940 f i InstanceBaseEffect.obj
 0001:00046a00       ??1?$_Tidy_guard@V?$vector@V?$basic_string@DU?$char_traits@D@std@@V?$allocator@D@2@@std@@V?$allocator@V?$basic_string@DU?$char_traits@D@std@@V?$allocator@D@2@@std@@@2@@std@@@std@@QAE@XZ 00447a00 f i InstanceBaseEffect.obj
 0001:00046a60       ?_Destroy@?$vector@V?$basic_string@DU?$char_traits@D@std@@V?$allocator@D@2@@std@@V?$allocator@V?$basic_string@DU?$char_traits@D@std@@V?$allocator@D@2@@std@@@2@@std@@AAEXPAV?$basic_string@DU?$char_traits@D@std@@V?$allocator@D@2@@2@0@Z 00447a60 f i InstanceBaseEffect.obj
 0001:00046a80       ?deallocate@?$allocator@V?$basic_string@DU?$char_traits@D@std@@V?$allocator@D@2@@std@@@std@@QAEXQAV?$basic_string@DU?$char_traits@D@std@@V?$allocator@D@2@@2@I@Z 00447a80 f i InstanceBaseEffect.obj
 0001:00046aa0       ?_Extract@?$_Tree_val@U?$_Tree_simple_types@U?$pair@$$CBV?$basic_string@DU?$char_traits@D@std@@V?$allocator@D@2@@std@@E@std@@@std@@@std@@QAEPAU?$_Tree_node@U?$pair@$$CBV?$basic_string@DU?$char_traits@D@std@@V?$allocator@D@2@@std@@E@std@@PAX@2@V?$_Tree_unchecked_const_iterator@V?$_Tree_val@U?$_Tree_simple_types@U?$pair@$$CBV?$basic_string@DU?$char_traits@D@std@@V?$allocator@D@2@@std@@E@std@@@std@@@std@@U_Iterator_base0@2@@2@@Z 00447aa0 f i PythonMessenger.obj
 0001:00046aa0       ?_Extract@?$_Tree_val@U?$_Tree_simple_types@U?$pair@$$CBKUSObserver@CPythonMiniMap@@@std@@@std@@@std@@QAEPAU?$_Tree_node@U?$pair@$$CBKUSObserver@CPythonMiniMap@@@std@@PAX@2@V?$_Tree_unchecked_const_iterator@V?$_Tree_val@U?$_Tree_simple_types@U?$pair@$$CBKUSObserver@CPythonMiniMap@@@std@@@std@@@std@@U_Iterator_base0@2@@2@@Z 00447aa0 f i PythonMiniMap.obj
 0001:00046aa0       ?_Extract@?$_Tree_val@U?$_Tree_simple_types@U?$pair@$$CBKUSReserveTargetEffect@CPythonBackground@@@std@@@std@@@std@@QAEPAU?$_Tree_node@U?$pair@$$CBKUSReserveTargetEffect@CPythonBackground@@@std@@PAX@2@V?$_Tree_unchecked_const_iterator@V?$_Tree_val@U?$_Tree_simple_types@U?$pair@$$CBKUSReserveTargetEffect@CPythonBackground@@@std@@@std@@@std@@U_Iterator_base0@2@@2@@Z 00447aa0 f i PythonBackground.obj
 0001:00046aa0       ?_Extract@?$_Tree_val@U?$_Tree_simple_types@U?$pair@$$CBV?$basic_string@DU?$char_traits@D@std@@V?$allocator@D@2@@std@@PAVCWhisper@@@std@@@std@@@std@@QAEPAU?$_Tree_node@U?$pair@$$CBV?$basic_string@DU?$char_traits@D@std@@V?$allocator@D@2@@std@@PAVCWhisper@@@std@@PAX@2@V?$_Tree_unchecked_const_iterator@V?$_Tree_val@U?$_Tree_simple_types@U?$pair@$$CBV?$basic_string@DU?$char_traits@D@std@@V?$allocator@D@2@@std@@PAVCWhisper@@@std@@@std@@@std@@U_Iterator_base0@2@@2@@Z 00447aa0 f i PythonChat.obj
 0001:00046aa0       ?_Extract@?$_Tree_val@U?$_Tree_simple_types@U?$pair@$$CBKUSPartyMemberInfo@CPythonPlayer@@@std@@@std@@@std@@QAEPAU?$_Tree_node@U?$pair@$$CBKUSPartyMemberInfo@CPythonPlayer@@@std@@PAX@2@V?$_Tree_unchecked_const_iterator@V?$_Tree_val@U?$_Tree_simple_types@U?$pair@$$CBKUSPartyMemberInfo@CPythonPlayer@@@std@@@std@@@std@@U_Iterator_base0@2@@2@@Z 00447aa0 f i PythonPlayer.obj
 0001:00046aa0       ?_Extract@?$_Tree_val@U?$_Tree_simple_types@V?$basic_string@DU?$char_traits@D@std@@V?$allocator@D@2@@std@@@std@@@std@@QAEPAU?$_Tree_node@V?$basic_string@DU?$char_traits@D@std@@V?$allocator@D@2@@std@@PAX@2@V?$_Tree_unchecked_const_iterator@V?$_Tree_val@U?$_Tree_simple_types@V?$basic_string@DU?$char_traits@D@std@@V?$allocator@D@2@@std@@@std@@@std@@U_Iterator_base0@2@@2@@Z 00447aa0 f i PythonChat.obj
 0001:00046aa0       ?_Extract@?$_Tree_val@U?$_Tree_simple_types@K@std@@@std@@QAEPAU?$_Tree_node@KPAX@2@V?$_Tree_unchecked_const_iterator@V?$_Tree_val@U?$_Tree_simple_types@K@std@@@std@@U_Iterator_base0@2@@2@@Z 00447aa0 f i InstanceBaseEffect.obj
 0001:00046aa0       ?_Extract@?$_Tree_val@U?$_Tree_simple_types@U?$pair@$$CBUSItemPos@@USShopItemTable@@@std@@@std@@@std@@QAEPAU?$_Tree_node@U?$pair@$$CBUSItemPos@@USShopItemTable@@@std@@PAX@2@V?$_Tree_unchecked_const_iterator@V?$_Tree_val@U?$_Tree_simple_types@U?$pair@$$CBUSItemPos@@USShopItemTable@@@std@@@std@@@std@@U_Iterator_base0@2@@2@@Z 00447aa0 f i PythonShop.obj
 0001:00046ec0       ??$?HDU?$char_traits@D@std@@V?$allocator@D@1@@std@@YA?AV?$basic_string@DU?$char_traits@D@std@@V?$allocator@D@2@@0@QBDABV10@@Z 00447ec0 f i InstanceBaseEffect.obj
 0001:00046f10       ??$?HDU?$char_traits@D@std@@V?$allocator@D@1@@std@@YA?AV?$basic_string@DU?$char_traits@D@std@@V?$allocator@D@2@@0@$$QAV10@QBD@Z 00447f10 f i InstanceBaseEffect.obj
 0001:00046f70       ??$insert@$0A@$0A@@?$_Tree@V?$_Tmap_traits@KKU?$less@K@std@@V?$allocator@U?$pair@$$CBKK@std@@@2@$0A@@std@@@std@@QAE?AU?$pair@V?$_Tree_iterator@V?$_Tree_val@U?$_Tree_simple_types@U?$pair@$$CBKK@std@@@std@@@std@@@std@@_N@1@$$QAU?$pair@$$CBKK@1@@Z 00447f70 f i InstanceBaseEffect.obj
 0001:00047060       ??$insert@$0A@$0A@@?$_Tree@V?$_Tset_traits@KU?$less@K@std@@V?$allocator@K@2@$0A@@std@@@std@@QAE?AU?$pair@V?$_Tree_const_iterator@V?$_Tree_val@U?$_Tree_simple_types@K@std@@@std@@@std@@_N@1@ABK@Z 00448060 f i InstanceBaseEffect.obj
 0001:00047150       ??$_Erase_tree_and_orphan@V?$allocator@U?$_Tree_node@HPAX@std@@@std@@@?$_Tree_val@U?$_Tree_simple_types@H@std@@@std@@QAEXAAV?$allocator@U?$_Tree_node@HPAX@std@@@1@PAU?$_Tree_node@HPAX@1@@Z 00448150 f i PythonBackground.obj
 0001:00047150       ??$_Erase_tree@V?$allocator@U?$_Tree_node@PAVCFlyTarget@@PAX@std@@@std@@@?$_Tree_val@U?$_Tree_simple_types@PAVCFlyTarget@@@std@@@std@@QAEXAAV?$allocator@U?$_Tree_node@PAVCFlyTarget@@PAX@std@@@1@PAU?$_Tree_node@PAVCFlyTarget@@PAX@1@@Z 00448150 f i GameLib:ActorInstance.obj
 0001:00047150       ??$_Erase_tree@V?$allocator@U?$_Tree_node@PAVIActorInstance@@PAX@std@@@std@@@?$_Tree_val@U?$_Tree_simple_types@PAVIActorInstance@@@std@@@std@@QAEXAAV?$allocator@U?$_Tree_node@PAVIActorInstance@@PAX@std@@@1@PAU?$_Tree_node@PAVIActorInstance@@PAX@1@@Z 00448150 f i GameLib:FlyingInstance.obj
 0001:00047150       ??$_Erase_tree@V?$allocator@U?$_Tree_node@PAVCWindow@UI@@PAX@std@@@std@@@?$_Tree_val@U?$_Tree_simple_types@PAVCWindow@UI@@@std@@@std@@QAEXAAV?$allocator@U?$_Tree_node@PAVCWindow@UI@@PAX@std@@@1@PAU?$_Tree_node@PAVCWindow@UI@@PAX@1@@Z 00448150 f i EterPythonLib:PythonWindowManager.obj
 0001:00047150       ??$_Erase_tree@V?$allocator@U?$_Tree_node@HPAX@std@@@std@@@?$_Tree_val@U?$_Tree_simple_types@H@std@@@std@@QAEXAAV?$allocator@U?$_Tree_node@HPAX@std@@@1@PAU?$_Tree_node@HPAX@1@@Z 00448150 f i PythonBackground.obj
 0001:00047150       ??$_Erase_tree@V?$allocator@U?$_Tree_node@PADPAX@std@@@std@@@?$_Tree_val@U?$_Tree_simple_types@PAD@std@@@std@@QAEXAAV?$allocator@U?$_Tree_node@PADPAX@std@@@1@PAU?$_Tree_node@PADPAX@1@@Z 00448150 f i EterLib:MSWindow.obj
 0001:00047150       ??$_Erase_tree@V?$allocator@U?$_Tree_node@KPAX@std@@@std@@@?$_Tree_val@U?$_Tree_simple_types@K@std@@@std@@QAEXAAV?$allocator@U?$_Tree_node@KPAX@std@@@1@PAU?$_Tree_node@KPAX@1@@Z 00448150 f i InstanceBaseEffect.obj
 0001:00047150       ??$_Erase_tree@V?$allocator@U?$_Tree_node@PAUSObjectInstance@CArea@@PAX@std@@@std@@@?$_Tree_val@U?$_Tree_simple_types@PAUSObjectInstance@CArea@@@std@@@std@@QAEXAAV?$allocator@U?$_Tree_node@PAUSObjectInstance@CArea@@PAX@std@@@1@PAU?$_Tree_node@PAUSObjectInstance@CArea@@PAX@1@@Z 00448150 f i GameLib:Area.obj
 0001:00047150       ??$_Erase_tree@V?$allocator@U?$_Tree_node@MPAX@std@@@std@@@?$_Tree_val@U?$_Tree_simple_types@M@std@@@std@@QAEXAAV?$allocator@U?$_Tree_node@MPAX@std@@@1@PAU?$_Tree_node@MPAX@1@@Z 00448150 f i EffectLib:ParticleSystemData.obj
 0001:00047190       ??$_Emplace_reallocate@V?$basic_string@DU?$char_traits@D@std@@V?$allocator@D@2@@std@@@?$vector@V?$basic_string@DU?$char_traits@D@std@@V?$allocator@D@2@@std@@V?$allocator@V?$basic_string@DU?$char_traits@D@std@@V?$allocator@D@2@@std@@@2@@std@@QAEPAV?$basic_string@DU?$char_traits@D@std@@V?$allocator@D@2@@1@QAV21@$$QAV21@@Z 00448190 f i InstanceBaseEffect.obj
 0001:000472d0       ??$_Destroy_range@V?$allocator@V?$basic_string@DU?$char_traits@D@std@@V?$allocator@D@2@@std@@@std@@@std@@YAXPAV?$basic_string@DU?$char_traits@D@std@@V?$allocator@D@2@@0@QAV10@AAV?$allocator@V?$basic_string@DU?$char_traits@D@std@@V?$allocator@D@2@@std@@@0@@Z 004482d0 f i InstanceBaseEffect.obj
 0001:00047310       ?_Change_array@?$vector@V?$basic_string@DU?$char_traits@D@std@@V?$allocator@D@2@@std@@V?$allocator@V?$basic_string@DU?$char_traits@D@std@@V?$allocator@D@2@@std@@@2@@std@@AAEXQAV?$basic_string@DU?$char_traits@D@std@@V?$allocator@D@2@@2@II@Z 00448310 f i InstanceBaseEffect.obj
 0001:00047370       ??0?$basic_string@DU?$char_traits@D@std@@V?$allocator@D@2@@std@@QAE@U_String_constructor_concat_tag@1@ABV01@QBDI2I@Z 00448370 f i InstanceBaseEffect.obj
 0001:00047410       ?_Extract@?$_Tree_val@U?$_Tree_simple_types@U?$pair@$$CBKPAVCInstanceBase@@@std@@@std@@@std@@QAEPAU?$_Tree_node@U?$pair@$$CBKPAVCInstanceBase@@@std@@PAX@2@V?$_Tree_unchecked_const_iterator@V?$_Tree_val@U?$_Tree_simple_types@U?$pair@$$CBKPAVCInstanceBase@@@std@@@std@@@std@@U_Iterator_base0@2@@2@@Z 00448410 f i PythonCharacterManager.obj
 0001:00047410       ?_Extract@?$_Tree_val@U?$_Tree_simple_types@U?$pair@$$CBKPAUSTextTail@CPythonTextTail@@@std@@@std@@@std@@QAEPAU?$_Tree_node@U?$pair@$$CBKPAUSTextTail@CPythonTextTail@@@std@@PAX@2@V?$_Tree_unchecked_const_iterator@V?$_Tree_val@U?$_Tree_simple_types@U?$pair@$$CBKPAUSTextTail@CPythonTextTail@@@std@@@std@@@std@@U_Iterator_base0@2@@2@@Z 00448410 f i PythonTextTail.obj
 0001:00047410       ?_Extract@?$_Tree_val@U?$_Tree_simple_types@U?$pair@$$CBKPAUSGroundItemInstance@CPythonItem@@@std@@@std@@@std@@QAEPAU?$_Tree_node@U?$pair@$$CBKPAUSGroundItemInstance@CPythonItem@@@std@@PAX@2@V?$_Tree_unchecked_const_iterator@V?$_Tree_val@U?$_Tree_simple_types@U?$pair@$$CBKPAUSGroundItemInstance@CPythonItem@@@std@@@std@@@std@@U_Iterator_base0@2@@2@@Z 00448410 f i PythonItem.obj
 0001:00047410       ?_Extract@?$_Tree_val@U?$_Tree_simple_types@U?$pair@$$CBKK@std@@@std@@@std@@QAEPAU?$_Tree_node@U?$pair@$$CBKK@std@@PAX@2@V?$_Tree_unchecked_const_iterator@V?$_Tree_val@U?$_Tree_simple_types@U?$pair@$$CBKK@std@@@std@@@std@@U_Iterator_base0@2@@2@@Z 00448410 f i InstanceBaseEffect.obj
 0001:00047410       ?_Extract@?$_Tree_val@U?$_Tree_simple_types@U?$pair@$$CBKUSNetworkActorData@@@std@@@std@@@std@@QAEPAU?$_Tree_node@U?$pair@$$CBKUSNetworkActorData@@@std@@PAX@2@V?$_Tree_unchecked_const_iterator@V?$_Tree_val@U?$_Tree_simple_types@U?$pair@$$CBKUSNetworkActorData@@@std@@@std@@@std@@U_Iterator_base0@2@@2@@Z 00448410 f i NetworkActorManager.obj
 0001:000477f0       ??$_Find_lower_bound@H@?$_Tree@V?$_Tmap_traits@HV?$basic_string@DU?$char_traits@D@std@@V?$allocator@D@2@@std@@U?$less@H@2@V?$allocator@U?$pair@$$CBHV?$basic_string@DU?$char_traits@D@std@@V?$allocator@D@2@@std@@@std@@@2@$0A@@std@@@std@@IBE?AU?$_Tree_find_result@PAU?$_Tree_node@U?$pair@$$CBHV?$basic_string@DU?$char_traits@D@std@@V?$allocator@D@2@@std@@@std@@PAX@std@@@1@ABH@Z 004487f0 f i InstanceBaseEffect.obj
 0001:00047840       ??$_Erase_tree@V?$allocator@U?$_Tree_node@U?$pair@$$CBIV?$basic_string@DU?$char_traits@D@std@@V?$allocator@D@2@@std@@@std@@PAX@std@@@std@@@?$_Tree_val@U?$_Tree_simple_types@U?$pair@$$CBIV?$basic_string@DU?$char_traits@D@std@@V?$allocator@D@2@@std@@@std@@@std@@@std@@QAEXAAV?$allocator@U?$_Tree_node@U?$pair@$$CBIV?$basic_string@DU?$char_traits@D@std@@V?$allocator@D@2@@std@@@std@@PAX@std@@@1@PAU?$_Tree_node@U?$pair@$$CBIV?$basic_string@DU?$char_traits@D@std@@V?$allocator@D@2@@std@@@std@@PAX@1@@Z 00448840 f i EterLib:GrpDevice.obj
 0001:00047840       ??$_Erase_tree@V?$allocator@U?$_Tree_node@U?$pair@$$CBHV?$basic_string@DU?$char_traits@D@std@@V?$allocator@D@2@@std@@@std@@PAX@std@@@std@@@?$_Tree_val@U?$_Tree_simple_types@U?$pair@$$CBHV?$basic_string@DU?$char_traits@D@std@@V?$allocator@D@2@@std@@@std@@@std@@@std@@QAEXAAV?$allocator@U?$_Tree_node@U?$pair@$$CBHV?$basic_string@DU?$char_traits@D@std@@V?$allocator@D@2@@std@@@std@@PAX@std@@@1@PAU?$_Tree_node@U?$pair@$$CBHV?$basic_string@DU?$char_traits@D@std@@V?$allocator@D@2@@std@@@std@@PAX@1@@Z 00448840 f i InstanceBaseEffect.obj
 0001:00047840       ??$_Erase_tree@V?$allocator@U?$_Tree_node@U?$pair@$$CBKV?$basic_string@DU?$char_traits@D@std@@V?$allocator@D@2@@std@@@std@@PAX@std@@@std@@@?$_Tree_val@U?$_Tree_simple_types@U?$pair@$$CBKV?$basic_string@DU?$char_traits@D@std@@V?$allocator@D@2@@std@@@std@@@std@@@std@@QAEXAAV?$allocator@U?$_Tree_node@U?$pair@$$CBKV?$basic_string@DU?$char_traits@D@std@@V?$allocator@D@2@@std@@@std@@PAX@std@@@1@PAU?$_Tree_node@U?$pair@$$CBKV?$basic_string@DU?$char_traits@D@std@@V?$allocator@D@2@@std@@@std@@PAX@1@@Z 00448840 f i PythonGuild.obj
 0001:000478b0       ??$_Find_lower_bound@K@?$_Tree@V?$_Tmap_traits@KPAUSMobTable@CPythonNonPlayer@@U?$less@K@std@@V?$allocator@U?$pair@$$CBKPAUSMobTable@CPythonNonPlayer@@@std@@@4@$0A@@std@@@std@@IBE?AU?$_Tree_find_result@PAU?$_Tree_node@U?$pair@$$CBKPAUSMobTable@CPythonNonPlayer@@@std@@PAX@std@@@1@ABK@Z 004488b0 f i PythonNonPlayer.obj
 0001:000478b0       ??$_Find_lower_bound@K@?$_Tree@V?$_Tmap_traits@KPAVCProperty@@U?$less@K@std@@V?$allocator@U?$pair@$$CBKPAVCProperty@@@std@@@3@$0A@@std@@@std@@IBE?AU?$_Tree_find_result@PAU?$_Tree_node@U?$pair@$$CBKPAVCProperty@@@std@@PAX@std@@@1@ABK@Z 004488b0 f i GameLib:PropertyManager.obj
 0001:000478b0       ??$_Find_lower_bound@K@?$_Tree@V?$_Tmap_traits@KUSHair@CRaceData@@U?$less@K@std@@V?$allocator@U?$pair@$$CBKUSHair@CRaceData@@@std@@@4@$0A@@std@@@std@@IBE?AU?$_Tree_find_result@PAU?$_Tree_node@U?$pair@$$CBKUSHair@CRaceData@@@std@@PAX@std@@@1@ABK@Z 004488b0 f i GameLib:RaceData.obj
 0001:000478b0       ??$_Find_lower_bound@K@?$_Tree@V?$_Tmap_traits@KUSPartyMemberInfo@CPythonPlayer@@U?$less@K@std@@V?$allocator@U?$pair@$$CBKUSPartyMemberInfo@CPythonPlayer@@@std@@@4@$0A@@std@@@std@@IBE?AU?$_Tree_find_result@PAU?$_Tree_node@U?$pair@$$CBKUSPartyMemberInfo@CPythonPlayer@@@std@@PAX@std@@@1@ABK@Z 004488b0 f i PythonPlayer.obj
 0001:000478b0       ??$_Find_lower_bound@K@?$_Tree@V?$_Tmap_traits@KHU?$less@K@std@@V?$allocator@U?$pair@$$CBKH@std@@@2@$0A@@std@@@std@@IBE?AU?$_Tree_find_result@PAU?$_Tree_node@U?$pair@$$CBKH@std@@PAX@std@@@1@ABK@Z 004488b0 f i GameLib:MapOutdoor.obj
 0001:000478b0       ??$_Find_lower_bound@K@?$_Tree@V?$_Tmap_traits@KPAVCItemData@@U?$less@K@std@@V?$allocator@U?$pair@$$CBKPAVCItemData@@@std@@@3@$0A@@std@@@std@@IBE?AU?$_Tree_find_result@PAU?$_Tree_node@U?$pair@$$CBKPAVCItemData@@@std@@PAX@std@@@1@ABK@Z 004488b0 f i GameLib:ItemManager.obj
 0001:000478b0       ??$_Find_lower_bound@K@?$_Tree@V?$_Tset_traits@KU?$less@K@std@@V?$allocator@K@2@$0A@@std@@@std@@IBE?AU?$_Tree_find_result@PAU?$_Tree_node@KPAX@std@@@1@ABK@Z 004488b0 f i InstanceBaseEffect.obj
 0001:000478b0       ??$_Find_lower_bound@PAUSObjectInstance@CArea@@@?$_Tree@V?$_Tset_traits@PAUSObjectInstance@CArea@@U?$less@PAUSObjectInstance@CArea@@@std@@V?$allocator@PAUSObjectInstance@CArea@@@4@$0A@@std@@@std@@IBE?AU?$_Tree_find_result@PAU?$_Tree_node@PAUSObjectInstance@CArea@@PAX@std@@@1@ABQAUSObjectInstance@CArea@@@Z 004488b0 f i GameLib:Area.obj
 0001:000478b0       ??$_Find_lower_bound@K@?$_Tree@V?$_Tmap_traits@KV?$basic_string@DU?$char_traits@D@std@@V?$allocator@D@2@@std@@U?$less@K@2@V?$allocator@U?$pair@$$CBKV?$basic_string@DU?$char_traits@D@std@@V?$allocator@D@2@@std@@@std@@@2@$0A@@std@@@std@@IBE?AU?$_Tree_find_result@PAU?$_Tree_node@U?$pair@$$CBKV?$basic_string@DU?$char_traits@D@std@@V?$allocator@D@2@@std@@@std@@PAX@std@@@1@ABK@Z 004488b0 f i PythonGuild.obj
 0001:000478b0       ??$_Find_lower_bound@K@?$_Tree@V?$_Tmap_traits@KPAVCSpeedTreeWrapper@@U?$less@K@std@@V?$allocator@U?$pair@$$CBKPAVCSpeedTreeWrapper@@@std@@@3@$0A@@std@@@std@@IBE?AU?$_Tree_find_result@PAU?$_Tree_node@U?$pair@$$CBKPAVCSpeedTreeWrapper@@@std@@PAX@std@@@1@ABK@Z 004488b0 f i SpeedTreeLib:SpeedTreeForest.obj
 0001:000478b0       ??$_Find_lower_bound@K@?$_Tree@V?$_Tmap_traits@KKU?$less@K@std@@V?$allocator@U?$pair@$$CBKK@std@@@2@$0A@@std@@@std@@IBE?AU?$_Tree_find_result@PAU?$_Tree_node@U?$pair@$$CBKK@std@@PAX@std@@@1@ABK@Z 004488b0 f i InstanceBaseEffect.obj
 0001:000478b0       ??$_Find_lower_bound@K@?$_Tree@V?$_Tmap_traits@KUSReserveTargetEffect@CPythonBackground@@U?$less@K@std@@V?$allocator@U?$pair@$$CBKUSReserveTargetEffect@CPythonBackground@@@std@@@4@$0A@@std@@@std@@IBE?AU?$_Tree_find_result@PAU?$_Tree_node@U?$pair@$$CBKUSReserveTargetEffect@CPythonBackground@@@std@@PAX@std@@@1@ABK@Z 004488b0 f i PythonBackground.obj
 0001:000478b0       ??$_Find_lower_bound@K@?$_Tree@V?$_Tmap_traits@KUSShape@CRaceData@@U?$less@K@std@@V?$allocator@U?$pair@$$CBKUSShape@CRaceData@@@std@@@4@$0A@@std@@@std@@IBE?AU?$_Tree_find_result@PAU?$_Tree_node@U?$pair@$$CBKUSShape@CRaceData@@@std@@PAX@std@@@1@ABK@Z 004488b0 f i GameLib:RaceData.obj
 0001:000478b0       ??$_Find_lower_bound@K@?$_Tree@V?$_Tmap_traits@KUSComboAttackData@CRaceData@@U?$less@K@std@@V?$allocator@U?$pair@$$CBKUSComboAttackData@CRaceData@@@std@@@4@$0A@@std@@@std@@IBE?AU?$_Tree_find_result@PAU?$_Tree_node@U?$pair@$$CBKUSComboAttackData@CRaceData@@@std@@PAX@std@@@1@ABK@Z 004488b0 f i GameLib:RaceData.obj
 0001:000478b0       ??$_Find_lower_bound@K@?$_Tree@V?$_Tmap_traits@KUSIndexFlyData@CFlyingManager@@U?$less@K@std@@V?$allocator@U?$pair@$$CBKUSIndexFlyData@CFlyingManager@@@std@@@4@$0A@@std@@@std@@IBE?AU?$_Tree_find_result@PAU?$_Tree_node@U?$pair@$$CBKUSIndexFlyData@CFlyingManager@@@std@@PAX@std@@@1@ABK@Z 004488b0 f i GameLib:FlyingObjectManager.obj
 0001:000478b0       ??$_Find_lower_bound@K@?$_Tree@V?$_Tmap_traits@KPAVCInstanceBase@@U?$less@K@std@@V?$allocator@U?$pair@$$CBKPAVCInstanceBase@@@std@@@3@$0A@@std@@@std@@IBE?AU?$_Tree_find_result@PAU?$_Tree_node@U?$pair@$$CBKPAVCInstanceBase@@@std@@PAX@std@@@1@ABK@Z 004488b0 f i PythonCharacterManager.obj
 0001:000478b0       ??$_Find_lower_bound@K@?$_Tree@V?$_Tmap_traits@KPAVCTextFileLoader@@U?$less@K@std@@V?$allocator@U?$pair@$$CBKPAVCTextFileLoader@@@std@@@3@$0A@@std@@@std@@IBE?AU?$_Tree_find_result@PAU?$_Tree_node@U?$pair@$$CBKPAVCTextFileLoader@@@std@@PAX@std@@@1@ABK@Z 004488b0 f i EterLib:TextFileLoader.obj
 0001:000478b0       ??$_Find_lower_bound@PAVCGraphicThingInstance@@@?$_Tree@V?$_Tmap_traits@PAVCGraphicThingInstance@@KU?$less@PAVCGraphicThingInstance@@@std@@V?$allocator@U?$pair@QAVCGraphicThingInstance@@K@std@@@3@$0A@@std@@@std@@IBE?AU?$_Tree_find_result@PAU?$_Tree_node@U?$pair@QAVCGraphicThingInstance@@K@std@@PAX@std@@@1@ABQAVCGraphicThingInstance@@@Z 004488b0 f i GameLib:Area.obj
 0001:000478b0       ??$_Find_lower_bound@K@?$_Tree@V?$_Tmap_traits@KPAVCEffectInstance@@U?$less@K@std@@V?$allocator@U?$pair@$$CBKPAVCEffectInstance@@@std@@@3@$0A@@std@@@std@@IBE?AU?$_Tree_find_result@PAU?$_Tree_node@U?$pair@$$CBKPAVCEffectInstance@@@std@@PAX@std@@@1@ABK@Z 004488b0 f i EffectLib:EffectManager.obj
 0001:000478b0       ??$_Find_lower_bound@K@?$_Tree@V?$_Tmap_traits@KPAVCGuildMarkImage@@U?$less@K@std@@V?$allocator@U?$pair@$$CBKPAVCGuildMarkImage@@@std@@@3@$0A@@std@@@std@@IBE?AU?$_Tree_find_result@PAU?$_Tree_node@U?$pair@$$CBKPAVCGuildMarkImage@@@std@@PAX@std@@@1@ABK@Z 004488b0 f i MarkManager.obj
 0001:000478b0       ??$_Find_lower_bound@I@?$_Tree@V?$_Tmap_traits@IV?$basic_string@DU?$char_traits@D@std@@V?$allocator@D@2@@std@@U?$less@I@2@V?$allocator@U?$pair@$$CBIV?$basic_string@DU?$char_traits@D@std@@V?$allocator@D@2@@std@@@std@@@2@$0A@@std@@@std@@IBE?AU?$_Tree_find_result@PAU?$_Tree_node@U?$pair@$$CBIV?$basic_string@DU?$char_traits@D@std@@V?$allocator@D@2@@std@@@std@@PAX@std@@@1@ABI@Z 004488b0 f i EterLib:GrpDevice.obj
 0001:000478b0       ??$_Find_lower_bound@K@?$_Tree@V?$_Tmap_traits@KPAVCFlyingData@@U?$less@K@std@@V?$allocator@U?$pair@$$CBKPAVCFlyingData@@@std@@@3@$0A@@std@@@std@@IBE?AU?$_Tree_find_result@PAU?$_Tree_node@U?$pair@$$CBKPAVCFlyingData@@@std@@PAX@std@@@1@ABK@Z 004488b0 f i GameLib:FlyingObjectManager.obj
 0001:000478b0       ??$_Find_lower_bound@PAVCActorInstance@@@?$_Tree@V?$_Tmap_traits@PAVCActorInstance@@MU?$less@PAVCActorInstance@@@std@@V?$allocator@U?$pair@QAVCActorInstance@@M@std@@@3@$0A@@std@@@std@@IBE?AU?$_Tree_find_result@PAU?$_Tree_node@U?$pair@QAVCActorInstance@@M@std@@PAX@std@@@1@ABQAVCActorInstance@@@Z 004488b0 f i GameLib:ActorInstanceCollisionDetection.obj
 0001:000478b0       ??$_Find_lower_bound@K@?$_Tree@V?$_Tmap_traits@KV?$vector@V?$basic_string@DU?$char_traits@D@std@@V?$allocator@D@2@@std@@V?$allocator@V?$basic_string@DU?$char_traits@D@std@@V?$allocator@D@2@@std@@@2@@std@@U?$less@K@2@V?$allocator@U?$pair@$$CBKV?$vector@V?$basic_string@DU?$char_traits@D@std@@V?$allocator@D@2@@std@@V?$allocator@V?$basic_string@DU?$char_traits@D@std@@V?$allocator@D@2@@std@@@2@@std@@@std@@@2@$0A@@std@@@std@@IBE?AU?$_Tree_find_result@PAU?$_Tree_node@U?$pair@$$CBKV?$vector@V?$basic_string@DU?$char_traits@D@std@@V?$allocator@D@2@@std@@V?$allocator@V?$basic_string@DU?$char_traits@D@std@@V?$allocator@D@2@@std@@@2@@std@@@std@@PAX@std@@@1@ABK@Z 004488b0 f i EterLib:TextFileLoader.obj
 0001:000478b0       ??$_Find_lower_bound@K@?$_Tree@V?$_Tmap_traits@KPAVCEffectData@@U?$less@K@std@@V?$allocator@U?$pair@$$CBKPAVCEffectData@@@std@@@3@$0A@@std@@@std@@IBE?AU?$_Tree_find_result@PAU?$_Tree_node@U?$pair@$$CBKPAVCEffectData@@@std@@PAX@std@@@1@ABK@Z 004488b0 f i EffectLib:EffectManager.obj
 0001:000478b0       ??$_Find_lower_bound@K@?$_Tree@V?$_Tmap_traits@KPAVCRaceData@@U?$less@K@std@@V?$allocator@U?$pair@$$CBKPAVCRaceData@@@std@@@3@$0A@@std@@@std@@IBE?AU?$_Tree_find_result@PAU?$_Tree_node@U?$pair@$$CBKPAVCRaceData@@@std@@PAX@std@@@1@ABK@Z 004488b0 f i GameLib:RaceManager.obj
 0001:000478b0       ??$_Find_lower_bound@PAVIActorInstance@@@?$_Tree@V?$_Tset_traits@PAVIActorInstance@@U?$less@PAVIActorInstance@@@std@@V?$allocator@PAVIActorInstance@@@3@$0A@@std@@@std@@IBE?AU?$_Tree_find_result@PAU?$_Tree_node@PAVIActorInstance@@PAX@std@@@1@ABQAVIActorInstance@@@Z 004488b0 f i GameLib:FlyingInstance.obj
 0001:000478b0       ??$_Find_lower_bound@K@?$_Tree@V?$_Tmap_traits@KPAUSEnvironmentData@@U?$less@K@std@@V?$allocator@U?$pair@$$CBKPAUSEnvironmentData@@@std@@@3@$0A@@std@@@std@@IBE?AU?$_Tree_find_result@PAU?$_Tree_node@U?$pair@$$CBKPAUSEnvironmentData@@@std@@PAX@std@@@1@ABK@Z 004488b0 f i GameLib:MapManager.obj
 0001:000478b0       ??$_Find_lower_bound@PBUSHitData@NRaceData@@@?$_Tree@V?$_Tmap_traits@PBUSHitData@NRaceData@@V?$map@PAVCActorInstance@@MU?$less@PAVCActorInstance@@@std@@V?$allocator@U?$pair@QAVCActorInstance@@M@std@@@3@@std@@U?$less@PBUSHitData@NRaceData@@@4@V?$allocator@U?$pair@QBUSHitData@NRaceData@@V?$map@PAVCActorInstance@@MU?$less@PAVCActorInstance@@@std@@V?$allocator@U?$pair@QAVCActorInstance@@M@std@@@3@@std@@@std@@@4@$0A@@std@@@std@@IBE?AU?$_Tree_find_result@PAU?$_Tree_node@U?$pair@QBUSHitData@NRaceData@@V?$map@PAVCActorInstance@@MU?$less@PAVCActorInstance@@@std@@V?$allocator@U?$pair@QAVCActorInstance@@M@std@@@3@@std@@@std@@PAX@std@@@1@ABQBUSHitData@NRaceData@@@Z 004488b0 f i GameLib:ActorInstanceCollisionDetection.obj
 0001:000478b0       ??$_Find_lower_bound@K@?$_Tree@V?$_Tmap_traits@KPAVCLight@@U?$less@K@std@@V?$allocator@U?$pair@$$CBKPAVCLight@@@std@@@3@$0A@@std@@@std@@IBE?AU?$_Tree_find_result@PAU?$_Tree_node@U?$pair@$$CBKPAVCLight@@@std@@PAX@std@@@1@ABK@Z 004488b0 f i EterLib:GrpLightManager.obj
 0001:000478b0       ??$_Find_lower_bound@K@?$_Tree@V?$_Tmap_traits@KPAVCResource@@U?$less@K@std@@V?$allocator@U?$pair@$$CBKPAVCResource@@@std@@@3@$0A@@std@@@std@@IBE?AU?$_Tree_find_result@PAU?$_Tree_node@U?$pair@$$CBKPAVCResource@@@std@@PAX@std@@@1@ABK@Z 004488b0 f i EterLib:ResourceManager.obj
 0001:000478b0       ??$_Find_lower_bound@K@?$_Tree@V?$_Tmap_traits@KUSNetworkActorData@@U?$less@K@std@@V?$allocator@U?$pair@$$CBKUSNetworkActorData@@@std@@@3@$0A@@std@@@std@@IBE?AU?$_Tree_find_result@PAU?$_Tree_node@U?$pair@$$CBKUSNetworkActorData@@@std@@PAX@std@@@1@ABK@Z 004488b0 f i NetworkActorManager.obj
 0001:000478b0       ??$_Find_lower_bound@K@?$_Tree@V?$_Tmap_traits@KPAUSTextTail@CPythonTextTail@@U?$less@K@std@@V?$allocator@U?$pair@$$CBKPAUSTextTail@CPythonTextTail@@@std@@@4@$0A@@std@@@std@@IBE?AU?$_Tree_find_result@PAU?$_Tree_node@U?$pair@$$CBKPAUSTextTail@CPythonTextTail@@@std@@PAX@std@@@1@ABK@Z 004488b0 f i PythonTextTail.obj
 0001:00047900       ??$_Uninitialized_copy@PAV?$basic_string@DU?$char_traits@D@std@@V?$allocator@D@2@@std@@V?$allocator@V?$basic_string@DU?$char_traits@D@std@@V?$allocator@D@2@@std@@@2@@std@@YAPAV?$basic_string@DU?$char_traits@D@std@@V?$allocator@D@2@@0@QAV10@0PAV10@AAV?$allocator@V?$basic_string@DU?$char_traits@D@std@@V?$allocator@D@2@@std@@@0@@Z 00448900 f i InstanceBaseEffect.obj
 0001:00047980       ??$_Uninitialized_move@PAV?$basic_string@DU?$char_traits@D@std@@V?$allocator@D@2@@std@@V?$allocator@V?$basic_string@DU?$char_traits@D@std@@V?$allocator@D@2@@std@@@2@@std@@YAPAV?$basic_string@DU?$char_traits@D@std@@V?$allocator@D@2@@0@QAV10@0PAV10@AAV?$allocator@V?$basic_string@DU?$char_traits@D@std@@V?$allocator@D@2@@std@@@0@@Z 00448980 f i InstanceBaseEffect.obj
 0001:000479f0       ??1?$_Uninitialized_backout_al@V?$allocator@V?$basic_string@DU?$char_traits@D@std@@V?$allocator@D@2@@std@@@std@@@std@@QAE@XZ 004489f0 f i InstanceBaseEffect.obj
 0001:00047a10       ??1?$_Alloc_construct_ptr@V?$allocator@U?$_List_node@USChannel@CServerStateChecker@@PAX@std@@@std@@@std@@QAE@XZ 00448a10 f i ServerStateChecker.obj
 0001:00047a10       ??1?$_Alloc_construct_ptr@V?$allocator@U?$_Tree_node@PADPAX@std@@@std@@@std@@QAE@XZ 00448a10 f i EterLib:MSWindow.obj
 0001:00047a10       ??1?$_Alloc_construct_ptr@V?$allocator@U?$_Tree_node@KPAX@std@@@std@@@std@@QAE@XZ 00448a10 f i InstanceBaseEffect.obj
 0001:00047a10       ??1?$_Alloc_construct_ptr@V?$allocator@U?$_Tree_node@PAVCFlyTarget@@PAX@std@@@std@@@std@@QAE@XZ 00448a10 f i GameLib:FlyTarget.obj
 0001:00047a10       ??1?$_Alloc_construct_ptr@V?$allocator@U?$_List_node@USTextLine@CPythonEventManager@@PAX@std@@@std@@@std@@QAE@XZ 00448a10 f i PythonEventManager.obj
 0001:00047a10       ??1?$_Alloc_construct_ptr@V?$allocator@U?$_Tree_node@PAVIActorInstance@@PAX@std@@@std@@@std@@QAE@XZ 00448a10 f i GameLib:FlyingInstance.obj
 0001:00047a10       ??1?$_Alloc_construct_ptr@V?$allocator@U?$_Tree_node@MPAX@std@@@std@@@std@@QAE@XZ 00448a10 f i EffectLib:ParticleSystemData.obj
 0001:00047a10       ??1?$_Alloc_construct_ptr@V?$allocator@U?$_Tree_node@HPAX@std@@@std@@@std@@QAE@XZ 00448a10 f i PythonBackground.obj
 0001:00047a10       ??1?$_Alloc_construct_ptr@V?$allocator@U?$_Tree_node@PAUSObjectInstance@CArea@@PAX@std@@@std@@@std@@QAE@XZ 00448a10 f i GameLib:Area.obj
 0001:00047a30       ?_Construct_lv_contents@?$basic_string@DU?$char_traits@D@std@@V?$allocator@D@2@@std@@AAEXABV12@@Z 00448a30 f i InstanceBaseEffect.obj
 0001:00047ac0       ??0?$basic_string@DU?$char_traits@D@std@@V?$allocator@D@2@@std@@QAE@ABV01@@Z 00448ac0 f i InstanceBaseEffect.obj
 0001:00047b60       ?_Take_contents@?$basic_string@DU?$char_traits@D@std@@V?$allocator@D@2@@std@@AAEXAAV12@U?$integral_constant@_N$00@2@@Z 00448b60 f i InstanceBaseEffect.obj
 0001:00047b90       ??$_Traits_compare@U?$char_traits@D@std@@@std@@YAHQBDI0I@Z 00448b90 f i InstanceBaseEffect.obj
 0001:00047c20       ?compare@?$basic_string@DU?$char_traits@D@std@@V?$allocator@D@2@@std@@QBEHQBD@Z 00448c20 f i InstanceBaseEffect.obj
 0001:00047c60       ?GetEventHandlerRef@CInstanceBase@@IAEAAVIEventHandler@CActorInstance@@XZ 00448c60 f   InstanceBaseEvent.obj
 0001:00047c70       ?SetEventHandler@CInstanceBase@@QAEXPAVIEventHandler@CActorInstance@@@Z 00448c70 f   InstanceBaseEvent.obj
 0001:00047c80       ?SetMotionMode@CInstanceBase@@QAEXH@Z 00448c80 f   InstanceBaseMotion.obj
 0001:00047c90       ?SetLoopMotion@CInstanceBase@@QAEXGMM@Z 00448c90 f   InstanceBaseMotion.obj
 0001:00047cc0       ?PushOnceMotion@CInstanceBase@@QAEXGMM@Z 00448cc0 f   InstanceBaseMotion.obj
 0001:00047cf0       ?PushLoopMotion@CInstanceBase@@QAEXGMM@Z 00448cf0 f   InstanceBaseMotion.obj
 0001:00047d20       ?isLock@CInstanceBase@@QAEHXZ 00448d20 f   InstanceBaseMotion.obj
 0001:00047d30       ?StartFishing@CInstanceBase@@QAEXM@Z 00448d30 f   InstanceBaseMotion.obj
 0001:00047e10       ?StopFishing@CInstanceBase@@QAEXXZ 00448e10 f   InstanceBaseMotion.obj
 0001:00047e50       ?ReactFishing@CInstanceBase@@QAEXXZ 00448e50 f   InstanceBaseMotion.obj
 0001:00047e90       ?CatchSuccess@CInstanceBase@@QAEXXZ 00448e90 f   InstanceBaseMotion.obj
 0001:00047ed0       ?CatchFail@CInstanceBase@@QAEXXZ 00448ed0 f   InstanceBaseMotion.obj
 0001:00047f10       ?GetFishingRot@CInstanceBase@@QAEHPAH@Z 00448f10 f   InstanceBaseMotion.obj
 0001:00048020       ?__EnableChangingTCPState@CInstanceBase@@IAEXXZ 00449020 f   InstanceBaseMotion.obj
 0001:00048030       ?__DisableChangingTCPState@CInstanceBase@@IAEXXZ 00449030 f   InstanceBaseMotion.obj
 0001:00048040       ?ActDualEmotion@CInstanceBase@@QAEXAAV1@GG@Z 00449040 f   InstanceBaseMotion.obj
 0001:000481a0       ?ActEmotion@CInstanceBase@@QAEXK@Z 004491a0 f   InstanceBaseMotion.obj
 0001:000481c0       ??$ELPlainCoord_GetRotatedPixelPosition@M@@YAXMMMMPAM0@Z 004491c0 f i InstanceBaseMotion.obj
 0001:00048240       ??$EL_DegreeToRadian@M@@YAMM@Z 00449240 f i InstanceBaseMotion.obj
 0001:00048260       ?SetAttackSpeed@CInstanceBase@@QAEXI@Z 00449260 f   InstanceBaseMovement.obj
 0001:000482c0       ?SetMoveSpeed@CInstanceBase@@QAEXI@Z 004492c0 f   InstanceBaseMovement.obj
 0001:00048320       ?SetRotationSpeed@CInstanceBase@@QAEXM@Z 00449320 f   InstanceBaseMovement.obj
 0001:00048330       ?NEW_Stop@CInstanceBase@@QAEXXZ 00449330 f   InstanceBaseMovement.obj
 0001:00048380       ?NEW_SyncPixelPosition@CInstanceBase@@QAEXAAJ0@Z 00449380 f   InstanceBaseMovement.obj
 0001:000483a0       ?NEW_CanMoveToDestPixelPosition@CInstanceBase@@QAE_NABUD3DXVECTOR3@@@Z 004493a0 f   InstanceBaseMovement.obj
 0001:000483e0       ?CInstanceBase_GetDegreeFromPosition@@YAMMM@Z 004493e0 f   InstanceBaseMovement.obj
 0001:000484b0       ?NEW_GetAdvancingRotationFromDirPixelPosition@CInstanceBase@@QAEMABUD3DXVECTOR3@@@Z 004494b0 f   InstanceBaseMovement.obj
 0001:00048510       ?NEW_GetAdvancingRotationFromPixelPosition@CInstanceBase@@QAEMABUD3DXVECTOR3@@0@Z 00449510 f   InstanceBaseMovement.obj
 0001:00048560       ?NEW_SetAdvancingRotationFromDirPixelPosition@CInstanceBase@@QAEXABUD3DXVECTOR3@@@Z 00449560 f   InstanceBaseMovement.obj
 0001:000485d0       ?NEW_SetAdvancingRotationFromPixelPosition@CInstanceBase@@QAEXABUD3DXVECTOR3@@0@Z 004495d0 f   InstanceBaseMovement.obj
 0001:00048620       ?SetAdvancingRotation@CInstanceBase@@QAEXM@Z 00449620 f   InstanceBaseMovement.obj
 0001:000486e0       ?StartWalking@CInstanceBase@@IAEXXZ 004496e0 f   InstanceBaseMovement.obj
 0001:00048740       ?EndWalking@CInstanceBase@@QAEXM@Z 00449740 f   InstanceBaseMovement.obj
 0001:000487c0       ?EndWalkingWithoutBlending@CInstanceBase@@QAEXXZ 004497c0 f   InstanceBaseMovement.obj
 0001:000487d0       ?IsWaiting@CInstanceBase@@QAEHXZ 004497d0 f   InstanceBaseMovement.obj
 0001:000487e0       ?IsWalking@CInstanceBase@@QAEHXZ 004497e0 f   InstanceBaseMovement.obj
 0001:000487f0       ?IsPushing@CInstanceBase@@QAEHXZ 004497f0 f   InstanceBaseMovement.obj
 0001:00048800       ?IsAttacked@CInstanceBase@@QAEHXZ 00449800 f   InstanceBaseMovement.obj
 0001:00048810       ?IsKnockDown@CInstanceBase@@QAEHXZ 00449810 f   InstanceBaseMovement.obj
 0001:00048830       ?IsAttacking@CInstanceBase@@QAEHXZ 00449830 f   InstanceBaseMovement.obj
 0001:00048840       ?IsActingEmotion@CInstanceBase@@QAEHXZ 00449840 f   InstanceBaseMovement.obj
 0001:00048850       ?NEW_MoveToDestInstanceDirection@CInstanceBase@@QAEXAAV1@@Z 00449850 f   InstanceBaseMovement.obj
 0001:00048890       ?NEW_MoveToDestPixelPositionDirection@CInstanceBase@@QAE_NABUD3DXVECTOR3@@@Z 00449890 f   InstanceBaseMovement.obj
 0001:000488d0       ?NEW_Goto@CInstanceBase@@QAE_NABUD3DXVECTOR3@@M@Z 004498d0 f   InstanceBaseMovement.obj
 0001:000489d0       ?NEW_MoveToDirection@CInstanceBase@@QAEXM@Z 004499d0 f   InstanceBaseMovement.obj
 0001:00048b60       ?EndGoing@CInstanceBase@@QAEXXZ 00449b60 f   InstanceBaseMovement.obj
 0001:00048b90       ?SetRunMode@CInstanceBase@@QAEXXZ 00449b90 f   InstanceBaseMovement.obj
 0001:00048ba0       ?SetWalkMode@CInstanceBase@@QAEXXZ 00449ba0 f   InstanceBaseMovement.obj
 0001:00048bb0       ?SCRIPT_SetPixelPosition@CInstanceBase@@QAEXMM@Z 00449bb0 f   InstanceBaseTransform.obj
 0001:00048c00       ?NEW_SetPixelPosition@CInstanceBase@@QAEXABUD3DXVECTOR3@@@Z 00449c00 f   InstanceBaseTransform.obj
 0001:00048c10       ?NEW_GetPixelPosition@CInstanceBase@@QAEXPAUD3DXVECTOR3@@@Z 00449c10 f   InstanceBaseTransform.obj
 0001:00048c40       ?SetRotation@CInstanceBase@@QAEXM@Z 00449c40 f   InstanceBaseTransform.obj
 0001:00048c60       ?BlendRotation@CInstanceBase@@QAEXMM@Z 00449c60 f   InstanceBaseTransform.obj
 0001:00048c80       ?NEW_LookAtFlyTarget@CInstanceBase@@QAEXXZ 00449c80 f   InstanceBaseTransform.obj
 0001:00048c90       ?NEW_LookAtDestPixelPosition@CInstanceBase@@QAEXABUD3DXVECTOR3@@@Z 00449c90 f   InstanceBaseTransform.obj
 0001:00048cd0       ?NEW_LookAtDestInstance@CInstanceBase@@QAEXAAV1@@Z 00449cd0 f   InstanceBaseTransform.obj
 0001:00048cf0       ?GetRotation@CInstanceBase@@QAEMXZ 00449cf0 f   InstanceBaseTransform.obj
 0001:00048d10       ?GetAdvancingRotation@CInstanceBase@@QAEMXZ 00449d10 f   InstanceBaseTransform.obj
 0001:00048d30       ?SetDirection@CInstanceBase@@QAEXH@Z 00449d30 f   InstanceBaseTransform.obj
 0001:00048d60       ?GetDegreeFromDirection@CInstanceBase@@QAEMH@Z 00449d60 f   InstanceBaseTransform.obj
 0001:00048d90       ??0CInsultChecker@@QAE@XZ  00449d90 f   InsultChecker.obj
 0001:00048de0       ??_ECInsultChecker@@UAEPAXI@Z 00449de0 f i * CIL library *:* CIL module *
 0001:00048de0       ??_GCInsultChecker@@UAEPAXI@Z 00449de0 f i InsultChecker.obj
 0001:00048e10       ??1CInsultChecker@@UAE@XZ  00449e10 f   InsultChecker.obj
 0001:00048e30       ?Clear@CInsultChecker@@QAEXXZ 00449e30 f   InsultChecker.obj
 0001:00048e50       ?AppendInsult@CInsultChecker@@QAEXABV?$basic_string@DU?$char_traits@D@std@@V?$allocator@D@2@@std@@@Z 00449e50 f   InsultChecker.obj
 0001:00048f10       ?__GetInsultLength@CInsultChecker@@AAE_NPBDPAI@Z 00449f10 f   InsultChecker.obj
 0001:00048f60       ?__IsInsult@CInsultChecker@@AAE_NPBD@Z 00449f60 f   InsultChecker.obj
 0001:00048f80       ?FilterInsult@CInsultChecker@@QAEXPADI@Z 00449f80 f   InsultChecker.obj
 0001:00048ff0       ?IsInsultIn@CInsultChecker@@QAE_NPBDI@Z 00449ff0 f   InsultChecker.obj
 0001:00049050       ??$_Free_non_head@V?$allocator@U?$_List_node@V?$basic_string@DU?$char_traits@D@std@@V?$allocator@D@2@@std@@PAX@std@@@std@@@?$_List_node@V?$basic_string@DU?$char_traits@D@std@@V?$allocator@D@2@@std@@PAX@std@@SAXAAV?$allocator@U?$_List_node@V?$basic_string@DU?$char_traits@D@std@@V?$allocator@D@2@@std@@PAX@std@@@1@PAU01@@Z 0044a050 f i InsultChecker.obj
 0001:000490a0       ??1?$_Alloc_construct_ptr@V?$allocator@U?$_Tree_node@U?$pair@$$CBGV?$vector@USMotion@CRaceData@@V?$allocator@USMotion@CRaceData@@@std@@@std@@@std@@PAX@std@@@std@@@std@@QAE@XZ 0044a0a0 f i GameLib:RaceData.obj
 0001:000490a0       ??1?$_Alloc_construct_ptr@V?$allocator@U?$_Tree_node@U?$pair@$$CBKV?$vector@V?$basic_string@DU?$char_traits@D@std@@V?$allocator@D@2@@std@@V?$allocator@V?$basic_string@DU?$char_traits@D@std@@V?$allocator@D@2@@std@@@2@@std@@@std@@PAX@std@@@std@@@std@@QAE@XZ 0044a0a0 f i EterLib:TextFileLoader.obj
 0001:000490a0       ??1?$_Alloc_construct_ptr@V?$allocator@U?$_Tree_node@U?$pair@$$CBKUSComboAttackData@CRaceData@@@std@@PAX@std@@@std@@@std@@QAE@XZ 0044a0a0 f i GameLib:RaceData.obj
 0001:000490a0       ??1?$_Alloc_construct_ptr@V?$allocator@U?$_List_node@V?$basic_string@DU?$char_traits@D@std@@V?$allocator@D@2@@std@@PAX@std@@@std@@@std@@QAE@XZ 0044a0a0 f i InsultChecker.obj
 0001:000490a0       ??1?$_Alloc_construct_ptr@V?$allocator@U?$_Tree_node@U?$pair@$$CBUSItemPos@@USShopItemTable@@@std@@PAX@std@@@std@@@std@@QAE@XZ 0044a0a0 f i PythonShop.obj
 0001:000490c0       ?LocaleService_LoadConfig@@YAXPBD@Z 0044a0c0 f   Locale.obj
 0001:000491a0       ?LocaleService_GetLastExp@@YAIH@Z 0044a1a0 f   Locale.obj
 0001:000491c0       ?LocaleService_GetSkillPower@@YAHI@Z 0044a1c0 f   Locale.obj
 0001:000491f0       ?LocaleService_GetSecurityKey@@YAPBDXZ 0044a1f0 f   Locale.obj
 0001:00049210       ?LocaleService_IsCHEONMA@@YA_NXZ 0044a210 f   Locale.obj
 0001:00049220       ?LocaleService_GetName@@YAPBDXZ 0044a220 f   Locale.obj
 0001:00049230       ?LocaleService_GetCodePage@@YAIXZ 0044a230 f   Locale.obj
 0001:00049240       ?LocaleService_GetLocaleName@@YAPBDXZ 0044a240 f   Locale.obj
 0001:00049250       ?LocaleService_GetLocalePath@@YAPBDXZ 0044a250 f   Locale.obj
 0001:00049260       ?LocaleService_ForceSetLocale@@YAXPBD0@Z 0044a260 f   Locale.obj
 0001:000492e0       ?LocaleService_IsYMIR@@YA_NXZ 0044a2e0 f   Locale.obj
 0001:00049320       ?LocaleService_IsEUROPE@@YA_NXZ 0044a320 f   Locale.obj
 0001:00049340       ?LocaleService_IsHONGKONG@@YA_NXZ 0044a340 f   Locale.obj
 0001:00049360       ?LocaleService_IsTAIWAN@@YA_NXZ 0044a360 f   Locale.obj
 0001:00049380       ?LocaleService_IsLeadByte@@YAHD@Z 0044a380 f   Locale.obj
 0001:00049390       ?LocaleService_StringCompareCI@@YAHPBD0I@Z 0044a390 f   Locale.obj
 0001:000493b0       ___local_stdio_scanf_options 0044a3b0 f i Locale.obj
 0001:000493c0       _sscanf                    0044a3c0 f i Locale.obj
 0001:000493f0       ??0CGuildMarkImage@@QAE@XZ 0044a3f0 f   MarkImage.obj
 0001:00049410       ??_GCGuildMarkImage@@UAEPAXI@Z 0044a410 f i MarkImage.obj
 0001:00049410       ??_ECGuildMarkImage@@UAEPAXI@Z 0044a410 f i * CIL library *:* CIL module *
 0001:00049440       ??1CGuildMarkImage@@UAE@XZ 0044a440 f   MarkImage.obj
 0001:00049450       ?Destroy@CGuildMarkImage@@QAEXXZ 0044a450 f   MarkImage.obj
 0001:00049480       ?Create@CGuildMarkImage@@QAEXXZ 0044a480 f   MarkImage.obj
 0001:000494a0       ?Save@CGuildMarkImage@@QAE_NPBD@Z 0044a4a0 f   MarkImage.obj
 0001:000494e0       ?Build@CGuildMarkImage@@QAE_NPBD@Z 0044a4e0 f   MarkImage.obj
 0001:000495a0       ?Load@CGuildMarkImage@@QAE_NPBD@Z 0044a5a0 f   MarkImage.obj
 0001:00049690       ?PutData@CGuildMarkImage@@QAEXIIIIPAX@Z 0044a690 f   MarkImage.obj
 0001:000496d0       ?GetData@CGuildMarkImage@@QAEXIIIIPAX@Z 0044a6d0 f   MarkImage.obj
 0001:00049710       ?SaveBlockFromCompressedData@CGuildMarkImage@@QAE_NKPBEK@Z 0044a710 f   MarkImage.obj
 0001:00049860       ?BuildAllBlocks@CGuildMarkImage@@AAEXXZ 0044a860 f   MarkImage.obj
 0001:000498f0       ?GetBlockCRCList@CGuildMarkImage@@QAEXPAK@Z 0044a8f0 f   MarkImage.obj
 0001:00049930       ?GetCRC@SGuildMarkBlock@@QBEKXZ 0044a930 f   MarkImage.obj
 0001:00049940       ?CopyFrom@SGuildMarkBlock@@QAEXPBEKK@Z 0044a940 f   MarkImage.obj
 0001:00049980       ?Compress@SGuildMarkBlock@@QAEXPBK@Z 0044a980 f   MarkImage.obj
 0001:00049a00       __vfprintf_l               0044aa00 f i MarkImage.obj
 0001:00049a30       _printf                    0044aa30 f i MarkImage.obj
 0001:00049a50       ?__NewImage@CGuildMarkManager@@AAEPAVCGuildMarkImage@@XZ 0044aa50 f   MarkManager.obj
 0001:00049a70       ?__DeleteImage@CGuildMarkManager@@AAEXPAVCGuildMarkImage@@@Z 0044aa70 f   MarkManager.obj
 0001:00049a90       ??0CGuildMarkManager@@QAE@XZ 0044aa90 f   MarkManager.obj
 0001:00049c60       ??_GCGuildMarkManager@@UAEPAXI@Z 0044ac60 f i MarkManager.obj
 0001:00049c60       ??_ECGuildMarkManager@@UAEPAXI@Z 0044ac60 f i * CIL library *:* CIL module *
 0001:00049c90       ??1?$map@KUTGuildSymbol@CGuildMarkManager@@U?$less@K@std@@V?$allocator@U?$pair@$$CBKUTGuildSymbol@CGuildMarkManager@@@std@@@4@@std@@QAE@XZ 0044ac90 f i MarkManager.obj
 0001:00049cb0       ??1CGuildMarkManager@@UAE@XZ 0044acb0 f   MarkManager.obj
 0001:00049e00       ?GetMarkImageFilename@CGuildMarkManager@@QBE_NKAAV?$basic_string@DU?$char_traits@D@std@@V?$allocator@D@2@@std@@@Z 0044ae00 f   MarkManager.obj
 0001:00049e80       ?SetFileName@CGraphicImageTexture@@QAEXPBD@Z 0044ae80 f   EterLib:GrpImageTexture.obj
 0001:00049e80       ?SetMarkPathPrefix@CGuildMarkManager@@QAEXPBD@Z 0044ae80 f   MarkManager.obj
 0001:00049e80       ?SetPathName@CRaceManager@@QAEXPBD@Z 0044ae80 f   GameLib:RaceManager.obj
 0001:00049eb0       ?LoadMarkImages@CGuildMarkManager@@QAEXXZ 0044aeb0 f   MarkManager.obj
 0001:00049f40       ?SaveMarkImage@CGuildMarkManager@@QAEXK@Z 0044af40 f   MarkManager.obj
 0001:0004a010       ?__GetImage@CGuildMarkManager@@AAEPAVCGuildMarkImage@@K@Z 0044b010 f   MarkManager.obj
 0001:0004a190       ?AddMarkIDByGuildID@CGuildMarkManager@@QAE_NKK@Z 0044b190 f   MarkManager.obj
 0001:0004a1e0       ?GetMarkID@CGuildMarkManager@@QAEKK@Z 0044b1e0 f   MarkManager.obj
 0001:0004a230       ?GetGrannyMeshPointer@CGrannyMesh@@QBEPBUgranny_mesh@@XZ 0044b230 f   EterGrnLib:Mesh.obj
 0001:0004a230       ?GetWidth@CGraphicTexture@@QBEHXZ 0044b230 f   EterLib:GrpTexture.obj
 0001:0004a230       ?IsPrivateShop@CPythonShop@@QAEHXZ 0044b230 f   PythonShop.obj
 0001:0004a230       ?GetSearchMode@CEterPackManager@@QAEHXZ 0044b230 f   EterPack:EterPackManager.obj
 0001:0004a230       ?GetMarkImageCount@CGuildMarkManager@@QBEKXZ 0044b230 f   MarkManager.obj
 0001:0004a240       ?SaveBlockFromCompressedData@CGuildMarkManager@@QAE_NKKPBEK@Z 0044b240 f   MarkManager.obj
 0001:0004a270       ?GetBlockCRCList@CGuildMarkManager@@QAE_NKPAK@Z 0044b270 f   MarkManager.obj
 0001:0004a2e0       ??1?$singleton@VCGuildMarkManager@@@@UAE@XZ 0044b2e0 f i MarkManager.obj
 0001:0004a300       ??1?$vector@EV?$allocator@E@std@@@std@@QAE@XZ 0044b300 f i MarkManager.obj
 0001:0004a300       ??1?$vector@DV?$allocator@D@std@@@std@@QAE@XZ 0044b300 f i PythonNetworkStreamPhaseGame.obj
 0001:0004a330       ??0?$vector@USItem@SHeightCache@CMapOutdoor@@V?$allocator@USItem@SHeightCache@CMapOutdoor@@@std@@@std@@QAE@XZ 0044b330 f i GameLib:MapOutdoor.obj
 0001:0004a330       ??0?$vector@EV?$allocator@E@std@@@std@@QAE@XZ 0044b330 f i MarkManager.obj
 0001:0004a350       ??_G?$singleton@VCGuildMarkManager@@@@UAEPAXI@Z 0044b350 f i MarkManager.obj
 0001:0004a350       ??_E?$singleton@VCGuildMarkManager@@@@UAEPAXI@Z 0044b350 f i * CIL library *:* CIL module *
 0001:0004a380       ??$_Uninitialized_move@PAEV?$allocator@E@std@@@std@@YAPAEQAE0PAEAAV?$allocator@E@0@@Z 0044b380 f i MarkManager.obj
 0001:0004a3b0       ??$_Erase_tree@V?$allocator@U?$_Tree_node@U?$pair@$$CBKUTGuildSymbol@CGuildMarkManager@@@std@@PAX@std@@@std@@@?$_Tree_val@U?$_Tree_simple_types@U?$pair@$$CBKUTGuildSymbol@CGuildMarkManager@@@std@@@std@@@std@@QAEXAAV?$allocator@U?$_Tree_node@U?$pair@$$CBKUTGuildSymbol@CGuildMarkManager@@@std@@PAX@std@@@1@PAU?$_Tree_node@U?$pair@$$CBKUTGuildSymbol@CGuildMarkManager@@@std@@PAX@1@@Z 0044b3b0 f i MarkManager.obj
 0001:0004a420       ??$_Resize_reallocate@U_Value_init_tag@std@@@?$vector@EV?$allocator@E@std@@@std@@AAEXIABU_Value_init_tag@1@@Z 0044b420 f i MarkManager.obj
 0001:0004a4d0       ??$_Uninitialized_value_construct_n@V?$allocator@E@std@@@std@@YAPAEPAEIAAV?$allocator@E@0@@Z 0044b4d0 f i MarkManager.obj
 0001:0004a4f0       ??$_Zero_range@PAPAUSEffectMeshData@CEffectMesh@@@std@@YAPAPAUSEffectMeshData@CEffectMesh@@QAPAU12@0@Z 0044b4f0 f i EffectLib:EffectMesh.obj
 0001:0004a4f0       ??$_Zero_range@PAH@std@@YAPAHQAH0@Z 0044b4f0 f i EffectLib:EffectMesh.obj
 0001:0004a4f0       ??$_Zero_range@PA_W@std@@YAPA_WQA_W0@Z 0044b4f0 f i EterLib:IME.obj
 0001:0004a4f0       ??$_Zero_range@PAPAU?$pair@MUD3DXVECTOR3@@@std@@@std@@YAPAPAU?$pair@MUD3DXVECTOR3@@@0@QAPAU10@0@Z 0044b4f0 f i GameLib:WeaponTrace.obj
 0001:0004a4f0       ??$_Zero_range@PAPAUSSlot@CSlotWindow@UI@@@std@@YAPAPAUSSlot@CSlotWindow@UI@@QAPAU123@0@Z 0044b4f0 f i EterPythonLib:PythonGridSlotWindow.obj
 0001:0004a4f0       ??$_Zero_range@PAPAVCArea@@@std@@YAPAPAVCArea@@QAPAV1@0@Z 0044b4f0 f i GameLib:MapOutdoorUpdate.obj
 0001:0004a4f0       ??$_Zero_range@PAPAPAUSData@CFileLoaderThread@@@std@@YAPAPAPAUSData@CFileLoaderThread@@QAPAPAU12@0@Z 0044b4f0 f i EterLib:FileLoaderThread.obj
 0001:0004a4f0       ??$_Zero_range@PAPAK@std@@YAPAPAKQAPAK0@Z 0044b4f0 f i EterLib:GrpLightManager.obj
 0001:0004a4f0       ??$_Zero_range@PAPAUSState@CPythonGraphic@@@std@@YAPAPAUSState@CPythonGraphic@@QAPAU12@0@Z 0044b4f0 f i EterPythonLib:PythonGraphic.obj
 0001:0004a4f0       ??$_Zero_range@PAE@std@@YAPAEQAE0@Z 0044b4f0 f i MarkManager.obj
 0001:0004a4f0       ??$_Zero_range@PAPAVCGraphicThing@@@std@@YAPAPAVCGraphicThing@@QAPAV1@0@Z 0044b4f0 f i GameLib:ItemData.obj
 0001:0004a4f0       ??$_Zero_range@PAPAVCTerrain@@@std@@YAPAPAVCTerrain@@QAPAV1@0@Z 0044b4f0 f i GameLib:MapOutdoorUpdate.obj
 0001:0004a4f0       ??$_Zero_range@PAPAVCFlyTarget@@@std@@YAPAPAVCFlyTarget@@QAPAV1@0@Z 0044b4f0 f i GameLib:ActorInstanceFly.obj
 0001:0004a4f0       ??$_Zero_range@PAK@std@@YAPAKQAK0@Z 0044b4f0 f i GameLib:RaceData.obj
 0001:0004a4f0       ??$_Zero_range@PAPAUSReservingMotionNode@CActorInstance@@@std@@YAPAPAUSReservingMotionNode@CActorInstance@@QAPAU12@0@Z 0044b4f0 f i GameLib:ActorInstanceMotion.obj
 0001:0004a4f0       ??$_Zero_range@PAPAUSObjectInstance@CArea@@@std@@YAPAPAUSObjectInstance@CArea@@QAPAU12@0@Z 0044b4f0 f i GameLib:Area.obj
 0001:0004a510       _fprintf                   0044b510 f i MarkManager.obj
 0001:0004a530       __snprintf                 0044b530 f i MarkManager.obj
 0001:0004a550       ?FillRect@CMovieMan@@AAEXAAUtagRECT@@K@Z 0044b550 f   MovieMan.obj
 0001:0004a5f0       ?PlayLogo@CMovieMan@@QAEXPBD@Z 0044b5f0 f   MovieMan.obj
 0001:0004a610       ?PlayMovie@CMovieMan@@AAEHPBD_NHK@Z 0044b610 f   MovieMan.obj
 0001:0004a990       ?GetWindowRect@CMovieMan@@AAEXAAUtagRECT@@@Z 0044b990 f   MovieMan.obj
 0001:0004a9e0       ?CalcMovieRect@CMovieMan@@AAEXHHAAUtagRECT@@@Z 0044b9e0 f   MovieMan.obj
 0001:0004aa90       ?CalcBackgroundRect@CMovieMan@@AAEXABUtagRECT@@AAU2@1@Z 0044ba90 f   MovieMan.obj
 0001:0004ab20       ?RenderStreamToSurface@CMovieMan@@AAEJPAUIDirectDrawSurface@@PAUIDirectDrawMediaStream@@PAUIMultiMediaStream@@_NHK@Z 0044bb20 f   MovieMan.obj
 0001:0004ac90       ?RenderFileToMMStream@CMovieMan@@AAEJPBDPAPAUIMultiMediaStream@@PAUIDirectDraw@@@Z 0044bc90 f   MovieMan.obj
 0001:0004aff0       ?BuildFilterGraphManually@CMovieMan@@AAEJPA_WPAUIAMMultiMediaStream@@U_GUID@@22@Z 0044bff0 f   MovieMan.obj
 0001:0004b4d0       ??$?8DU?$char_traits@D@std@@V?$allocator@D@1@@std@@YA_NABV?$basic_string@DU?$char_traits@D@std@@V?$allocator@D@2@@0@QBD@Z 0044c4d0 f i MovieMan.obj
 0001:0004b4e0       ??$addressof@U?$grouped_ptr_node@U?$pair@$$CBKUItem@CEterFileDict@@@std@@@detail@unordered@boost@@@boost@@YAPAU?$grouped_ptr_node@U?$pair@$$CBKUItem@CEterFileDict@@@std@@@detail@unordered@0@AAU1230@@Z 0044c4e0 f i EterPack:EterPackManager.obj
 0001:0004b4e0       ??$_Refancy@PAD$0A@@std@@YAPADPAD@Z 0044c4e0 f i MovieMan.obj
 0001:0004b4e0       ??$_Const_cast@$$CBV?$CTimeEvent@M@@@std@@YAPAV?$CTimeEvent@M@@PBV1@@Z 0044c4e0 f i EffectLib:ParticleSystemData.obj
 0001:0004b4e0       ??$addressof@Uptr_bucket@detail@unordered@boost@@@boost@@YAPAUptr_bucket@detail@unordered@0@AAU1230@@Z 0044c4e0 f i EterPack:EterPackManager.obj
 0001:0004b4e0       ??$addressof@U?$ptr_node@U?$pair@$$CBV?$basic_string@DU?$char_traits@D@std@@V?$allocator@D@2@@std@@PAVCEterPack@@@std@@@detail@unordered@boost@@@boost@@YAPAU?$ptr_node@U?$pair@$$CBV?$basic_string@DU?$char_traits@D@std@@V?$allocator@D@2@@std@@PAVCEterPack@@@std@@@detail@unordered@0@AAU1230@@Z 0044c4e0 f i EterPack:EterPackManager.obj
 0001:0004b4e0       ??$_Const_cast@$$CBU?$pair@MJ@std@@@std@@YAPAU?$pair@MJ@0@PBU10@@Z 0044c4e0 f i GameLib:MapOutdoorWater.obj
 0001:0004b4e0       ??$_Refancy@PAPAVCTerrain@@$0A@@std@@YAPAPAVCTerrain@@PAPAV1@@Z 0044c4e0 f i GameLib:MapOutdoor.obj
 0001:0004b4e0       ??$addressof@U?$ptr_node@U?$pair@$$CBKPAUSEterPackIndex@@@std@@@detail@unordered@boost@@@boost@@YAPAU?$ptr_node@U?$pair@$$CBKPAUSEterPackIndex@@@std@@@detail@unordered@0@AAU1230@@Z 0044c4e0 f i EterPack:EterPack.obj
 0001:0004b4e0       ??$_Refancy@PAH$0A@@std@@YAPAHPAH@Z 0044c4e0 f i GameLib:MapOutdoorRenderSTP.obj
 0001:0004b4e0       ??$_Refancy@PAV?$CTimeEvent@M@@$0A@@std@@YAPAV?$CTimeEvent@M@@PAV1@@Z 0044c4e0 f i EffectLib:ParticleSystemData.obj
 0001:0004b4e0       ??$_Const_cast@$$CBUTAttachEffectInstance@CFlyingInstance@@@std@@YAPAUTAttachEffectInstance@CFlyingInstance@@PBU12@@Z 0044c4e0 f i GameLib:FlyingInstance.obj
 0001:0004b4e0       ??$hash_value@K@boost@@YAIK@Z 0044c4e0 f i EterPack:EterPackManager.obj
 0001:0004b4e0       ??$_Const_cast@$$CBUCDynamicSphereInstance@@@std@@YAPAUCDynamicSphereInstance@@PBU1@@Z 0044c4e0 f i GameLib:ActorInstanceCollisionDetection.obj
 0001:0004b4e0       ??$_Refancy@PA_W$0A@@std@@YAPA_WPA_W@Z 0044c4e0 f i EterLib:IME.obj
 0001:0004b4e0       ??$_Const_cast@$$CBUSEffectPosition@@@std@@YAPAUSEffectPosition@@PBU1@@Z 0044c4e0 f i EffectLib:EffectElementBase.obj
 0001:0004b4e0       ??$_Const_cast@$$CBU?$pair@MUTFlyVertexSet@@@std@@@std@@YAPAU?$pair@MUTFlyVertexSet@@@0@PBU10@@Z 0044c4e0 f i GameLib:FlyTrace.obj
 0001:0004b4e0       ??$_Refancy@PAPAVCLight@@$0A@@std@@YAPAPAVCLight@@PAPAV1@@Z 0044c4e0 f i EterLib:GrpLightManager.obj
 0001:0004b4e0       ??$_Refancy@PAUSEffectPosition@@$0A@@std@@YAPAUSEffectPosition@@PAU1@@Z 0044c4e0 f i EffectLib:EffectElementBase.obj
 0001:0004b4e0       ??$_Refancy@PAPAVCGraphicObjectInstance@@$0A@@std@@YAPAPAVCGraphicObjectInstance@@PAPAV1@@Z 0044c4e0 f i GameLib:MapOutdoorUpdate.obj
 0001:0004b4e0       ??$_Refancy@PAU?$pair@MJ@std@@$0A@@std@@YAPAU?$pair@MJ@0@PAU10@@Z 0044c4e0 f i GameLib:MapOutdoorRenderSTP.obj
 0001:0004b4e0       ??$_Const_cast@$$CBV?$basic_string@DU?$char_traits@D@std@@V?$allocator@D@2@@std@@@std@@YAPAV?$basic_string@DU?$char_traits@D@std@@V?$allocator@D@2@@0@PBV10@@Z 0044c4e0 f i GameLib:GameType.obj
 0001:0004b4e0       ??$_Refancy@PAPAVCArea@@$0A@@std@@YAPAPAVCArea@@PAPAV1@@Z 0044c4e0 f i GameLib:MapOutdoor.obj
 0001:0004b4e0       ??$_Refancy@PAPAVCMonsterAreaInfo@@$0A@@std@@YAPAPAVCMonsterAreaInfo@@PAPAV1@@Z 0044c4e0 f i GameLib:MapOutdoor.obj
 0001:0004b4f0       ?_Equal@?$basic_string@DU?$char_traits@D@std@@V?$allocator@D@2@@std@@QBE_NQBD@Z 0044c4f0 f i MovieMan.obj
 0001:0004b580       ?UpdatePosition@SNetworkActorData@@QAEXXZ 0044c580 f   NetworkActorManager.obj
 0001:0004b620       ?SetDstPosition@SNetworkActorData@@QAEXKJJK@Z 0044c620 f   NetworkActorManager.obj
 0001:0004b660       ?SetPosition@SNetworkActorData@@QAEXJJ@Z 0044c660 f   NetworkActorManager.obj
 0001:0004b680       ??0SNetworkActorData@@QAE@ABU0@@Z 0044c680 f   NetworkActorManager.obj
 0001:0004b6f0       ??4SNetworkActorData@@QAEXABU0@@Z 0044c6f0 f   NetworkActorManager.obj
 0001:0004b700       ?__copy__@SNetworkActorData@@QAEXABU1@@Z 0044c700 f   NetworkActorManager.obj
 0001:0004b7e0       ??0SNetworkActorData@@QAE@XZ 0044c7e0 f   NetworkActorManager.obj
 0001:0004b8d0       ??0CNetworkActorManager@@QAE@XZ 0044c8d0 f   NetworkActorManager.obj
 0001:0004b980       ??_GCNetworkActorManager@@UAEPAXI@Z 0044c980 f i NetworkActorManager.obj
 0001:0004b980       ??_ECNetworkActorManager@@UAEPAXI@Z 0044c980 f i * CIL library *:* CIL module *
 0001:0004b9b0       ??1CNetworkActorManager@@UAE@XZ 0044c9b0 f   NetworkActorManager.obj
 0001:0004b9f0       ?Destroy@CNetworkActorManager@@QAEXXZ 0044c9f0 f   NetworkActorManager.obj
 0001:0004ba30       ?SetMainActorVID@CNetworkActorManager@@QAEXK@Z 0044ca30 f   NetworkActorManager.obj
 0001:0004ba70       ?Update@CNetworkActorManager@@QAEXXZ 0044ca70 f   NetworkActorManager.obj
 0001:0004ba80       ?__OLD_Update@CNetworkActorManager@@IAEXXZ 0044ca80 f   NetworkActorManager.obj
 0001:0004baf0       ?__FindActor@CNetworkActorManager@@IAEPAVCInstanceBase@@AAUSNetworkActorData@@JJ@Z 0044caf0 f   NetworkActorManager.obj
 0001:0004bb40       ?__FindActor@CNetworkActorManager@@IAEPAVCInstanceBase@@AAUSNetworkActorData@@@Z 0044cb40 f   NetworkActorManager.obj
 0001:0004bb90       ?__RemoveAllGroundItems@CNetworkActorManager@@IAEXXZ 0044cb90 f   NetworkActorManager.obj
 0001:0004bba0       ?__RemoveDynamicActors@CNetworkActorManager@@IAEXXZ 0044cba0 f   NetworkActorManager.obj
 0001:0004bd40       ?__UpdateMainActor@CNetworkActorManager@@IAEXXZ 0044cd40 f   NetworkActorManager.obj
 0001:0004bd80       ?__IsVisibleActor@CNetworkActorManager@@IAE_NABUSNetworkActorData@@@Z 0044cd80 f   NetworkActorManager.obj
 0001:0004bde0       ?__IsVisiblePos@CNetworkActorManager@@IAE_NJJ@Z 0044cde0 f   NetworkActorManager.obj
 0001:0004be40       ?__IsMainActorVID@CNetworkActorManager@@IAE_NK@Z 0044ce40 f   NetworkActorManager.obj
 0001:0004be50       ?__GetCharacterManager@CNetworkActorManager@@IAEAAVCPythonCharacterManager@@XZ 0044ce50 f   NetworkActorManager.obj
 0001:0004be60       ?__RemoveCharacterManagerActor@CNetworkActorManager@@IAEXAAUSNetworkActorData@@@Z 0044ce60 f   NetworkActorManager.obj
 0001:0004bea0       ?__AppendCharacterManagerActor@CNetworkActorManager@@IAEPAVCInstanceBase@@AAUSNetworkActorData@@@Z 0044cea0 f   NetworkActorManager.obj
 0001:0004c130       ??1SCreateData@CInstanceBase@@QAE@XZ 0044d130 f i NetworkActorManager.obj
 0001:0004c160       ?AppendActor@CNetworkActorManager@@QAEXABUSNetworkActorData@@@Z 0044d160 f   NetworkActorManager.obj
 0001:0004c2d0       ?RemoveActor@CNetworkActorManager@@QAEXK@Z 0044d2d0 f   NetworkActorManager.obj
 0001:0004c360       ?UpdateActor@CNetworkActorManager@@QAEXABUSNetworkUpdateActorData@@@Z 0044d360 f   NetworkActorManager.obj
 0001:0004c470       ?MoveActor@CNetworkActorManager@@QAEXABUSNetworkMoveActorData@@@Z 0044d470 f   NetworkActorManager.obj
 0001:0004c520       ?SyncActor@CNetworkActorManager@@QAEXKJJ@Z 0044d520 f   NetworkActorManager.obj
 0001:0004c590       ?SetActorOwner@CNetworkActorManager@@QAEXKK@Z 0044d590 f   NetworkActorManager.obj
 0001:0004c5f0       ?erase@?$_Tree@V?$_Tmap_traits@KUSNetworkActorData@@U?$less@K@std@@V?$allocator@U?$pair@$$CBKUSNetworkActorData@@@std@@@3@$0A@@std@@@std@@QAEIABK@Z 0044d5f0 f i NetworkActorManager.obj
 0001:0004c750       ??4?$basic_string@DU?$char_traits@D@std@@V?$allocator@D@2@@std@@QAEAAV01@ABV01@@Z 0044d750 f i NetworkActorManager.obj
 0001:0004c780       ??$_Erase_tree@V?$allocator@U?$_Tree_node@U?$pair@$$CBKUSNetworkActorData@@@std@@PAX@std@@@std@@@?$_Tree_val@U?$_Tree_simple_types@U?$pair@$$CBKUSNetworkActorData@@@std@@@std@@@std@@QAEXAAV?$allocator@U?$_Tree_node@U?$pair@$$CBKUSNetworkActorData@@@std@@PAX@std@@@1@PAU?$_Tree_node@U?$pair@$$CBKUSNetworkActorData@@@std@@PAX@1@@Z 0044d780 f i NetworkActorManager.obj
 0001:0004c7f0       ??$_Emplace_reallocate@ABQAVCItemData@@@?$vector@PAVCItemData@@V?$allocator@PAVCItemData@@@std@@@std@@QAEPAPAVCItemData@@QAPAV2@ABQAV2@@Z 0044d7f0 f i GameLib:ItemManager.obj
 0001:0004c7f0       ??$_Emplace_reallocate@ABQAVCGraphicExpandedImageInstance@@@?$vector@PAVCGraphicExpandedImageInstance@@V?$allocator@PAVCGraphicExpandedImageInstance@@@std@@@std@@QAEPAPAVCGraphicExpandedImageInstance@@QAPAV2@ABQAV2@@Z 0044d7f0 f i EterLib:GrpExpandedImageInstance.obj
 0001:0004c7f0       ??$_Emplace_reallocate@ABQAVCTerrain@@@?$vector@PAVCTerrain@@V?$allocator@PAVCTerrain@@@std@@@std@@QAEPAPAVCTerrain@@QAPAV2@ABQAV2@@Z 0044d7f0 f i GameLib:MapOutdoorLoad.obj
 0001:0004c7f0       ??$_Emplace_reallocate@ABQAVCOBBCollisionInstance@@@?$vector@PAVCOBBCollisionInstance@@V?$allocator@PAVCOBBCollisionInstance@@@std@@@std@@QAEPAPAVCOBBCollisionInstance@@QAPAV2@ABQAV2@@Z 0044d7f0 f i EterLib:CollisionData.obj
 0001:0004c7f0       ??$_Emplace_reallocate@ABQAVCWeaponTrace@@@?$vector@PAVCWeaponTrace@@V?$allocator@PAVCWeaponTrace@@@std@@@std@@QAEPAPAVCWeaponTrace@@QAPAV2@ABQAV2@@Z 0044d7f0 f i GameLib:ActorInstanceAttach.obj
 0001:0004c7f0       ??$_Emplace_reallocate@PAVCBaseCollisionInstance@@@?$vector@PAVCBaseCollisionInstance@@V?$allocator@PAVCBaseCollisionInstance@@@std@@@std@@QAEPAPAVCBaseCollisionInstance@@QAPAV2@$$QAPAV2@@Z 0044d7f0 f i EterLib:GrpObjectInstance.obj
 0001:0004c7f0       ??$_Emplace_reallocate@ABQAVCEffectInstance@@@?$vector@PAVCEffectInstance@@V?$allocator@PAVCEffectInstance@@@std@@@std@@QAEPAPAVCEffectInstance@@QAPAV2@ABQAV2@@Z 0044d7f0 f i EffectLib:EffectManager.obj
 0001:0004c7f0       ??$_Emplace_reallocate@ABQAVCParticleInstance@@@?$vector@PAVCParticleInstance@@V?$allocator@PAVCParticleInstance@@@std@@@std@@QAEPAPAVCParticleInstance@@QAPAV2@ABQAV2@@Z 0044d7f0 f i EffectLib:ParticleInstance.obj
 0001:0004c7f0       ??$_Emplace_reallocate@ABQAVCFlyTrace@@@?$vector@PAVCFlyTrace@@V?$allocator@PAVCFlyTrace@@@std@@@std@@QAEPAPAVCFlyTrace@@QAPAV2@ABQAV2@@Z 0044d7f0 f i GameLib:FlyTrace.obj
 0001:0004c7f0       ??$_Emplace_reallocate@ABQAVCGraphicMarkInstance@@@?$vector@PAVCGraphicMarkInstance@@V?$allocator@PAVCGraphicMarkInstance@@@std@@@std@@QAEPAPAVCGraphicMarkInstance@@QAPAV2@ABQAV2@@Z 0044d7f0 f i EterLib:GrpMarkInstance.obj
 0001:0004c7f0       ??$_Emplace_reallocate@ABQAUSCollisionData@NRaceData@@@?$vector@PAUSCollisionData@NRaceData@@V?$allocator@PAUSCollisionData@NRaceData@@@std@@@std@@QAEPAPAUSCollisionData@NRaceData@@QAPAU23@ABQAU23@@Z 0044d7f0 f i GameLib:GameType.obj
 0001:0004c7f0       ??$_Emplace_reallocate@ABQAVCBlockTexture@@@?$vector@PAVCBlockTexture@@V?$allocator@PAVCBlockTexture@@@std@@@std@@QAEPAPAVCBlockTexture@@QAPAV2@ABQAV2@@Z 0044d7f0 f i EterLib:DibBar.obj
 0001:0004c7f0       ??$_Emplace_reallocate@ABQAUSObjectInstance@CArea@@@?$vector@PAUSObjectInstance@CArea@@V?$allocator@PAUSObjectInstance@CArea@@@std@@@std@@QAEPAPAUSObjectInstance@CArea@@QAPAU23@ABQAU23@@Z 0044d7f0 f i GameLib:Area.obj
 0001:0004c7f0       ??$_Emplace_reallocate@ABQAVCEffectMeshScript@@@?$vector@PAVCEffectMeshScript@@V?$allocator@PAVCEffectMeshScript@@@std@@@std@@QAEPAPAVCEffectMeshScript@@QAPAV2@ABQAV2@@Z 0044d7f0 f i EffectLib:EffectData.obj
 0001:0004c7f0       ??$_Emplace_reallocate@H@?$vector@HV?$allocator@H@std@@@std@@QAEPAHQAH$$QAH@Z 0044d7f0 f i EterBase:Poly.obj
 0001:0004c7f0       ??$_Emplace_reallocate@ABQAUSMotionModeData@CRaceData@@@?$vector@PAUSMotionModeData@CRaceData@@V?$allocator@PAUSMotionModeData@CRaceData@@@std@@@std@@QAEPAPAUSMotionModeData@CRaceData@@QAPAU23@ABQAU23@@Z 0044d7f0 f i GameLib:RaceData.obj
 0001:0004c7f0       ??$_Emplace_reallocate@ABQAVCNullDecorator@NEffectUpdateDecorator@@@?$vector@PAVCNullDecorator@NEffectUpdateDecorator@@V?$allocator@PAVCNullDecorator@NEffectUpdateDecorator@@@std@@@std@@QAEPAPAVCNullDecorator@NEffectUpdateDecorator@@QAPAV23@ABQAV23@@Z 0044d7f0 f i EffectLib:ParticleSystemData.obj
 0001:0004c7f0       ??$_Emplace_reallocate@ABQAVCSpeedTreeWrapper@@@?$vector@PAVCSpeedTreeWrapper@@V?$allocator@PAVCSpeedTreeWrapper@@@std@@@std@@QAEPAPAVCSpeedTreeWrapper@@QAPAV2@ABQAV2@@Z 0044d7f0 f i GameLib:Area.obj
 0001:0004c7f0       ??$_Emplace_reallocate@ABQAUSAttachingEffectData@NRaceData@@@?$vector@PAUSAttachingEffectData@NRaceData@@V?$allocator@PAUSAttachingEffectData@NRaceData@@@std@@@std@@QAEPAPAUSAttachingEffectData@NRaceData@@QAPAU23@ABQAU23@@Z 0044d7f0 f i GameLib:GameType.obj
 0001:0004c7f0       ??$_Emplace_reallocate@ABQAVCCylinderCollisionInstance@@@?$vector@PAVCCylinderCollisionInstance@@V?$allocator@PAVCCylinderCollisionInstance@@@std@@@std@@QAEPAPAVCCylinderCollisionInstance@@QAPAV2@ABQAV2@@Z 0044d7f0 f i EterLib:CollisionData.obj
 0001:0004c7f0       ??$_Emplace_reallocate@ABK@?$vector@KV?$allocator@K@std@@@std@@QAEPAKQAKABK@Z 0044d7f0 f i PythonNetworkStreamModule.obj
 0001:0004c7f0       ??$_Emplace_reallocate@ABQAVCRaceMotionData@@@?$vector@PAVCRaceMotionData@@V?$allocator@PAVCRaceMotionData@@@std@@@std@@QAEPAPAVCRaceMotionData@@QAPAV2@ABQAV2@@Z 0044d7f0 f i GameLib:RaceMotionData.obj
 0001:0004c7f0       ??$_Emplace_reallocate@ABQAVCLight@@@?$vector@PAVCLight@@V?$allocator@PAVCLight@@@std@@@std@@QAEPAPAVCLight@@QAPAV2@ABQAV2@@Z 0044d7f0 f i EterLib:GrpLightManager.obj
 0001:0004c7f0       ??$_Emplace_reallocate@ABQAVCGraphicImageInstance@@@?$vector@PAVCGraphicImageInstance@@V?$allocator@PAVCGraphicImageInstance@@@std@@@std@@QAEPAPAVCGraphicImageInstance@@QAPAV2@ABQAV2@@Z 0044d7f0 f i EffectLib:EffectMeshInstance.obj
 0001:0004c7f0       ??$_Emplace_reallocate@ABQAVCSnowParticle@@@?$vector@PAVCSnowParticle@@V?$allocator@PAVCSnowParticle@@@std@@@std@@QAEPAPAVCSnowParticle@@QAPAV2@ABQAV2@@Z 0044d7f0 f i GameLib:SnowEnvironment.obj
 0001:0004c7f0       ??$_Emplace_reallocate@ABQAVCFlyingData@@@?$vector@PAVCFlyingData@@V?$allocator@PAVCFlyingData@@@std@@@std@@QAEPAPAVCFlyingData@@QAPAV2@ABQAV2@@Z 0044d7f0 f i GameLib:FlyingObjectManager.obj
 0001:0004c7f0       ??$_Emplace_reallocate@ABQAUSGroupNode@CTextFileLoader@@@?$vector@PAUSGroupNode@CTextFileLoader@@V?$allocator@PAUSGroupNode@CTextFileLoader@@@std@@@std@@QAEPAPAUSGroupNode@CTextFileLoader@@QAPAU23@ABQAU23@@Z 0044d7f0 f i EterLib:TextFileLoader.obj
 0001:0004c7f0       ??$_Emplace_reallocate@ABQAVCParticleSystemInstance@@@?$vector@PAVCParticleSystemInstance@@V?$allocator@PAVCParticleSystemInstance@@@std@@@std@@QAEPAPAVCParticleSystemInstance@@QAPAV2@ABQAV2@@Z 0044d7f0 f i EffectLib:EffectInstance.obj
 0001:0004c7f0       ??$_Emplace_reallocate@ABQAVCGraphicImage@@@?$vector@PAVCGraphicImage@@V?$allocator@PAVCGraphicImage@@@std@@@std@@QAEPAPAVCGraphicImage@@QAPAV2@ABQAV2@@Z 0044d7f0 f i EffectLib:EffectMesh.obj
 0001:0004c7f0       ??$_Emplace_reallocate@ABQAVCAirResistanceDecorator@NEffectUpdateDecorator@@@?$vector@PAVCAirResistanceDecorator@NEffectUpdateDecorator@@V?$allocator@PAVCAirResistanceDecorator@NEffectUpdateDecorator@@@std@@@std@@QAEPAPAVCAirResistanceDecorator@NEffectUpdateDecorator@@QAPAV23@ABQAV23@@Z 0044d7f0 f i EffectLib:ParticleSystemData.obj
 0001:0004c7f0       ??$_Emplace_reallocate@ABQAV?$CTimeEventDecorator@M@NEffectUpdateDecorator@@@?$vector@PAV?$CTimeEventDecorator@M@NEffectUpdateDecorator@@V?$allocator@PAV?$CTimeEventDecorator@M@NEffectUpdateDecorator@@@std@@@std@@QAEPAPAV?$CTimeEventDecorator@M@NEffectUpdateDecorator@@QAPAV23@ABQAV23@@Z 0044d7f0 f i EffectLib:ParticleSystemData.obj
 0001:0004c7f0       ??$_Emplace_reallocate@ABQAVCTextureAnimationRandomDecorator@NEffectUpdateDecorator@@@?$vector@PAVCTextureAnimationRandomDecorator@NEffectUpdateDecorator@@V?$allocator@PAVCTextureAnimationRandomDecorator@NEffectUpdateDecorator@@@std@@@std@@QAEPAPAVCTextureAnimationRandomDecorator@NEffectUpdateDecorator@@QAPAV23@ABQAV23@@Z 0044d7f0 f i EffectLib:ParticleSystemData.obj
 0001:0004c7f0       ??$_Emplace_reallocate@ABQAVCPlaneCollisionInstance@@@?$vector@PAVCPlaneCollisionInstance@@V?$allocator@PAVCPlaneCollisionInstance@@@std@@@std@@QAEPAPAVCPlaneCollisionInstance@@QAPAV2@ABQAV2@@Z 0044d7f0 f i EterLib:CollisionData.obj
 0001:0004c7f0       ??$_Emplace_reallocate@ABQAVCGraphicImageTexture@@@?$vector@PAVCGraphicImageTexture@@V?$allocator@PAVCGraphicImageTexture@@@std@@@std@@QAEPAPAVCGraphicImageTexture@@QAPAV2@ABQAV2@@Z 0044d7f0 f i EterLib:GrpFontTexture.obj
 0001:0004c7f0       ??$_Emplace_reallocate@ABQAVCAABBCollisionInstance@@@?$vector@PAVCAABBCollisionInstance@@V?$allocator@PAVCAABBCollisionInstance@@@std@@@std@@QAEPAPAVCAABBCollisionInstance@@QAPAV2@ABQAV2@@Z 0044d7f0 f i EterLib:CollisionData.obj
 0001:0004c7f0       ??$_Emplace_reallocate@ABQAVCMonsterAreaInfo@@@?$vector@PAVCMonsterAreaInfo@@V?$allocator@PAVCMonsterAreaInfo@@@std@@@std@@QAEPAPAVCMonsterAreaInfo@@QAPAV2@ABQAV2@@Z 0044d7f0 f i GameLib:MapOutdoor.obj
 0001:0004c7f0       ??$_Emplace_reallocate@ABQAVCGraphicTextInstance@@@?$vector@PAVCGraphicTextInstance@@V?$allocator@PAVCGraphicTextInstance@@@std@@@std@@QAEPAPAVCGraphicTextInstance@@QAPAV2@ABQAV2@@Z 0044d7f0 f i PythonEventManager.obj
 0001:0004c7f0       ??$_Emplace_reallocate@ABQAUSCharacterInfomation@CGraphicFontTexture@@@?$vector@PAUSCharacterInfomation@CGraphicFontTexture@@V?$allocator@PAUSCharacterInfomation@CGraphicFontTexture@@@std@@@std@@QAEPAPAUSCharacterInfomation@CGraphicFontTexture@@QAPAU23@ABQAU23@@Z 0044d7f0 f i EterLib:GrpTextInstance.obj
 0001:0004c7f0       ??$_Emplace_reallocate@ABQAVCEffectData@@@?$vector@PAVCEffectData@@V?$allocator@PAVCEffectData@@@std@@@std@@QAEPAPAVCEffectData@@QAPAV2@ABQAV2@@Z 0044d7f0 f i EffectLib:EffectData.obj
 0001:0004c7f0       ??$_Emplace_reallocate@ABQAVCTextureAnimationCWDecorator@NEffectUpdateDecorator@@@?$vector@PAVCTextureAnimationCWDecorator@NEffectUpdateDecorator@@V?$allocator@PAVCTextureAnimationCWDecorator@NEffectUpdateDecorator@@@std@@@std@@QAEPAPAVCTextureAnimationCWDecorator@NEffectUpdateDecorator@@QAPAV23@ABQAV23@@Z 0044d7f0 f i EffectLib:ParticleSystemData.obj
 0001:0004c7f0       ??$_Emplace_reallocate@ABQAVCHeaderDecorator@NEffectUpdateDecorator@@@?$vector@PAVCHeaderDecorator@NEffectUpdateDecorator@@V?$allocator@PAVCHeaderDecorator@NEffectUpdateDecorator@@@std@@@std@@QAEPAPAVCHeaderDecorator@NEffectUpdateDecorator@@QAPAV23@ABQAV23@@Z 0044d7f0 f i EffectLib:ParticleSystemData.obj
 0001:0004c7f0       ??$_Emplace_reallocate@ABQAVCDungeonModelInstance@@@?$vector@PAVCDungeonModelInstance@@V?$allocator@PAVCDungeonModelInstance@@@std@@@std@@QAEPAPAVCDungeonModelInstance@@QAPAV2@ABQAV2@@Z 0044d7f0 f i GameLib:DungeonBlock.obj
 0001:0004c7f0       ??$_Emplace_reallocate@K@?$vector@KV?$allocator@K@std@@@std@@QAEPAKQAK$$QAK@Z 0044d7f0 f i NetworkActorManager.obj
 0001:0004c7f0       ??$_Emplace_reallocate@ABQAVCAttributeInstance@@@?$vector@PAVCAttributeInstance@@V?$allocator@PAVCAttributeInstance@@@std@@@std@@QAEPAPAVCAttributeInstance@@QAPAV2@ABQAV2@@Z 0044d7f0 f i EterLib:AttributeInstance.obj
 0001:0004c7f0       ??$_Emplace_reallocate@ABQAVCEffectMeshInstance@@@?$vector@PAVCEffectMeshInstance@@V?$allocator@PAVCEffectMeshInstance@@@std@@@std@@QAEPAPAVCEffectMeshInstance@@QAPAV2@ABQAV2@@Z 0044d7f0 f i EffectLib:EffectInstance.obj
 0001:0004c7f0       ??$_Emplace_reallocate@ABQAVCArea@@@?$vector@PAVCArea@@V?$allocator@PAVCArea@@@std@@@std@@QAEPAPAVCArea@@QAPAV2@ABQAV2@@Z 0044d7f0 f i GameLib:Area.obj
 0001:0004c7f0       ??$_Emplace_reallocate@PAVCSymTable@@@?$vector@PAVCSymTable@@V?$allocator@PAVCSymTable@@@std@@@std@@QAEPAPAVCSymTable@@QAPAV2@$$QAPAV2@@Z 0044d7f0 f i EterBase:Poly.obj
 0001:0004c7f0       ??$_Emplace_reallocate@ABQAUSAttachingObjectData@NRaceData@@@?$vector@PAUSAttachingObjectData@NRaceData@@V?$allocator@PAUSAttachingObjectData@NRaceData@@@std@@@std@@QAEPAPAUSAttachingObjectData@NRaceData@@QAPAU23@ABQAU23@@Z 0044d7f0 f i GameLib:GameType.obj
 0001:0004c7f0       ??$_Emplace_reallocate@ABQAUSAmbienceInstance@CArea@@@?$vector@PAUSAmbienceInstance@CArea@@V?$allocator@PAUSAmbienceInstance@CArea@@@std@@@std@@QAEPAPAUSAmbienceInstance@CArea@@QAPAU23@ABQAU23@@Z 0044d7f0 f i GameLib:Area.obj
 0001:0004c7f0       ??$_Emplace_reallocate@ABQAVCRaceData@@@?$vector@PAVCRaceData@@V?$allocator@PAVCRaceData@@@std@@@std@@QAEPAPAVCRaceData@@QAPAV2@ABQAV2@@Z 0044d7f0 f i GameLib:RaceData.obj
 0001:0004c7f0       ??$_Emplace_reallocate@ABQAVCLightInstance@@@?$vector@PAVCLightInstance@@V?$allocator@PAVCLightInstance@@@std@@@std@@QAEPAPAVCLightInstance@@QAPAV2@ABQAV2@@Z 0044d7f0 f i EffectLib:EffectInstance.obj
 0001:0004c7f0       ??$_Emplace_reallocate@ABQAVCDungeonBlock@@@?$vector@PAVCDungeonBlock@@V?$allocator@PAVCDungeonBlock@@@std@@@std@@QAEPAPAVCDungeonBlock@@QAPAV2@ABQAV2@@Z 0044d7f0 f i GameLib:Area.obj
 0001:0004c7f0       ??$_Emplace_reallocate@PAVCGraphicObjectInstance@@@?$vector@PAVCGraphicObjectInstance@@V?$allocator@PAVCGraphicObjectInstance@@@std@@@std@@QAEPAPAVCGraphicObjectInstance@@QAPAV2@$$QAPAV2@@Z 0044d7f0 f i EterLib:CullingManager.obj
 0001:0004c7f0       ??$_Emplace_reallocate@ABQAUSEffectMeshData@CEffectMesh@@@?$vector@PAUSEffectMeshData@CEffectMesh@@V?$allocator@PAUSEffectMeshData@CEffectMesh@@@std@@@std@@QAEPAPAUSEffectMeshData@CEffectMesh@@QAPAU23@ABQAU23@@Z 0044d7f0 f i EffectLib:EffectMesh.obj
 0001:0004c7f0       ??$_Emplace_reallocate@ABQAVCRotationDecorator@NEffectUpdateDecorator@@@?$vector@PAVCRotationDecorator@NEffectUpdateDecorator@@V?$allocator@PAVCRotationDecorator@NEffectUpdateDecorator@@@std@@@std@@QAEPAPAVCRotationDecorator@NEffectUpdateDecorator@@QAPAV23@ABQAV23@@Z 0044d7f0 f i EffectLib:ParticleSystemData.obj
 0001:0004c7f0       ??$_Emplace_reallocate@ABQAUSFlarePiece@CFlare@@@?$vector@PAUSFlarePiece@CFlare@@V?$allocator@PAUSFlarePiece@CFlare@@@std@@@std@@QAEPAPAUSFlarePiece@CFlare@@QAPAU23@ABQAU23@@Z 0044d7f0 f i EterLib:LensFlare.obj
 0001:0004c7f0       ??$_Emplace_reallocate@ABQAVCTextureAnimationCCWDecorator@NEffectUpdateDecorator@@@?$vector@PAVCTextureAnimationCCWDecorator@NEffectUpdateDecorator@@V?$allocator@PAVCTextureAnimationCCWDecorator@NEffectUpdateDecorator@@@std@@@std@@QAEPAPAVCTextureAnimationCCWDecorator@NEffectUpdateDecorator@@QAPAV23@ABQAV23@@Z 0044d7f0 f i EffectLib:ParticleSystemData.obj
 0001:0004c7f0       ??$_Emplace_reallocate@ABH@?$vector@HV?$allocator@H@std@@@std@@QAEPAHQAHABH@Z 0044d7f0 f i EterBase:Stl.obj
 0001:0004c7f0       ??$_Emplace_reallocate@ABQAV?$CTimeEventDecorator@UDWORDCOLOR@@@NEffectUpdateDecorator@@@?$vector@PAV?$CTimeEventDecorator@UDWORDCOLOR@@@NEffectUpdateDecorator@@V?$allocator@PAV?$CTimeEventDecorator@UDWORDCOLOR@@@NEffectUpdateDecorator@@@std@@@std@@QAEPAPAV?$CTimeEventDecorator@UDWORDCOLOR@@@NEffectUpdateDecorator@@QAPAV23@ABQAV23@@Z 0044d7f0 f i EffectLib:ParticleSystemData.obj
 0001:0004c7f0       ??$_Emplace_reallocate@ABQAVCParticleSystemData@@@?$vector@PAVCParticleSystemData@@V?$allocator@PAVCParticleSystemData@@@std@@@std@@QAEPAPAVCParticleSystemData@@QAPAV2@ABQAV2@@Z 0044d7f0 f i EffectLib:ParticleSystemData.obj
 0001:0004c7f0       ??$_Emplace_reallocate@ABQAVCGravityDecorator@NEffectUpdateDecorator@@@?$vector@PAVCGravityDecorator@NEffectUpdateDecorator@@V?$allocator@PAVCGravityDecorator@NEffectUpdateDecorator@@@std@@@std@@QAEPAPAVCGravityDecorator@NEffectUpdateDecorator@@QAPAV23@ABQAV23@@Z 0044d7f0 f i EffectLib:ParticleSystemData.obj
 0001:0004c7f0       ??$_Emplace_reallocate@ABQAE@?$vector@PAEV?$allocator@PAE@std@@@std@@QAEPAPAEQAPAEABQAE@Z 0044d7f0 f i EterBase:lzo.obj
 0001:0004c7f0       ??$_Emplace_reallocate@ABQAVCGraphicObjectInstance@@@?$vector@PAVCGraphicObjectInstance@@V?$allocator@PAVCGraphicObjectInstance@@@std@@@std@@QAEPAPAVCGraphicObjectInstance@@QAPAV2@ABQAV2@@Z 0044d7f0 f i GameLib:MapOutdoorUpdate.obj
 0001:0004c7f0       ??$_Emplace_reallocate@ABQAVCSphereCollisionInstance@@@?$vector@PAVCSphereCollisionInstance@@V?$allocator@PAVCSphereCollisionInstance@@@std@@@std@@QAEPAPAVCSphereCollisionInstance@@QAPAV2@ABQAV2@@Z 0044d7f0 f i EterLib:CollisionData.obj
 0001:0004c7f0       ??$_Emplace_reallocate@ABQAVCFlyingInstance@@@?$vector@PAVCFlyingInstance@@V?$allocator@PAVCFlyingInstance@@@std@@@std@@QAEPAPAVCFlyingInstance@@QAPAV2@ABQAV2@@Z 0044d7f0 f i GameLib:FlyingObjectManager.obj
 0001:0004c7f0       ??$_Emplace_reallocate@ABQAVCLightData@@@?$vector@PAVCLightData@@V?$allocator@PAVCLightData@@@std@@@std@@QAEPAPAVCLightData@@QAPAV2@ABQAV2@@Z 0044d7f0 f i EffectLib:EffectData.obj
 0001:0004c8f0       ??1?$_Alloc_construct_ptr@V?$allocator@U?$_Tree_node@U?$pair@$$CBKUSNetworkActorData@@@std@@PAX@std@@@std@@@std@@QAE@XZ 0044d8f0 f i NetworkActorManager.obj
 0001:0004c8f0       ??1?$_Tree_temp_node_alloc@V?$allocator@U?$_Tree_node@U?$pair@$$CBKUSNetworkActorData@@@std@@PAX@std@@@std@@@std@@QAE@XZ 0044d8f0 f i NetworkActorManager.obj
 0001:0004c910       ??$_Uninitialized_move@PAPAVCWeaponTrace@@V?$allocator@PAVCWeaponTrace@@@std@@@std@@YAPAPAVCWeaponTrace@@QAPAV1@0PAPAV1@AAV?$allocator@PAVCWeaponTrace@@@0@@Z 0044d910 f i GameLib:ActorInstanceAttach.obj
 0001:0004c910       ??$_Uninitialized_move@PAPAVCLightInstance@@V?$allocator@PAVCLightInstance@@@std@@@std@@YAPAPAVCLightInstance@@QAPAV1@0PAPAV1@AAV?$allocator@PAVCLightInstance@@@0@@Z 0044d910 f i EffectLib:EffectInstance.obj
 0001:0004c910       ??$_Uninitialized_move@PAPAVCSymTable@@V?$allocator@PAVCSymTable@@@std@@@std@@YAPAPAVCSymTable@@QAPAV1@0PAPAV1@AAV?$allocator@PAVCSymTable@@@0@@Z 0044d910 f i EterBase:Poly.obj
 0001:0004c910       ??$_Uninitialized_move@PAPAV?$CTimeEventDecorator@M@NEffectUpdateDecorator@@V?$allocator@PAV?$CTimeEventDecorator@M@NEffectUpdateDecorator@@@std@@@std@@YAPAPAV?$CTimeEventDecorator@M@NEffectUpdateDecorator@@QAPAV12@0PAPAV12@AAV?$allocator@PAV?$CTimeEventDecorator@M@NEffectUpdateDecorator@@@0@@Z 0044d910 f i EffectLib:ParticleSystemData.obj
 0001:0004c910       ??$_Uninitialized_move@PAPAVCTextureAnimationCWDecorator@NEffectUpdateDecorator@@V?$allocator@PAVCTextureAnimationCWDecorator@NEffectUpdateDecorator@@@std@@@std@@YAPAPAVCTextureAnimationCWDecorator@NEffectUpdateDecorator@@QAPAV12@0PAPAV12@AAV?$allocator@PAVCTextureAnimationCWDecorator@NEffectUpdateDecorator@@@0@@Z 0044d910 f i EffectLib:ParticleSystemData.obj
 0001:0004c910       ??$_Uninitialized_move@PAPAVCGraphicMarkInstance@@V?$allocator@PAVCGraphicMarkInstance@@@std@@@std@@YAPAPAVCGraphicMarkInstance@@QAPAV1@0PAPAV1@AAV?$allocator@PAVCGraphicMarkInstance@@@0@@Z 0044d910 f i EterLib:GrpMarkInstance.obj
 0001:0004c910       ??$_Uninitialized_move@PAPAVCTextureAnimationRandomDecorator@NEffectUpdateDecorator@@V?$allocator@PAVCTextureAnimationRandomDecorator@NEffectUpdateDecorator@@@std@@@std@@YAPAPAVCTextureAnimationRandomDecorator@NEffectUpdateDecorator@@QAPAV12@0PAPAV12@AAV?$allocator@PAVCTextureAnimationRandomDecorator@NEffectUpdateDecorator@@@0@@Z 0044d910 f i EffectLib:ParticleSystemData.obj
 0001:0004c910       ??$_Uninitialized_move@PAPAVCRotationDecorator@NEffectUpdateDecorator@@V?$allocator@PAVCRotationDecorator@NEffectUpdateDecorator@@@std@@@std@@YAPAPAVCRotationDecorator@NEffectUpdateDecorator@@QAPAV12@0PAPAV12@AAV?$allocator@PAVCRotationDecorator@NEffectUpdateDecorator@@@0@@Z 0044d910 f i EffectLib:ParticleSystemData.obj
 0001:0004c910       ??$_Uninitialized_move@PAPAVCCylinderCollisionInstance@@V?$allocator@PAVCCylinderCollisionInstance@@@std@@@std@@YAPAPAVCCylinderCollisionInstance@@QAPAV1@0PAPAV1@AAV?$allocator@PAVCCylinderCollisionInstance@@@0@@Z 0044d910 f i EterLib:CollisionData.obj
 0001:0004c910       ??$_Uninitialized_move@PAPAVCMonsterAreaInfo@@V?$allocator@PAVCMonsterAreaInfo@@@std@@@std@@YAPAPAVCMonsterAreaInfo@@QAPAV1@0PAPAV1@AAV?$allocator@PAVCMonsterAreaInfo@@@0@@Z 0044d910 f i GameLib:MapOutdoor.obj
 0001:0004c910       ??$_Uninitialized_move@PAPAVCPlaneCollisionInstance@@V?$allocator@PAVCPlaneCollisionInstance@@@std@@@std@@YAPAPAVCPlaneCollisionInstance@@QAPAV1@0PAPAV1@AAV?$allocator@PAVCPlaneCollisionInstance@@@0@@Z 0044d910 f i EterLib:CollisionData.obj
 0001:0004c910       ??$_Uninitialized_move@PAPAVCAirResistanceDecorator@NEffectUpdateDecorator@@V?$allocator@PAVCAirResistanceDecorator@NEffectUpdateDecorator@@@std@@@std@@YAPAPAVCAirResistanceDecorator@NEffectUpdateDecorator@@QAPAV12@0PAPAV12@AAV?$allocator@PAVCAirResistanceDecorator@NEffectUpdateDecorator@@@0@@Z 0044d910 f i EffectLib:ParticleSystemData.obj
 0001:0004c910       ??$_Uninitialized_move@PAPAVCAABBCollisionInstance@@V?$allocator@PAVCAABBCollisionInstance@@@std@@@std@@YAPAPAVCAABBCollisionInstance@@QAPAV1@0PAPAV1@AAV?$allocator@PAVCAABBCollisionInstance@@@0@@Z 0044d910 f i EterLib:CollisionData.obj
 0001:0004c910       ??$_Uninitialized_move@PAHV?$allocator@H@std@@@std@@YAPAHQAH0PAHAAV?$allocator@H@0@@Z 0044d910 f i PythonChat.obj
 0001:0004c910       ??$_Uninitialized_move@PAPAVCGraphicThing@@V?$allocator@PAVCGraphicThing@@@std@@@std@@YAPAPAVCGraphicThing@@QAPAV1@0PAPAV1@AAV?$allocator@PAVCGraphicThing@@@0@@Z 0044d910 f i GameLib:ItemData.obj
 0001:0004c910       ??$_Uninitialized_move@PAPAUSAmbienceInstance@CArea@@V?$allocator@PAUSAmbienceInstance@CArea@@@std@@@std@@YAPAPAUSAmbienceInstance@CArea@@QAPAU12@0PAPAU12@AAV?$allocator@PAUSAmbienceInstance@CArea@@@0@@Z 0044d910 f i GameLib:Area.obj
 0001:0004c910       ??$_Uninitialized_move@PAPAVCFlyTrace@@V?$allocator@PAVCFlyTrace@@@std@@@std@@YAPAPAVCFlyTrace@@QAPAV1@0PAPAV1@AAV?$allocator@PAVCFlyTrace@@@0@@Z 0044d910 f i GameLib:FlyTrace.obj
 0001:0004c910       ??$_Uninitialized_move@PAPAVCParticleInstance@@V?$allocator@PAVCParticleInstance@@@std@@@std@@YAPAPAVCParticleInstance@@QAPAV1@0PAPAV1@AAV?$allocator@PAVCParticleInstance@@@0@@Z 0044d910 f i EffectLib:ParticleInstance.obj
 0001:0004c910       ??$_Uninitialized_move@PAPAVCRaceMotionData@@V?$allocator@PAVCRaceMotionData@@@std@@@std@@YAPAPAVCRaceMotionData@@QAPAV1@0PAPAV1@AAV?$allocator@PAVCRaceMotionData@@@0@@Z 0044d910 f i GameLib:RaceMotionData.obj
 0001:0004c910       ??$_Uninitialized_move@PAPAUSCollisionData@NRaceData@@V?$allocator@PAUSCollisionData@NRaceData@@@std@@@std@@YAPAPAUSCollisionData@NRaceData@@QAPAU12@0PAPAU12@AAV?$allocator@PAUSCollisionData@NRaceData@@@0@@Z 0044d910 f i GameLib:GameType.obj
 0001:0004c910       ??$_Uninitialized_move@PAPAVCTextureAnimationCCWDecorator@NEffectUpdateDecorator@@V?$allocator@PAVCTextureAnimationCCWDecorator@NEffectUpdateDecorator@@@std@@@std@@YAPAPAVCTextureAnimationCCWDecorator@NEffectUpdateDecorator@@QAPAV12@0PAPAV12@AAV?$allocator@PAVCTextureAnimationCCWDecorator@NEffectUpdateDecorator@@@0@@Z 0044d910 f i EffectLib:ParticleSystemData.obj
 0001:0004c910       ??$_Uninitialized_move@PAPAUSAttachingEffectData@NRaceData@@V?$allocator@PAUSAttachingEffectData@NRaceData@@@std@@@std@@YAPAPAUSAttachingEffectData@NRaceData@@QAPAU12@0PAPAU12@AAV?$allocator@PAUSAttachingEffectData@NRaceData@@@0@@Z 0044d910 f i GameLib:GameType.obj
 0001:0004c910       ??$_Uninitialized_move@PAPAVCBlockTexture@@V?$allocator@PAVCBlockTexture@@@std@@@std@@YAPAPAVCBlockTexture@@QAPAV1@0PAPAV1@AAV?$allocator@PAVCBlockTexture@@@0@@Z 0044d910 f i EterLib:DibBar.obj
 0001:0004c910       ??$_Uninitialized_move@PAPAVCGraphicImageInstance@@V?$allocator@PAVCGraphicImageInstance@@@std@@@std@@YAPAPAVCGraphicImageInstance@@QAPAV1@0PAPAV1@AAV?$allocator@PAVCGraphicImageInstance@@@0@@Z 0044d910 f i EffectLib:EffectMeshInstance.obj
 0001:0004c910       ??$_Uninitialized_move@PAPAUSGroupNode@CTextFileLoader@@V?$allocator@PAUSGroupNode@CTextFileLoader@@@std@@@std@@YAPAPAUSGroupNode@CTextFileLoader@@QAPAU12@0PAPAU12@AAV?$allocator@PAUSGroupNode@CTextFileLoader@@@0@@Z 0044d910 f i EterLib:TextFileLoader.obj
 0001:0004c910       ??$_Uninitialized_move@PAPAVCGraphicExpandedImageInstance@@V?$allocator@PAVCGraphicExpandedImageInstance@@@std@@@std@@YAPAPAVCGraphicExpandedImageInstance@@QAPAV1@0PAPAV1@AAV?$allocator@PAVCGraphicExpandedImageInstance@@@0@@Z 0044d910 f i EterLib:GrpExpandedImageInstance.obj
 0001:0004c910       ??$_Uninitialized_move@PAPAVCGravityDecorator@NEffectUpdateDecorator@@V?$allocator@PAVCGravityDecorator@NEffectUpdateDecorator@@@std@@@std@@YAPAPAVCGravityDecorator@NEffectUpdateDecorator@@QAPAV12@0PAPAV12@AAV?$allocator@PAVCGravityDecorator@NEffectUpdateDecorator@@@0@@Z 0044d910 f i EffectLib:ParticleSystemData.obj
 0001:0004c910       ??$_Uninitialized_move@PAPAVCSphereCollisionInstance@@V?$allocator@PAVCSphereCollisionInstance@@@std@@@std@@YAPAPAVCSphereCollisionInstance@@QAPAV1@0PAPAV1@AAV?$allocator@PAVCSphereCollisionInstance@@@0@@Z 0044d910 f i EterLib:CollisionData.obj
 0001:0004c910       ??$_Uninitialized_move@PAPAUSSlot@CSlotWindow@UI@@V?$allocator@PAUSSlot@CSlotWindow@UI@@@std@@@std@@YAPAPAUSSlot@CSlotWindow@UI@@QAPAU123@0PAPAU123@AAV?$allocator@PAUSSlot@CSlotWindow@UI@@@0@@Z 0044d910 f i EterPythonLib:PythonGridSlotWindow.obj
 0001:0004c910       ??$_Uninitialized_move@PAPAVCOBBCollisionInstance@@V?$allocator@PAVCOBBCollisionInstance@@@std@@@std@@YAPAPAVCOBBCollisionInstance@@QAPAV1@0PAPAV1@AAV?$allocator@PAVCOBBCollisionInstance@@@0@@Z 0044d910 f i EterLib:CollisionData.obj
 0001:0004c910       ??$_Uninitialized_move@PAPAVCHeaderDecorator@NEffectUpdateDecorator@@V?$allocator@PAVCHeaderDecorator@NEffectUpdateDecorator@@@std@@@std@@YAPAPAVCHeaderDecorator@NEffectUpdateDecorator@@QAPAV12@0PAPAV12@AAV?$allocator@PAVCHeaderDecorator@NEffectUpdateDecorator@@@0@@Z 0044d910 f i EffectLib:ParticleSystemData.obj
 0001:0004c910       ??$_Uninitialized_move@PAPAVCDungeonModelInstance@@V?$allocator@PAVCDungeonModelInstance@@@std@@@std@@YAPAPAVCDungeonModelInstance@@QAPAV1@0PAPAV1@AAV?$allocator@PAVCDungeonModelInstance@@@0@@Z 0044d910 f i GameLib:DungeonBlock.obj
 0001:0004c910       ??$_Uninitialized_move@PAPAVCLight@@V?$allocator@PAVCLight@@@std@@@std@@YAPAPAVCLight@@QAPAV1@0PAPAV1@AAV?$allocator@PAVCLight@@@0@@Z 0044d910 f i EterLib:GrpLightManager.obj
 0001:0004c910       ??$_Uninitialized_move@PAPAVCAttributeInstance@@V?$allocator@PAVCAttributeInstance@@@std@@@std@@YAPAPAVCAttributeInstance@@QAPAV1@0PAPAV1@AAV?$allocator@PAVCAttributeInstance@@@0@@Z 0044d910 f i EterLib:AttributeInstance.obj
 0001:0004c910       ??$_Uninitialized_move@PAPAVCSpeedTreeWrapper@@V?$allocator@PAVCSpeedTreeWrapper@@@std@@@std@@YAPAPAVCSpeedTreeWrapper@@QAPAV1@0PAPAV1@AAV?$allocator@PAVCSpeedTreeWrapper@@@0@@Z 0044d910 f i GameLib:Area.obj
 0001:0004c910       ??$_Uninitialized_move@PAPAUSAttachingObjectData@NRaceData@@V?$allocator@PAUSAttachingObjectData@NRaceData@@@std@@@std@@YAPAPAUSAttachingObjectData@NRaceData@@QAPAU12@0PAPAU12@AAV?$allocator@PAUSAttachingObjectData@NRaceData@@@0@@Z 0044d910 f i GameLib:GameType.obj
 0001:0004c910       ??$_Uninitialized_move@PAPAVCGraphicImageTexture@@V?$allocator@PAVCGraphicImageTexture@@@std@@@std@@YAPAPAVCGraphicImageTexture@@QAPAV1@0PAPAV1@AAV?$allocator@PAVCGraphicImageTexture@@@0@@Z 0044d910 f i EterLib:GrpFontTexture.obj
 0001:0004c910       ??$_Uninitialized_move@PAPAVCEffectInstance@@V?$allocator@PAVCEffectInstance@@@std@@@std@@YAPAPAVCEffectInstance@@QAPAV1@0PAPAV1@AAV?$allocator@PAVCEffectInstance@@@0@@Z 0044d910 f i EffectLib:EffectManager.obj
 0001:0004c910       ??$_Uninitialized_move@PAPAVCItemData@@V?$allocator@PAVCItemData@@@std@@@std@@YAPAPAVCItemData@@QAPAV1@0PAPAV1@AAV?$allocator@PAVCItemData@@@0@@Z 0044d910 f i GameLib:ItemManager.obj
 0001:0004c910       ??$_Uninitialized_move@PAPAUSMotionModeData@CRaceData@@V?$allocator@PAUSMotionModeData@CRaceData@@@std@@@std@@YAPAPAUSMotionModeData@CRaceData@@QAPAU12@0PAPAU12@AAV?$allocator@PAUSMotionModeData@CRaceData@@@0@@Z 0044d910 f i GameLib:RaceData.obj
 0001:0004c910       ??$_Uninitialized_move@PAPAVCLightData@@V?$allocator@PAVCLightData@@@std@@@std@@YAPAPAVCLightData@@QAPAV1@0PAPAV1@AAV?$allocator@PAVCLightData@@@0@@Z 0044d910 f i EffectLib:EffectData.obj
 0001:0004c910       ??$_Uninitialized_move@PAPAVCEffectMeshScript@@V?$allocator@PAVCEffectMeshScript@@@std@@@std@@YAPAPAVCEffectMeshScript@@QAPAV1@0PAPAV1@AAV?$allocator@PAVCEffectMeshScript@@@0@@Z 0044d910 f i EffectLib:EffectData.obj
 0001:0004c910       ??$_Uninitialized_move@PAPAVCBaseCollisionInstance@@V?$allocator@PAVCBaseCollisionInstance@@@std@@@std@@YAPAPAVCBaseCollisionInstance@@QAPAV1@0PAPAV1@AAV?$allocator@PAVCBaseCollisionInstance@@@0@@Z 0044d910 f i EterLib:GrpObjectInstance.obj
 0001:0004c910       ??$_Uninitialized_move@PAPAEV?$allocator@PAE@std@@@std@@YAPAPAEQAPAE0PAPAEAAV?$allocator@PAE@0@@Z 0044d910 f i EterBase:lzo.obj
 0001:0004c910       ??$_Uninitialized_move@PAPAUSObjectInstance@CArea@@V?$allocator@PAUSObjectInstance@CArea@@@std@@@std@@YAPAPAUSObjectInstance@CArea@@QAPAU12@0PAPAU12@AAV?$allocator@PAUSObjectInstance@CArea@@@0@@Z 0044d910 f i GameLib:Area.obj
 0001:0004c910       ??$_Uninitialized_move@PAPAVCFlyingInstance@@V?$allocator@PAVCFlyingInstance@@@std@@@std@@YAPAPAVCFlyingInstance@@QAPAV1@0PAPAV1@AAV?$allocator@PAVCFlyingInstance@@@0@@Z 0044d910 f i GameLib:FlyingObjectManager.obj
 0001:0004c910       ??$_Uninitialized_move@PAPAV?$CTimeEventDecorator@UDWORDCOLOR@@@NEffectUpdateDecorator@@V?$allocator@PAV?$CTimeEventDecorator@UDWORDCOLOR@@@NEffectUpdateDecorator@@@std@@@std@@YAPAPAV?$CTimeEventDecorator@UDWORDCOLOR@@@NEffectUpdateDecorator@@QAPAV12@0PAPAV12@AAV?$allocator@PAV?$CTimeEventDecorator@UDWORDCOLOR@@@NEffectUpdateDecorator@@@0@@Z 0044d910 f i EffectLib:ParticleSystemData.obj
 0001:0004c910       ??$_Uninitialized_copy@PAKV?$allocator@K@std@@@std@@YAPAKQAK0PAKAAV?$allocator@K@0@@Z 0044d910 f i GameLib:RaceData.obj
 0001:0004c910       ??$_Uninitialized_move@PAPAVCTerrain@@V?$allocator@PAVCTerrain@@@std@@@std@@YAPAPAVCTerrain@@QAPAV1@0PAPAV1@AAV?$allocator@PAVCTerrain@@@0@@Z 0044d910 f i GameLib:MapOutdoorLoad.obj
 0001:0004c910       ??$_Uninitialized_move@PAPAVCParticleSystemData@@V?$allocator@PAVCParticleSystemData@@@std@@@std@@YAPAPAVCParticleSystemData@@QAPAV1@0PAPAV1@AAV?$allocator@PAVCParticleSystemData@@@0@@Z 0044d910 f i EffectLib:ParticleSystemData.obj
 0001:0004c910       ??$_Uninitialized_move@PAPAVCArea@@V?$allocator@PAVCArea@@@std@@@std@@YAPAPAVCArea@@QAPAV1@0PAPAV1@AAV?$allocator@PAVCArea@@@0@@Z 0044d910 f i GameLib:Area.obj
 0001:0004c910       ??$_Uninitialized_move@PAPAVCParticleSystemInstance@@V?$allocator@PAVCParticleSystemInstance@@@std@@@std@@YAPAPAVCParticleSystemInstance@@QAPAV1@0PAPAV1@AAV?$allocator@PAVCParticleSystemInstance@@@0@@Z 0044d910 f i EffectLib:EffectInstance.obj
 0001:0004c910       ??$_Uninitialized_move@PAKV?$allocator@K@std@@@std@@YAPAKQAK0PAKAAV?$allocator@K@0@@Z 0044d910 f i NetworkActorManager.obj
 0001:0004c910       ??$_Uninitialized_move@PAPAVCEffectMeshInstance@@V?$allocator@PAVCEffectMeshInstance@@@std@@@std@@YAPAPAVCEffectMeshInstance@@QAPAV1@0PAPAV1@AAV?$allocator@PAVCEffectMeshInstance@@@0@@Z 0044d910 f i EffectLib:EffectInstance.obj
 0001:0004c910       ??$_Uninitialized_move@PAPAUSCharacterInfomation@CGraphicFontTexture@@V?$allocator@PAUSCharacterInfomation@CGraphicFontTexture@@@std@@@std@@YAPAPAUSCharacterInfomation@CGraphicFontTexture@@QAPAU12@0PAPAU12@AAV?$allocator@PAUSCharacterInfomation@CGraphicFontTexture@@@0@@Z 0044d910 f i EterLib:GrpTextInstance.obj
 0001:0004c910       ??$_Uninitialized_move@PAPAUSMotionEventData@NMotionEvent@@V?$allocator@PAUSMotionEventData@NMotionEvent@@@std@@@std@@YAPAPAUSMotionEventData@NMotionEvent@@QAPAU12@0PAPAU12@AAV?$allocator@PAUSMotionEventData@NMotionEvent@@@0@@Z 0044d910 f i GameLib:RaceMotionData.obj
 0001:0004c910       ??$_Uninitialized_move@PAPAVCDungeonBlock@@V?$allocator@PAVCDungeonBlock@@@std@@@std@@YAPAPAVCDungeonBlock@@QAPAV1@0PAPAV1@AAV?$allocator@PAVCDungeonBlock@@@0@@Z 0044d910 f i GameLib:Area.obj
 0001:0004c910       ??$_Uninitialized_move@PAPAVCSnowParticle@@V?$allocator@PAVCSnowParticle@@@std@@@std@@YAPAPAVCSnowParticle@@QAPAV1@0PAPAV1@AAV?$allocator@PAVCSnowParticle@@@0@@Z 0044d910 f i GameLib:SnowEnvironment.obj
 0001:0004c910       ??$_Uninitialized_move@PAPAVCFlyingData@@V?$allocator@PAVCFlyingData@@@std@@@std@@YAPAPAVCFlyingData@@QAPAV1@0PAPAV1@AAV?$allocator@PAVCFlyingData@@@0@@Z 0044d910 f i GameLib:FlyingObjectManager.obj
 0001:0004c910       ??$_Uninitialized_move@PAPAVCNullDecorator@NEffectUpdateDecorator@@V?$allocator@PAVCNullDecorator@NEffectUpdateDecorator@@@std@@@std@@YAPAPAVCNullDecorator@NEffectUpdateDecorator@@QAPAV12@0PAPAV12@AAV?$allocator@PAVCNullDecorator@NEffectUpdateDecorator@@@0@@Z 0044d910 f i EffectLib:ParticleSystemData.obj
 0001:0004c910       ??$_Uninitialized_move@PAPAVCEffectData@@V?$allocator@PAVCEffectData@@@std@@@std@@YAPAPAVCEffectData@@QAPAV1@0PAPAV1@AAV?$allocator@PAVCEffectData@@@0@@Z 0044d910 f i EffectLib:EffectData.obj
 0001:0004c910       ??$_Uninitialized_move@PAPAUSEffectMeshData@CEffectMesh@@V?$allocator@PAUSEffectMeshData@CEffectMesh@@@std@@@std@@YAPAPAUSEffectMeshData@CEffectMesh@@QAPAU12@0PAPAU12@AAV?$allocator@PAUSEffectMeshData@CEffectMesh@@@0@@Z 0044d910 f i EffectLib:EffectMesh.obj
 0001:0004c910       ??$_Uninitialized_move@PAPAVCRaceData@@V?$allocator@PAVCRaceData@@@std@@@std@@YAPAPAVCRaceData@@QAPAV1@0PAPAV1@AAV?$allocator@PAVCRaceData@@@0@@Z 0044d910 f i GameLib:RaceData.obj
 0001:0004c910       ??$_Uninitialized_move@PAPAVCGraphicObjectInstance@@V?$allocator@PAVCGraphicObjectInstance@@@std@@@std@@YAPAPAVCGraphicObjectInstance@@QAPAV1@0PAPAV1@AAV?$allocator@PAVCGraphicObjectInstance@@@0@@Z 0044d910 f i EterLib:CullingManager.obj
 0001:0004c910       ??$_Uninitialized_move@PAPAUSFlarePiece@CFlare@@V?$allocator@PAUSFlarePiece@CFlare@@@std@@@std@@YAPAPAUSFlarePiece@CFlare@@QAPAU12@0PAPAU12@AAV?$allocator@PAUSFlarePiece@CFlare@@@0@@Z 0044d910 f i EterLib:LensFlare.obj
 0001:0004c910       ??$_Uninitialized_move@PAPAVCGraphicTextInstance@@V?$allocator@PAVCGraphicTextInstance@@@std@@@std@@YAPAPAVCGraphicTextInstance@@QAPAV1@0PAPAV1@AAV?$allocator@PAVCGraphicTextInstance@@@0@@Z 0044d910 f i PythonEventManager.obj
 0001:0004c910       ??$_Uninitialized_move@PAPAVCGraphicImage@@V?$allocator@PAVCGraphicImage@@@std@@@std@@YAPAPAVCGraphicImage@@QAPAV1@0PAPAV1@AAV?$allocator@PAVCGraphicImage@@@0@@Z 0044d910 f i EffectLib:EffectMesh.obj
 0001:0004c940       ?stristr@@YAPBDPBD0@Z      0044d940 f   ProcessCRC.obj
 0001:0004c990       ?GetProcessInformation@@YA_NAAV?$basic_string@DU?$char_traits@D@std@@V?$allocator@D@2@@std@@PAPBX@Z 0044d990 f   ProcessCRC.obj
 0001:0004cb20       ?GetProcessMemoryCRC@@YAKPBX@Z 0044db20 f   ProcessCRC.obj
 0001:0004cba0       ?__GetExeCRC@@YA_NAAK0@Z   0044dba0 f   ProcessCRC.obj
 0001:0004cc60       ?BuildProcessCRC@@YAXXZ    0044dc60 f   ProcessCRC.obj
 0001:0004cd00       ?GetProcessCRCMagicCubePiece@@YAEXZ 0044dd00 f   ProcessCRC.obj
 0001:0004cd30       ??1SGuildGradeData@CPythonGuild@@QAE@XZ 0044dd30 f i PythonGuild.obj
 0001:0004cd30       ??1SGuildMemberData@CPythonGuild@@QAE@XZ 0044dd30 f i PythonGuild.obj
 0001:0004cd30       ??1IPythonExceptionSender@@QAE@XZ 0044dd30 f i PythonExceptionSender.obj
 0001:0004cd30       ??1?$pair@KV?$basic_string@DU?$char_traits@D@std@@V?$allocator@D@2@@std@@@std@@QAE@XZ 0044dd30 f i ProcessScanner.obj
 0001:0004cd30       ??1?$pair@$$CBKV?$basic_string@DU?$char_traits@D@std@@V?$allocator@D@2@@std@@@std@@QAE@XZ 0044dd30 f i PythonGuild.obj
 0001:0004cd30       ??1SWaitChat@CPythonChat@@QAE@XZ 0044dd30 f i PythonChat.obj
 0001:0004cd30       ??1ShopTab@CPythonShop@@QAE@XZ 0044dd30 f i PythonShop.obj
 0001:0004cd60       ??1?$vector@U?$pair@KV?$basic_string@DU?$char_traits@D@std@@V?$allocator@D@2@@std@@@std@@V?$allocator@U?$pair@KV?$basic_string@DU?$char_traits@D@std@@V?$allocator@D@2@@std@@@std@@@2@@std@@QAE@XZ 0044dd60 f i ProcessScanner.obj
 0001:0004cdc0       ??$insert@U?$pair@KK@std@@$0A@@?$map@KKU?$less@K@std@@V?$allocator@U?$pair@$$CBKK@std@@@2@@std@@QAE?AU?$pair@V?$_Tree_iterator@V?$_Tree_val@U?$_Tree_simple_types@U?$pair@$$CBKK@std@@@std@@@std@@@std@@_N@1@$$QAU?$pair@KK@1@@Z 0044ddc0 f i ProcessScanner.obj
 0001:0004ceb0       ??$_Destroy_range@V?$allocator@U?$pair@KV?$basic_string@DU?$char_traits@D@std@@V?$allocator@D@2@@std@@@std@@@std@@@std@@YAXPAU?$pair@KV?$basic_string@DU?$char_traits@D@std@@V?$allocator@D@2@@std@@@0@QAU10@AAV?$allocator@U?$pair@KV?$basic_string@DU?$char_traits@D@std@@V?$allocator@D@2@@std@@@std@@@0@@Z 0044deb0 f i ProcessScanner.obj
 0001:0004cf00       ??4?$basic_string@DU?$char_traits@D@std@@V?$allocator@D@2@@std@@QAEAAV01@$$QAV01@@Z 0044df00 f i ProcessScanner.obj
 0001:0004cf60       ??1IAbstractApplication@@UAE@XZ 0044df60 f i PythonApplication.obj
 0001:0004cf80       ??_GIAbstractApplication@@UAEPAXI@Z 0044df80 f i PythonApplication.obj
 0001:0004cf80       ??_G?$TAbstractSingleton@VIAbstractApplication@@@@UAEPAXI@Z 0044df80 f i PythonApplication.obj
 0001:0004cf80       ??_E?$TAbstractSingleton@VIAbstractApplication@@@@UAEPAXI@Z 0044df80 f i * CIL library *:* CIL module *
 0001:0004cf80       ??_EIAbstractApplication@@UAEPAXI@Z 0044df80 f i * CIL library *:* CIL module *
 0001:0004cfb0       ??1CMovieMan@@UAE@XZ       0044dfb0 f i PythonApplication.obj
 0001:0004d000       ??_GCMovieMan@@UAEPAXI@Z   0044e000 f i PythonApplication.obj
 0001:0004d000       ??_ECMovieMan@@UAEPAXI@Z   0044e000 f i * CIL library *:* CIL module *
 0001:0004d040       ??0CPythonApplication@@QAE@XZ 0044e040 f   PythonApplication.obj
 0001:0004d6c0       ??_GCPythonApplication@@UAEPAXI@Z 0044e6c0 f i PythonApplication.obj
 0001:0004d6c0       ??_ECPythonApplication@@UAEPAXI@Z 0044e6c0 f i * CIL library *:* CIL module *
 0001:0004d6f0       ??1CPythonApplication@@UAE@XZ 0044e6f0 f   PythonApplication.obj
 0001:0004d920       ?GetMousePosition@CPythonApplication@@UAEXPAUtagPOINT@@@Z 0044e920 f   PythonApplication.obj
 0001:0004d930       ?SetMinFog@CPythonApplication@@QAEXM@Z 0044e930 f   PythonApplication.obj
 0001:0004d940       ?SetFrameSkip@CPythonApplication@@QAEX_N@Z 0044e940 f   PythonApplication.obj
 0001:0004d960       ?GetInfo@CPythonApplication@@QAEXIPAV?$basic_string@DU?$char_traits@D@std@@V?$allocator@D@2@@std@@@Z 0044e960 f   PythonApplication.obj
 0001:0004d9d0       ?Abort@CPythonApplication@@QAEXXZ 0044e9d0 f   PythonApplication.obj
 0001:0004d9f0       ?Exit@CPythonApplication@@QAEXXZ 0044e9f0 f   PythonApplication.obj
 0001:0004d9f0       ?AbsoluteExitApplication@CPythonNetworkStream@@QAEXXZ 0044e9f0 f   PythonNetworkStream.obj
 0001:0004da00       ?RenderGame@CPythonApplication@@QAEXXZ 0044ea00 f   PythonApplication.obj
 0001:0004dfb0       ?UpdateGame@CPythonApplication@@QAEXXZ 0044efb0 f   PythonApplication.obj
 0001:0004e330       ?SkipRenderBuffering@CPythonApplication@@UAEXK@Z 0044f330 f   PythonApplication.obj
 0001:0004e350       ?Process@CPythonApplication@@QAE_NXZ 0044f350 f   PythonApplication.obj
 0001:0004ea20       ?SetMouseHandler@CPythonApplication@@QAEXPAU_object@@@Z 0044fa20 f   PythonApplication.obj
 0001:0004ea30       ?CreateDevice@CPythonApplication@@QAE_NHHHHH@Z 0044fa30 f   PythonApplication.obj
 0001:0004ec50       ?Loop@CPythonApplication@@QAEXXZ 0044fc50 f   PythonApplication.obj
 0001:0004ec90       ?LoadLocaleData@@YA_NPBD@Z 0044fc90 f   PythonApplication.obj
 0001:0004ef70       ?__GetWindowMode@@YAI_N@Z  0044ff70 f   PythonApplication.obj
 0001:0004ef80       ?Create@CPythonApplication@@QAE_NPAU_object@@PBDHHH@Z 0044ff80 f   PythonApplication.obj
 0001:0004f340       ?SetGlobalCenterPosition@CPythonApplication@@QAEXJJ@Z 00450340 f   PythonApplication.obj
 0001:0004f3c0       ?SetCenterPosition@CPythonApplication@@UAEXMMM@Z 004503c0 f   PythonApplication.obj
 0001:0004f400       ?GetCenterPosition@CPythonApplication@@QAEXPAUD3DXVECTOR3@@@Z 00450400 f   PythonApplication.obj
 0001:0004f430       ?SetServerTime@CPythonApplication@@UAEXJ@Z 00450430 f   PythonApplication.obj
 0001:0004f460       ?GetServerTime@CPythonApplication@@QAEJXZ 00450460 f   PythonApplication.obj
 0001:0004f480       ?GetServerTimeStamp@CPythonApplication@@QAEJXZ 00450480 f   PythonApplication.obj
 0001:0004f4a0       ?GetGlobalTime@CPythonApplication@@UAEMXZ 004504a0 f   PythonApplication.obj
 0001:0004f4b0       ?GetGlobalElapsedTime@CPythonApplication@@UAEMXZ 004504b0 f   PythonApplication.obj
 0001:0004f4c0       ?SetFPS@CPythonApplication@@QAEXH@Z 004504c0 f   PythonApplication.obj
 0001:0004f4d0       ?SetConnectData@CPythonApplication@@QAEXPBDH@Z 004504d0 f   PythonApplication.obj
 0001:0004f510       ?GetConnectData@CPythonApplication@@QAEXAAV?$basic_string@DU?$char_traits@D@std@@V?$allocator@D@2@@std@@AAH@Z 00450510 f   PythonApplication.obj
 0001:0004f550       ?EnableSpecialCameraMode@CPythonApplication@@QAEXXZ 00450550 f   PythonApplication.obj
 0001:0004f560       ?SetCameraSpeed@CPythonApplication@@QAEXH@Z 00450560 f   PythonApplication.obj
 0001:0004f5b0       ?SetForceSightRange@CPythonApplication@@QAEXH@Z 004505b0 f   PythonApplication.obj
 0001:0004f5c0       ?Clear@CPythonApplication@@QAEXXZ 004505c0 f   PythonApplication.obj
 0001:0004f5d0       ?Destroy@CPythonApplication@@QAEXXZ 004505d0 f   PythonApplication.obj
 0001:0004f720       ??_G?$CSingleton@VCMovieMan@@@@UAEPAXI@Z 00450720 f i PythonApplication.obj
 0001:0004f720       ??_E?$CSingleton@VCMovieMan@@@@UAEPAXI@Z 00450720 f i * CIL library *:* CIL module *
 0001:0004f74e       ??_ECPythonApplication@@WBM@AEPAXI@Z 0045074e f i PythonApplication.obj
 0001:0004f756       ??_ECPythonApplication@@WCA@AEPAXI@Z 00450756 f i PythonApplication.obj
 0001:0004f760       ?BlendValueByLinear@@YAMMMMM@Z 00450760 f   PythonApplicationCamera.obj
 0001:0004f780       ?__UpdateCamera@CPythonApplication@@IAEXXZ 00450780 f   PythonApplicationCamera.obj
 0001:0004fc30       ?SetViewDirCameraSpeed@CPythonApplication@@QAEXM@Z 00450c30 f   PythonApplicationCamera.obj
 0001:0004fc60       ?SetCrossDirCameraSpeed@CPythonApplication@@QAEXM@Z 00450c60 f   PythonApplicationCamera.obj
 0001:0004fc90       ?SetUpDirCameraSpeed@CPythonApplication@@QAEXM@Z 00450c90 f   PythonApplicationCamera.obj
 0001:0004fcc0       ?SetCamera@CPythonApplication@@QAEXMMMM@Z 00450cc0 f   PythonApplicationCamera.obj
 0001:0004fd80       ?GetCamera@CPythonApplication@@QAEXPAM000@Z 00450d80 f   PythonApplicationCamera.obj
 0001:0004fdc0       ?RotateCamera@CPythonApplication@@QAEXH@Z 00450dc0 f   PythonApplicationCamera.obj
 0001:0004fdf0       ?PitchCamera@CPythonApplication@@QAEXH@Z 00450df0 f   PythonApplicationCamera.obj
 0001:0004fe20       ?ZoomCamera@CPythonApplication@@QAEXH@Z 00450e20 f   PythonApplicationCamera.obj
 0001:0004fe60       ?MovieRotateCamera@CPythonApplication@@QAEXH@Z 00450e60 f   PythonApplicationCamera.obj
 0001:0004fed0       ?MoviePitchCamera@CPythonApplication@@QAEXH@Z 00450ed0 f   PythonApplicationCamera.obj
 0001:0004ff40       ?MovieZoomCamera@CPythonApplication@@QAEXH@Z 00450f40 f   PythonApplicationCamera.obj
 0001:0004ffc0       ?MovieResetCamera@CPythonApplication@@QAEXXZ 00450fc0 f   PythonApplicationCamera.obj
 0001:00050020       ?GetRotation@CPythonApplication@@QAEMXZ 00451020 f   PythonApplicationCamera.obj
 0001:00050040       ?GetPitch@CPythonApplication@@QAEMXZ 00451040 f   PythonApplicationCamera.obj
 0001:00050060       ?IsLockCurrentCamera@CPythonApplication@@QAE_NXZ 00451060 f   PythonApplicationCamera.obj
 0001:00050080       ?SetEventCamera@CPythonApplication@@UAEXABUSCameraSetting@IAbstractApplication@@@Z 00451080 f   PythonApplicationCamera.obj
 0001:00050100       ?BlendEventCamera@CPythonApplication@@UAEXABUSCameraSetting@IAbstractApplication@@M@Z 00451100 f   PythonApplicationCamera.obj
 0001:00050170       ?SetDefaultCamera@CPythonApplication@@UAEXXZ 00451170 f   PythonApplicationCamera.obj
 0001:000501e0       ?SetCameraSetting@CPythonApplication@@QAEXABUSCameraSetting@IAbstractApplication@@@Z 004511e0 f   PythonApplicationCamera.obj
 0001:00050310       ?GetCameraSetting@CPythonApplication@@QAEXPAUSCameraSetting@IAbstractApplication@@@Z 00451310 f   PythonApplicationCamera.obj
 0001:00050390       ?SaveCameraSetting@CPythonApplication@@QAEXPBD@Z 00451390 f   PythonApplicationCamera.obj
 0001:000504f0       ?LoadCameraSetting@CPythonApplication@@QAE_NPBD@Z 004514f0 f   PythonApplicationCamera.obj
 0001:00050850       ?at@?$vector@V?$basic_string@DU?$char_traits@D@std@@V?$allocator@D@2@@std@@V?$allocator@V?$basic_string@DU?$char_traits@D@std@@V?$allocator@D@2@@std@@@2@@std@@QAEAAV?$basic_string@DU?$char_traits@D@std@@V?$allocator@D@2@@2@I@Z 00451850 f i PythonApplicationCamera.obj
 0001:00050890       ?_Xrange@?$vector@VCSkyObjectQuad@@V?$allocator@VCSkyObjectQuad@@@std@@@std@@CAXXZ 00451890 f i EterLib:SkyBox.obj
 0001:00050890       ?_Xrange@?$vector@V?$basic_string@DU?$char_traits@D@std@@V?$allocator@D@2@@std@@V?$allocator@V?$basic_string@DU?$char_traits@D@std@@V?$allocator@D@2@@std@@@2@@std@@CAXXZ 00451890 f i PythonApplicationCamera.obj
 0001:00050890       ?_Xrange@?$vector@USSoundInstance@NSound@@V?$allocator@USSoundInstance@NSound@@@std@@@std@@CAXXZ 00451890 f i MilesLib:SoundManager.obj
 0001:00050890       ?_Xrange@?$vector@V?$CTimeEvent@M@@V?$allocator@V?$CTimeEvent@M@@@std@@@std@@CAXXZ 00451890 f i EffectLib:Type.obj
 0001:00050890       ?_Xrange@?$vector@UCDynamicSphereInstance@@V?$allocator@UCDynamicSphereInstance@@@std@@@std@@CAXXZ 00451890 f i GameLib:ActorInstanceCollisionDetection.obj
 0001:00050890       ?_Xrange@?$vector@USAttachingData@NRaceData@@V?$allocator@USAttachingData@NRaceData@@@std@@@std@@CAXXZ 00451890 f i GameLib:GameType.obj
 0001:000508a0       ?CreateCursors@CPythonApplication@@QAE_NXZ 004518a0 f   PythonApplicationCursor.obj
 0001:00050a80       ?DestroyCursors@CPythonApplication@@QAEXXZ 00451a80 f   PythonApplicationCursor.obj
 0001:00050af0       ?SetCursorVisible@CPythonApplication@@QAEXH_N@Z 00451af0 f   PythonApplicationCursor.obj
 0001:00050b50       ?GetCursorVisible@CPythonApplication@@QAEHXZ 00451b50 f   PythonApplicationCursor.obj
 0001:00050b60       ?GetLiarCursorOn@CPythonApplication@@QAE_NXZ 00451b60 f   PythonApplicationCursor.obj
 0001:00050b70       ?GetCursorMode@CPythonApplication@@QAEHXZ 00451b70 f   PythonApplicationCursor.obj
 0001:00050b80       ?__IsContinuousChangeTypeCursor@CPythonApplication@@IAEHH@Z 00451b80 f   PythonApplicationCursor.obj
 0001:00050bc0       ?SetCursorNum@CPythonApplication@@QAEHH@Z 00451bc0 f   PythonApplicationCursor.obj
 0001:00050c80       ?SetCursorMode@CPythonApplication@@QAEXH@Z 00451c80 f   PythonApplicationCursor.obj
 0001:00050cd0       ?OnCameraUpdate@CPythonApplication@@IAEXXZ 00451cd0 f   PythonApplicationEvent.obj
 0001:00050d00       ?OnUIUpdate@CPythonApplication@@IAEXXZ 00451d00 f   PythonApplicationEvent.obj
 0001:00050d10       ?OnUIRender@CPythonApplication@@IAEXXZ 00451d10 f   PythonApplicationEvent.obj
 0001:00050d20       ?OnMouseWheel@CPythonApplication@@IAEXH@Z 00451d20 f   PythonApplicationEvent.obj
 0001:00050d40       ?OnMouseMove@CPythonApplication@@IAEXHH@Z 00451d40 f   PythonApplicationEvent.obj
 0001:00050e00       ?OnMouseLeftButtonDown@CPythonApplication@@IAEXHH@Z 00451e00 f   PythonApplicationEvent.obj
 0001:00050e10       ?OnMouseLeftButtonUp@CPythonApplication@@IAEXHH@Z 00451e10 f   PythonApplicationEvent.obj
 0001:00050e20       ?OnMouseLeftButtonDoubleClick@CPythonApplication@@IAEXHH@Z 00451e20 f   PythonApplicationEvent.obj
 0001:00050e50       ?OnMouseRightButtonDown@CPythonApplication@@IAEXHH@Z 00451e50 f   PythonApplicationEvent.obj
 0001:00050e60       ?OnMouseRightButtonUp@CPythonApplication@@IAEXHH@Z 00451e60 f   PythonApplicationEvent.obj
 0001:00050e70       ?OnKeyDown@CPythonApplication@@MAEXH@Z 00451e70 f   PythonApplicationEvent.obj
 0001:00050ea0       ?OnKeyUp@CPythonApplication@@MAEXH@Z 00451ea0 f   PythonApplicationEvent.obj
 0001:00050eb0       ?RunIMEUpdate@CPythonApplication@@UAEXXZ 00451eb0 f   PythonApplicationEvent.obj
 0001:00050ec0       ?RunIMETabEvent@CPythonApplication@@UAEXXZ 00451ec0 f   PythonApplicationEvent.obj
 0001:00050ed0       ?RunIMEReturnEvent@CPythonApplication@@UAEXXZ 00451ed0 f   PythonApplicationEvent.obj
 0001:00050ee0       ?OnIMEKeyDown@CPythonApplication@@IAEXH@Z 00451ee0 f   PythonApplicationEvent.obj
 0001:00050ef0       ?RunIMEChangeCodePage@CPythonApplication@@UAEXXZ 00451ef0 f   PythonApplicationEvent.obj
 0001:00050f00       ?RunIMEOpenCandidateListEvent@CPythonApplication@@UAEXXZ 00451f00 f   PythonApplicationEvent.obj
 0001:00050f10       ?RunIMECloseCandidateListEvent@CPythonApplication@@UAEXXZ 00451f10 f   PythonApplicationEvent.obj
 0001:00050f20       ?RunIMEOpenReadingWndEvent@CPythonApplication@@UAEXXZ 00451f20 f   PythonApplicationEvent.obj
 0001:00050f30       ?RunIMECloseReadingWndEvent@CPythonApplication@@UAEXXZ 00451f30 f   PythonApplicationEvent.obj
 0001:00050f40       ?RunPressExitKey@CPythonApplication@@QAEXXZ 00451f40 f   PythonApplicationEvent.obj
 0001:00050f50       ?OnMouseUpdate@CPythonApplication@@IAEXXZ 00451f50 f   PythonApplicationEvent.obj
 0001:00050fa0       ?OnMouseRender@CPythonApplication@@IAEXXZ 00451fa0 f   PythonApplicationEvent.obj
 0001:00050fd0       ?appShowWebPage@@YAPAU_object@@PAU1@0@Z 00451fd0 f   PythonApplicationModule.obj
 0001:000510b0       ?appMoveWebPage@@YAPAU_object@@PAU1@0@Z 004520b0 f   PythonApplicationModule.obj
 0001:00051160       ?appHideWebPage@@YAPAU_object@@PAU1@0@Z 00452160 f   PythonApplicationModule.obj
 0001:00051170       ?appIsWebPageMode@@YAPAU_object@@PAU1@0@Z 00452170 f   PythonApplicationModule.obj
 0001:00051190       ?appEnablePerformanceTime@@YAPAU_object@@PAU1@0@Z 00452190 f   PythonApplicationModule.obj
 0001:00051220       ?appSetTextTailLivingTime@@YAPAU_object@@PAU1@0@Z 00452220 f   PythonApplicationModule.obj
 0001:00051270       ?appSetHairColorEnable@@YAPAU_object@@PAU1@0@Z 00452270 f   PythonApplicationModule.obj
 0001:000512b0       ?appSetArmorSpecularEnable@@YAPAU_object@@PAU1@0@Z 004522b0 f   PythonApplicationModule.obj
 0001:000512f0       ?appSetWeaponSpecularEnable@@YAPAU_object@@PAU1@0@Z 004522f0 f   PythonApplicationModule.obj
 0001:00051330       ?appSetSkillEffectUpgradeEnable@@YAPAU_object@@PAU1@0@Z 00452330 f   PythonApplicationModule.obj
 0001:00051370       ?SetTwoHandedWeaponAttSpeedDecreaseValue@@YAPAU_object@@PAU1@0@Z 00452370 f   PythonApplicationModule.obj
 0001:000513b0       ?netSendSafeboxSaveMoneyPacket@@YAPAU_object@@PAU1@0@Z 004523b0 f   PythonNetworkStreamModule.obj
 0001:000513b0       ?netSendSafeboxWithdrawMoneyPacket@@YAPAU_object@@PAU1@0@Z 004523b0 f   PythonNetworkStreamModule.obj
 0001:000513b0       ?netSetUDPRecvBufferSize@@YAPAU_object@@PAU1@0@Z 004523b0 f   PythonNetworkStreamModule.obj
 0001:000513b0       ?playerSetWeaponAttackBonusFlag@@YAPAU_object@@PAU1@0@Z 004523b0 f   PythonPlayerModule.obj
 0001:000513b0       ?netSendRequestRefineInfoPacket@@YAPAU_object@@PAU1@0@Z 004523b0 f   PythonNetworkStreamModule.obj
 0001:000513b0       ?appSetRideHorseEnable@@YAPAU_object@@PAU1@0@Z 004523b0 f   PythonApplicationModule.obj
 0001:000513e0       ?appSetCameraMaxDistance@@YAPAU_object@@PAU1@0@Z 004523e0 f   PythonApplicationModule.obj
 0001:00051430       ?appSetControlFP@@YAPAU_object@@PAU1@0@Z 00452430 f   PythonApplicationModule.obj
 0001:00051450       ?appSetSpecularSpeed@@YAPAU_object@@PAU1@0@Z 00452450 f   PythonApplicationModule.obj
 0001:00051490       ?appSetMinFog@@YAPAU_object@@PAU1@0@Z 00452490 f   PythonApplicationModule.obj
 0001:000514d0       ?appSetFrameSkip@@YAPAU_object@@PAU1@0@Z 004524d0 f   PythonApplicationModule.obj
 0001:00051520       ?appForceSetLocale@@YAPAU_object@@PAU1@0@Z 00452520 f   PythonApplicationModule.obj
 0001:00051580       ?appGetLocaleServiceName@@YAPAU_object@@PAU1@0@Z 00452580 f   PythonApplicationModule.obj
 0001:000515a0       ?appSetCHEONMA@@YAPAU_object@@PAU1@0@Z 004525a0 f   PythonApplicationModule.obj
 0001:000515e0       ?appIsCHEONMA@@YAPAU_object@@PAU1@0@Z 004525e0 f   PythonApplicationModule.obj
 0001:00051600       ?appLoadLocaleAddr@@YAPAU_object@@PAU1@0@Z 00452600 f   PythonApplicationModule.obj
 0001:000516e0       ?appLoadLocaleData@@YAPAU_object@@PAU1@0@Z 004526e0 f   PythonApplicationModule.obj
 0001:00051730       ?appGetLocaleName@@YAPAU_object@@PAU1@0@Z 00452730 f   PythonApplicationModule.obj
 0001:00051750       ?appGetLocalePath@@YAPAU_object@@PAU1@0@Z 00452750 f   PythonApplicationModule.obj
 0001:00051770       ?appGetDefaultCodePage@@YAPAU_object@@PAU1@0@Z 00452770 f   PythonApplicationModule.obj
 0001:00051790       ?appGetImageInfo@@YAPAU_object@@PAU1@0@Z 00452790 f   PythonApplicationModule.obj
 0001:00051830       ?appIsExistFile@@YAPAU_object@@PAU1@0@Z 00452830 f   PythonApplicationModule.obj
 0001:00051880       ?appGetFileList@@YAPAU_object@@PAU1@0@Z 00452880 f   PythonApplicationModule.obj
 0001:00051950       ?appUpdateGame@@YAPAU_object@@PAU1@0@Z 00452950 f   PythonApplicationModule.obj
 0001:00051960       ?appRenderGame@@YAPAU_object@@PAU1@0@Z 00452960 f   PythonApplicationModule.obj
 0001:00051970       ?appSetMouseHandler@@YAPAU_object@@PAU1@0@Z 00452970 f   PythonApplicationModule.obj
 0001:000519b0       ?appCreate@@YAPAU_object@@PAU1@0@Z 004529b0 f   PythonApplicationModule.obj
 0001:00051a50       ?appLoop@@YAPAU_object@@PAU1@0@Z 00452a50 f   PythonApplicationModule.obj
 0001:00051a60       ?appGetInfo@@YAPAU_object@@PAU1@0@Z 00452a60 f   PythonApplicationModule.obj
 0001:00051b30       ?appProcess@@YAPAU_object@@PAU1@0@Z 00452b30 f   PythonApplicationModule.obj
 0001:00051b70       ?appAbort@@YAPAU_object@@PAU1@0@Z 00452b70 f   PythonApplicationModule.obj
 0001:00051b80       ?appExit@@YAPAU_object@@PAU1@0@Z 00452b80 f   PythonApplicationModule.obj
 0001:00051b90       ?appSetCamera@@YAPAU_object@@PAU1@0@Z 00452b90 f   PythonApplicationModule.obj
 0001:00051c30       ?appGetCamera@@YAPAU_object@@PAU1@0@Z 00452c30 f   PythonApplicationModule.obj
 0001:00051cb0       ?appGetCameraPitch@@YAPAU_object@@PAU1@0@Z 00452cb0 f   PythonApplicationModule.obj
 0001:00051cd0       ?appGetCameraRotation@@YAPAU_object@@PAU1@0@Z 00452cd0 f   PythonApplicationModule.obj
 0001:00051cf0       ?appGetTime@@YAPAU_object@@PAU1@0@Z 00452cf0 f   PythonApplicationModule.obj
 0001:00051d20       ?appGetGlobalTime@@YAPAU_object@@PAU1@0@Z 00452d20 f   PythonApplicationModule.obj
 0001:00051d40       ?appGetGlobalTimeStamp@@YAPAU_object@@PAU1@0@Z 00452d40 f   PythonApplicationModule.obj
 0001:00051d60       ?appGetUpdateFPS@@YAPAU_object@@PAU1@0@Z 00452d60 f   PythonApplicationModule.obj
 0001:00051d80       ?appGetRenderFPS@@YAPAU_object@@PAU1@0@Z 00452d80 f   PythonApplicationModule.obj
 0001:00051da0       ?appRotateCamera@@YAPAU_object@@PAU1@0@Z 00452da0 f   PythonApplicationModule.obj
 0001:00051de0       ?appPitchCamera@@YAPAU_object@@PAU1@0@Z 00452de0 f   PythonApplicationModule.obj
 0001:00051e20       ?appZoomCamera@@YAPAU_object@@PAU1@0@Z 00452e20 f   PythonApplicationModule.obj
 0001:00051e60       ?appMovieRotateCamera@@YAPAU_object@@PAU1@0@Z 00452e60 f   PythonApplicationModule.obj
 0001:00051ea0       ?appMoviePitchCamera@@YAPAU_object@@PAU1@0@Z 00452ea0 f   PythonApplicationModule.obj
 0001:00051ee0       ?appMovieZoomCamera@@YAPAU_object@@PAU1@0@Z 00452ee0 f   PythonApplicationModule.obj
 0001:00051f20       ?appMovieResetCamera@@YAPAU_object@@PAU1@0@Z 00452f20 f   PythonApplicationModule.obj
 0001:00051f30       ?appGetFaceSpeed@@YAPAU_object@@PAU1@0@Z 00452f30 f   PythonApplicationModule.obj
 0001:00051f60       ?appGetRenderTime@@YAPAU_object@@PAU1@0@Z 00452f60 f   PythonApplicationModule.obj
 0001:00051f90       ?appGetUpdateTime@@YAPAU_object@@PAU1@0@Z 00452f90 f   PythonApplicationModule.obj
 0001:00051fb0       ?appGetLoad@@YAPAU_object@@PAU1@0@Z 00452fb0 f   PythonApplicationModule.obj
 0001:00051fd0       ?appGetFaceCount@@YAPAU_object@@PAU1@0@Z 00452fd0 f   PythonApplicationModule.obj
 0001:00052000       ?appGetAvaiableTextureMememory@@YAPAU_object@@PAU1@0@Z 00453000 f   PythonApplicationModule.obj
 0001:00052020       ?appSetFPS@@YAPAU_object@@PAU1@0@Z 00453020 f   PythonApplicationModule.obj
 0001:00052060       ?appSetGlobalCenterPosition@@YAPAU_object@@PAU1@0@Z 00453060 f   PythonApplicationModule.obj
 0001:000520c0       ?appSetCenterPosition@@YAPAU_object@@PAU1@0@Z 004530c0 f   PythonApplicationModule.obj
 0001:00052160       ?appGetCursorPosition@@YAPAU_object@@PAU1@0@Z 00453160 f   PythonApplicationModule.obj
 0001:00052160       ?wndMgrGetMousePosition@@YAPAU_object@@PAU1@0@Z 00453160 f   EterPythonLib:PythonWindowManagerModule.obj
 0001:000521a0       ?appRunPythonFile@@YAPAU_object@@PAU1@0@Z 004531a0 f   PythonApplicationModule.obj
 0001:000521f0       ?appIsPressed@@YAPAU_object@@PAU1@0@Z 004531f0 f   PythonApplicationModule.obj
 0001:00052240       ?appSetCursor@@YAPAU_object@@PAU1@0@Z 00453240 f   PythonApplicationModule.obj
 0001:000522a0       ?appGetCursor@@YAPAU_object@@PAU1@0@Z 004532a0 f   PythonApplicationModule.obj
 0001:000522c0       ?appShowCursor@@YAPAU_object@@PAU1@0@Z 004532c0 f   PythonApplicationModule.obj
 0001:000522e0       ?appHideCursor@@YAPAU_object@@PAU1@0@Z 004532e0 f   PythonApplicationModule.obj
 0001:00052300       ?appIsShowCursor@@YAPAU_object@@PAU1@0@Z 00453300 f   PythonApplicationModule.obj
 0001:00052330       ?appIsLiarCursorOn@@YAPAU_object@@PAU1@0@Z 00453330 f   PythonApplicationModule.obj
 0001:00052350       ?appSetSoftwareCursor@@YAPAU_object@@PAU1@0@Z 00453350 f   PythonApplicationModule.obj
 0001:00052370       ?appSetHardwareCursor@@YAPAU_object@@PAU1@0@Z 00453370 f   PythonApplicationModule.obj
 0001:00052390       ?appSetConnectData@@YAPAU_object@@PAU1@0@Z 00453390 f   PythonApplicationModule.obj
 0001:000523f0       ?appGetConnectData@@YAPAU_object@@PAU1@0@Z 004533f0 f   PythonApplicationModule.obj
 0001:000524a0       ?appGetRandom@@YAPAU_object@@PAU1@0@Z 004534a0 f   PythonApplicationModule.obj
 0001:00052510       ?appGetRotatingDirection@@YAPAU_object@@PAU1@0@Z 00453510 f   PythonApplicationModule.obj
 0001:00052580       ?appGetDegreeDifference@@YAPAU_object@@PAU1@0@Z 00453580 f   PythonApplicationModule.obj
 0001:000525f0       ?appSleep@@YAPAU_object@@PAU1@0@Z 004535f0 f   PythonApplicationModule.obj
 0001:00052630       ?appSetDefaultFontName@@YAPAU_object@@PAU1@0@Z 00453630 f   PythonApplicationModule.obj
 0001:00052670       ?appSetGuildSymbolPath@@YAPAU_object@@PAU1@0@Z 00453670 f   PythonApplicationModule.obj
 0001:000526b0       ?appEnableSpecialCameraMode@@YAPAU_object@@PAU1@0@Z 004536b0 f   PythonApplicationModule.obj
 0001:000526c0       ?appSetCameraSpeed@@YAPAU_object@@PAU1@0@Z 004536c0 f   PythonApplicationModule.obj
 0001:00052730       ?appIsFileExist@@YAPAU_object@@PAU1@0@Z 00453730 f   PythonApplicationModule.obj
 0001:00052780       ?appSetCameraSetting@@YAPAU_object@@PAU1@0@Z 00453780 f   PythonApplicationModule.obj
 0001:000528b0       ?appSaveCameraSetting@@YAPAU_object@@PAU1@0@Z 004538b0 f   PythonApplicationModule.obj
 0001:000528f0       ?appLoadCameraSetting@@YAPAU_object@@PAU1@0@Z 004538f0 f   PythonApplicationModule.obj
 0001:00052940       ?appSetDefaultCamera@@YAPAU_object@@PAU1@0@Z 00453940 f   PythonApplicationModule.obj
 0001:00052960       ?appSetSightRange@@YAPAU_object@@PAU1@0@Z 00453960 f   PythonApplicationModule.obj
 0001:000529a0       ?apptestGetAccumulationTime@@YAPAU_object@@PAU1@0@Z 004539a0 f   PythonApplicationModule.obj
 0001:000529c0       ?apptestResetAccumulationTime@@YAPAU_object@@PAU1@0@Z 004539c0 f   PythonApplicationModule.obj
 0001:000529d0       ?apptestSetSpecularColor@@YAPAU_object@@PAU1@0@Z 004539d0 f   PythonApplicationModule.obj
 0001:00052a60       ?appSetVisibleNotice@@YAPAU_object@@PAU1@0@Z 00453a60 f   PythonApplicationModule.obj
 0001:00052aa0       ?appIsVisibleNotice@@YAPAU_object@@PAU1@0@Z 00453aa0 f   PythonApplicationModule.obj
 0001:00052ac0       ?appEnableTestServerFlag@@YAPAU_object@@PAU1@0@Z 00453ac0 f   PythonApplicationModule.obj
 0001:00052ad0       ?appIsEnableTestServerFlag@@YAPAU_object@@PAU1@0@Z 00453ad0 f   PythonApplicationModule.obj
 0001:00052af0       ?appOpenTextFile@@YAPAU_object@@PAU1@0@Z 00453af0 f   PythonApplicationModule.obj
 0001:00052bf0       ?appCloseTextFile@@YAPAU_object@@PAU1@0@Z 00453bf0 f   PythonApplicationModule.obj
 0001:00052c40       ?appGetTextFileLineCount@@YAPAU_object@@PAU1@0@Z 00453c40 f   PythonApplicationModule.obj
 0001:00052c90       ?appGetTextFileLine@@YAPAU_object@@PAU1@0@Z 00453c90 f   PythonApplicationModule.obj
 0001:00052d10       ?appSetGuildMarkPath@@YAPAU_object@@PAU1@0@Z 00453d10 f   PythonApplicationModule.obj
 0001:00052de0       ?appLogoUpdate@@YAPAU_object@@PAU1@0@Z 00453de0 f   PythonApplicationModule.obj
 0001:00052de0       ?appIsDevStage@@YAPAU_object@@PAU1@0@Z 00453de0 f   PythonApplicationModule.obj
 0001:00052de0       ?appIsTestStage@@YAPAU_object@@PAU1@0@Z 00453de0 f   PythonApplicationModule.obj
 0001:00052e00       ?appIsLiveStage@@YAPAU_object@@PAU1@0@Z 00453e00 f   PythonApplicationModule.obj
 0001:00052e20       ?appLogoOpen@@YAPAU_object@@PAU1@0@Z 00453e20 f   PythonApplicationModule.obj
 0001:00052e70       ?appLogoClose@@YAPAU_object@@PAU1@0@Z 00453e70 f   PythonApplicationModule.obj
 0001:00052e70       ?wndMgrSetToggleSlot@@YAPAU_object@@PAU1@0@Z 00453e70 f   EterPythonLib:PythonWindowManagerModule.obj
 0001:00052e70       ?chrSetMoveSpeed@@YAPAU_object@@PAU1@0@Z 00453e70 f   PythonCharacterModule.obj
 0001:00052e70       ?grpSetColorRenderState@@YAPAU_object@@PAU1@0@Z 00453e70 f   EterPythonLib:PythonGraphicModule.obj
 0001:00052e70       ?backgroundRenderDungeon@@YAPAU_object@@PAU1@0@Z 00453e70 f   PythonBackgroundModule.obj
 0001:00052e70       ?playerRender@@YAPAU_object@@PAU1@0@Z 00453e70 f   PythonPlayerModule.obj
 0001:00052e70       ?wndMarkBox_Load@@YAPAU_object@@PAU1@0@Z 00453e70 f   EterPythonLib:PythonWindowManagerModule.obj
 0001:00052e70       ?playerStartMouseWalking@@YAPAU_object@@PAU1@0@Z 00453e70 f   PythonPlayerModule.obj
 0001:00052e70       ?chrSetAttackSpeed@@YAPAU_object@@PAU1@0@Z 00453e70 f   PythonCharacterModule.obj
 0001:00052e70       ?appLogoRender@@YAPAU_object@@PAU1@0@Z 00453e70 f   PythonApplicationModule.obj
 0001:00052e70       ?skillLoadSkillData@@YAPAU_object@@PAU1@0@Z 00453e70 f   PythonSkill.obj
 0001:00052e70       ?wndMarkBox_SetImage@@YAPAU_object@@PAU1@0@Z 00453e70 f   EterPythonLib:PythonWindowManagerModule.obj
 0001:00052e70       ?skillClearSkillData@@YAPAU_object@@PAU1@0@Z 00453e70 f   PythonSkill.obj
 0001:00052e70       ?playerEndMouseWalking@@YAPAU_object@@PAU1@0@Z 00453e70 f   PythonPlayerModule.obj
 0001:00052e90       ?initapp@@YAXXZ            00453e90 f   PythonApplicationModule.obj
 0001:00053550       ?SafeSetCapture@CPythonApplication@@QAEXXZ 00454550 f   PythonApplicationProcedure.obj
 0001:00053560       ?SafeReleaseCapture@CPythonApplication@@QAEXXZ 00454560 f   PythonApplicationProcedure.obj
 0001:00053570       ?__SetFullScreenWindow@CPythonApplication@@IAEXPAUHWND__@@KKK@Z 00454570 f   PythonApplicationProcedure.obj
 0001:000535e0       ?__MinimizeFullScreenWindow@CPythonApplication@@IAEXPAUHWND__@@KK@Z 004545e0 f   PythonApplicationProcedure.obj
 0001:00053620       ?WindowProcedure@CPythonApplication@@MAEJPAUHWND__@@IIJ@Z 00454620 f   PythonApplicationProcedure.obj
 0001:00053d20       ?IsWebPageMode@CPythonApplication@@QAE_NXZ 00454d20 f   PythonApplicationWebPage.obj
 0001:00053d30       ?ShowWebPage@CPythonApplication@@QAEXPBDABUtagRECT@@@Z 00454d30 f   PythonApplicationWebPage.obj
 0001:00053d90       ?MoveWebPage@CPythonApplication@@QAEXABUtagRECT@@@Z 00454d90 f   PythonApplicationWebPage.obj
 0001:00053dc0       ?HideWebPage@CPythonApplication@@QAEXXZ 00454dc0 f   PythonApplicationWebPage.obj
 0001:00053e00       ?GetRenderShadowTime@CPythonBackground@@QAEKXZ 00454e00 f   PythonBackground.obj
 0001:00053e10       ?SetVisiblePart@CPythonBackground@@QAE_NH_N@Z 00454e10 f   PythonBackground.obj
 0001:00053e40       ?EnableTerrainOnlyForHeight@CPythonBackground@@QAEXXZ 00454e40 f   PythonBackground.obj
 0001:00053e60       ?SetSplatLimit@CPythonBackground@@QAE_NH@Z 00454e60 f   PythonBackground.obj
 0001:00053e90       ?CreateCharacterShadowTexture@CPythonBackground@@QAEXXZ 00454e90 f   PythonBackground.obj
 0001:00053eb0       ?ReleaseCharacterShadowTexture@CPythonBackground@@QAEXXZ 00454eb0 f   PythonBackground.obj
 0001:00053ed0       ?RefreshShadowLevel@CPythonBackground@@QAEXXZ 00454ed0 f   PythonBackground.obj
 0001:00053ef0       ?SetShadowLevel@CPythonBackground@@QAE_NH@Z 00454ef0 f   PythonBackground.obj
 0001:00054010       ?SelectViewDistanceNum@CPythonBackground@@QAEXH@Z 00455010 f   PythonBackground.obj
 0001:000540c0       ?SetViewDistanceSet@CPythonBackground@@QAEXHM@Z 004550c0 f   PythonBackground.obj
 0001:00054150       ?GetFarClip@CPythonBackground@@QAEMXZ 00455150 f   PythonBackground.obj
 0001:000541c0       ?GetDistanceSetInfo@CPythonBackground@@QAEXPAHPAM11@Z 004551c0 f   PythonBackground.obj
 0001:00054230       ??0CPythonBackground@@QAE@XZ 00455230 f   PythonBackground.obj
 0001:000544d0       ??_ECPythonBackground@@UAEPAXI@Z 004554d0 f i * CIL library *:* CIL module *
 0001:000544d0       ??_GCPythonBackground@@UAEPAXI@Z 004554d0 f i PythonBackground.obj
 0001:00054500       ??1?$set@V?$basic_string@DU?$char_traits@D@std@@V?$allocator@D@2@@std@@U?$less@V?$basic_string@DU?$char_traits@D@std@@V?$allocator@D@2@@std@@@2@V?$allocator@V?$basic_string@DU?$char_traits@D@std@@V?$allocator@D@2@@std@@@2@@std@@QAE@XZ 00455500 f i PythonBackground.obj
 0001:00054520       ??1?$map@KUSReserveTargetEffect@CPythonBackground@@U?$less@K@std@@V?$allocator@U?$pair@$$CBKUSReserveTargetEffect@CPythonBackground@@@std@@@4@@std@@QAE@XZ 00455520 f i PythonBackground.obj
 0001:00054540       ??1CPythonBackground@@UAE@XZ 00455540 f   PythonBackground.obj
 0001:00054690       ?Initialize@CPythonBackground@@QAEXXZ 00455690 f   PythonBackground.obj
 0001:00054770       ?__CreateProperty@CPythonBackground@@IAEXXZ 00455770 f   PythonBackground.obj
 0001:00054840       ?GetPickingPoint@CPythonBackground@@QAE_NPAUD3DXVECTOR3@@@Z 00455840 f   PythonBackground.obj
 0001:00054850       ?GetPickingPointWithRayOnlyTerrain@CPythonBackground@@QAE_NABVCRay@@PAUD3DXVECTOR3@@@Z 00455850 f   PythonBackground.obj
 0001:00054860       ?Destroy@CPythonBackground@@QAEXXZ 00455860 f   PythonBackground.obj
 0001:00054880       ?Create@CPythonBackground@@QAEXXZ 00455880 f   PythonBackground.obj
 0001:000548b0       ??RFGetPortalID@@QAEXPAVCGraphicObjectInstance@@@Z 004558b0 f i PythonBackground.obj
 0001:000549f0       ?Update@CPythonBackground@@QAEXMMM@Z 004559f0 f   PythonBackground.obj
 0001:00054ee0       ??1FGetPortalID@@QAE@XZ    00455ee0 f i PythonBackground.obj
 0001:00054f00       ?__IsSame@CPythonBackground@@IAE_NAAV?$set@HU?$less@H@std@@V?$allocator@H@2@@std@@0@Z 00455f00 f   PythonBackground.obj
 0001:00055070       ?Render@CPythonBackground@@QAEXXZ 00456070 f   PythonBackground.obj
 0001:000550b0       ?RenderSnow@CPythonBackground@@QAEXXZ 004560b0 f   PythonBackground.obj
 0001:000550c0       ?RenderPCBlocker@CPythonBackground@@QAEXXZ 004560c0 f   PythonBackground.obj
 0001:000550e0       ?RenderCollision@CPythonBackground@@QAEXXZ 004560e0 f   PythonBackground.obj
 0001:00055100       ?RenderCharacterShadowToTexture@CPythonBackground@@QAEXXZ 00456100 f   PythonBackground.obj
 0001:000551e0       ?CheckAdvancing@CPythonBackground@@QAE_NPAVCInstanceBase@@@Z 004561e0 f   PythonBackground.obj
 0001:00055310       ?RenderSky@CPythonBackground@@QAEXXZ 00456310 f   PythonBackground.obj
 0001:00055330       ?RenderCloud@CPythonBackground@@QAEXXZ 00456330 f   PythonBackground.obj
 0001:00055350       ?RenderWater@CPythonBackground@@QAEXXZ 00456350 f   PythonBackground.obj
 0001:00055370       ?RenderEffect@CPythonBackground@@QAEXXZ 00456370 f   PythonBackground.obj
 0001:00055390       ?RenderBeforeLensFlare@CPythonBackground@@QAEXXZ 00456390 f   PythonBackground.obj
 0001:000553b0       ?RenderAfterLensFlare@CPythonBackground@@QAEXXZ 004563b0 f   PythonBackground.obj
 0001:000553d0       ?ClearGuildArea@CPythonBackground@@QAEXXZ 004563d0 f   PythonBackground.obj
 0001:000553f0       ?RegisterGuildArea@CPythonBackground@@QAEXHHHH@Z 004563f0 f   PythonBackground.obj
 0001:00055420       ?SetCharacterDirLight@CPythonBackground@@QAEXXZ 00456420 f   PythonBackground.obj
 0001:00055450       ?SetBackgroundDirLight@CPythonBackground@@QAEXXZ 00456450 f   PythonBackground.obj
 0001:00055480       ?GlobalPositionToLocalPosition@CPythonBackground@@QAEXAAJ0@Z 00456480 f   PythonBackground.obj
 0001:000554a0       ?LocalPositionToGlobalPosition@CPythonBackground@@QAEXAAJ0@Z 004564a0 f   PythonBackground.obj
 0001:000554c0       ?RegisterDungeonMapName@CPythonBackground@@QAEXPBD@Z 004564c0 f   PythonBackground.obj
 0001:00055570       ?GlobalPositionToMapInfo@CPythonBackground@@QAEPAUTMapInfo@CMapManager@@KK@Z 00456570 f   PythonBackground.obj
 0001:000555c0       ?Warp@CPythonBackground@@QAEXKK@Z 004565c0 f   PythonBackground.obj
 0001:00055780       ?VisibleGuildArea@CPythonBackground@@QAEXXZ 00456780 f   PythonBackground.obj
 0001:000557b0       ?DisableGuildArea@CPythonBackground@@QAEXXZ 004567b0 f   PythonBackground.obj
 0001:000557e0       ?GetWarpMapName@CPythonBackground@@QAEPBDXZ 004567e0 f   PythonBackground.obj
 0001:00055800       ?EnableSnowEnvironment@CPythonBackground@@QAEXXZ 00456800 f   PythonBackground.obj
 0001:00055810       ?DisableSnowEnvironment@CPythonBackground@@QAEXXZ 00456810 f   PythonBackground.obj
 0001:00055820       ?SetXMaxTree@CPythonBackground@@QAEXH@Z 00456820 f   PythonBackground.obj
 0001:00055af0       ?CreateTargetEffect@CPythonBackground@@QAEXKK@Z 00456af0 f   PythonBackground.obj
 0001:00055b20       ?CreateTargetEffect@CPythonBackground@@QAEXKJJ@Z 00456b20 f   PythonBackground.obj
 0001:00055d00       ?DeleteTargetEffect@CPythonBackground@@QAEXK@Z 00456d00 f   PythonBackground.obj
 0001:00055d90       ?CreateSpecialEffect@CPythonBackground@@QAEXKMMMPBD@Z 00456d90 f   PythonBackground.obj
 0001:00055de0       ?DeleteSpecialEffect@CPythonBackground@@QAEXK@Z 00456de0 f   PythonBackground.obj
 0001:00055df0       ?erase@?$_Tree@V?$_Tmap_traits@KUSReserveTargetEffect@CPythonBackground@@U?$less@K@std@@V?$allocator@U?$pair@$$CBKUSReserveTargetEffect@CPythonBackground@@@std@@@4@$0A@@std@@@std@@QAEIABK@Z 00456df0 f i PythonBackground.obj
 0001:00055fc0       ?erase@?$_Tree@V?$_Tmap_traits@KKU?$less@K@std@@V?$allocator@U?$pair@$$CBKK@std@@@2@$0A@@std@@@std@@QAEIABK@Z 00456fc0 f i PythonBackground.obj
 0001:00056100       ??1?$CSingleton@VCPythonBackground@@@@UAE@XZ 00457100 f i PythonBackground.obj
 0001:00056120       ??_G?$CSingleton@VCPythonBackground@@@@UAEPAXI@Z 00457120 f i PythonBackground.obj
 0001:00056120       ??_E?$CSingleton@VCPythonBackground@@@@UAEPAXI@Z 00457120 f i * CIL library *:* CIL module *
 0001:00056150       ??$insert@$0A@$0A@@?$_Tree@V?$_Tset_traits@V?$basic_string@DU?$char_traits@D@std@@V?$allocator@D@2@@std@@U?$less@V?$basic_string@DU?$char_traits@D@std@@V?$allocator@D@2@@std@@@2@V?$allocator@V?$basic_string@DU?$char_traits@D@std@@V?$allocator@D@2@@std@@@2@$0A@@std@@@std@@QAE?AU?$pair@V?$_Tree_const_iterator@V?$_Tree_val@U?$_Tree_simple_types@V?$basic_string@DU?$char_traits@D@std@@V?$allocator@D@2@@std@@@std@@@std@@@std@@_N@1@$$QAV?$basic_string@DU?$char_traits@D@std@@V?$allocator@D@2@@1@@Z 00457150 f i PythonBackground.obj
 0001:00056290       ??$?9DU?$char_traits@D@std@@V?$allocator@D@1@@std@@YA_NQBDABV?$basic_string@DU?$char_traits@D@std@@V?$allocator@D@2@@0@@Z 00457290 f i PythonBackground.obj
 0001:000562b0       ??$_Erase_tree@V?$allocator@U?$_Tree_node@U?$pair@$$CBKUSReserveTargetEffect@CPythonBackground@@@std@@PAX@std@@@std@@@?$_Tree_val@U?$_Tree_simple_types@U?$pair@$$CBKUSReserveTargetEffect@CPythonBackground@@@std@@@std@@@std@@QAEXAAV?$allocator@U?$_Tree_node@U?$pair@$$CBKUSReserveTargetEffect@CPythonBackground@@@std@@PAX@std@@@1@PAU?$_Tree_node@U?$pair@$$CBKUSReserveTargetEffect@CPythonBackground@@@std@@PAX@1@@Z 004572b0 f i PythonBackground.obj
 0001:000562b0       ??$_Erase_tree@V?$allocator@U?$_Tree_node@U?$pair@$$CBKUSIndexFlyData@CFlyingManager@@@std@@PAX@std@@@std@@@?$_Tree_val@U?$_Tree_simple_types@U?$pair@$$CBKUSIndexFlyData@CFlyingManager@@@std@@@std@@@std@@QAEXAAV?$allocator@U?$_Tree_node@U?$pair@$$CBKUSIndexFlyData@CFlyingManager@@@std@@PAX@std@@@1@PAU?$_Tree_node@U?$pair@$$CBKUSIndexFlyData@CFlyingManager@@@std@@PAX@1@@Z 004572b0 f i GameLib:FlyingObjectManager.obj
 0001:000562b0       ??$_Erase_tree@V?$allocator@U?$_Tree_node@U?$pair@$$CBHUSPacketType@CNetworkPacketHeaderMap@@@std@@PAX@std@@@std@@@?$_Tree_val@U?$_Tree_simple_types@U?$pair@$$CBHUSPacketType@CNetworkPacketHeaderMap@@@std@@@std@@@std@@QAEXAAV?$allocator@U?$_Tree_node@U?$pair@$$CBHUSPacketType@CNetworkPacketHeaderMap@@@std@@PAX@std@@@1@PAU?$_Tree_node@U?$pair@$$CBHUSPacketType@CNetworkPacketHeaderMap@@@std@@PAX@1@@Z 004572b0 f i EterLib:NetPacketHeaderMap.obj
 0001:000562f0       ?PointTest2dCallback@?$RangeTester@UCollisionChecker@@@@UAEXABVVector3d@@PAVSpherePack@@W4ViewState@@@Z 004572f0 f i PythonBackground.obj
 0001:00056330       ?RangeTestCallback@?$RangeTester@UCollisionChecker@@@@UAEXABVVector3d@@MPAVSpherePack@@W4ViewState@@@Z 00457330 f i PythonBackground.obj
 0001:00056370       ?RayTraceCallback@?$RangeTester@UCollisionChecker@@@@UAEXABVVector3d@@0M0PAVSpherePack@@@Z 00457370 f i PythonBackground.obj
 0001:000563b0       ?PointTest2dCallback@?$RangeTester@UCollisionAdjustChecker@@@@UAEXABVVector3d@@PAVSpherePack@@W4ViewState@@@Z 004573b0 f i PythonBackground.obj
 0001:000563e0       ?RangeTestCallback@?$RangeTester@UCollisionAdjustChecker@@@@UAEXABVVector3d@@MPAVSpherePack@@W4ViewState@@@Z 004573e0 f i PythonBackground.obj
 0001:00056410       ?RayTraceCallback@?$RangeTester@UCollisionAdjustChecker@@@@UAEXABVVector3d@@0M0PAVSpherePack@@@Z 00457410 f i PythonBackground.obj
 0001:00056450       ?PointTest2dCallback@?$RangeTester@UFGetPortalID@@@@UAEXABVVector3d@@PAVSpherePack@@W4ViewState@@@Z 00457450 f i PythonBackground.obj
 0001:00056470       ?RangeTestCallback@?$RangeTester@UFGetPortalID@@@@UAEXABVVector3d@@MPAVSpherePack@@W4ViewState@@@Z 00457470 f i PythonBackground.obj
 0001:00056490       ?RayTraceCallback@?$RangeTester@UFGetPortalID@@@@UAEXABVVector3d@@0M0PAVSpherePack@@@Z 00457490 f i PythonBackground.obj
 0001:000564c0       ??_E?$RangeTester@UFCheckAnotherMonsterDuringFlying@@@@UAEPAXI@Z 004574c0 f i GameLib:FlyingInstance.obj
 0001:000564c0       ??_G?$RangeTester@UFCheckBackgroundDuringFlying@@@@UAEPAXI@Z 004574c0 f i GameLib:FlyingInstance.obj
 0001:000564c0       ??_G?$RangeTester@UFGetObjectHeight@@@@UAEPAXI@Z 004574c0 f i GameLib:MapOutdoor.obj
 0001:000564c0       ??_E?$RangeTester@UCollisionAdjustChecker@@@@UAEPAXI@Z 004574c0 f i * CIL library *:* CIL module *
 0001:000564c0       ??_G?$RangeTester@UFCheckAnotherMonsterDuringFlying@@@@UAEPAXI@Z 004574c0 f i GameLib:FlyingInstance.obj
 0001:000564c0       ??_E?$RangeTester@UFCheckBackgroundDuringFlying@@@@UAEPAXI@Z 004574c0 f i GameLib:FlyingInstance.obj
 0001:000564c0       ??_E?$RangeTester@UFGetShadowReceiverFromCollisionData@@@@UAEPAXI@Z 004574c0 f i GameLib:MapOutdoorUpdate.obj
 0001:000564c0       ??_G?$RangeTester@UFGetShadowReceiverFromCollisionData@@@@UAEPAXI@Z 004574c0 f i GameLib:MapOutdoorUpdate.obj
 0001:000564c0       ??_G?$RangeTester@UCollisionAdjustChecker@@@@UAEPAXI@Z 004574c0 f i PythonBackground.obj
 0001:000564c0       ??_G?$RangeTester@UCollisionChecker@@@@UAEPAXI@Z 004574c0 f i PythonBackground.obj
 0001:000564c0       ??_G?$RangeTester@UPCBlocker_SInstanceList@@@@UAEPAXI@Z 004574c0 f i GameLib:MapOutdoorUpdate.obj
 0001:000564c0       ??_G?$RangeTester@UFGetPickingPoint@@@@UAEPAXI@Z 004574c0 f i GameLib:MapOutdoor.obj
 0001:000564c0       ??_E?$RangeTester@UFGetObjectHeight@@@@UAEPAXI@Z 004574c0 f i GameLib:MapOutdoor.obj
 0001:000564c0       ??_G?$RangeTester@UFGetPortalID@@@@UAEPAXI@Z 004574c0 f i PythonBackground.obj
 0001:000564c0       ??_E?$RangeTester@UPCBlocker_SInstanceList@@@@UAEPAXI@Z 004574c0 f i GameLib:MapOutdoorUpdate.obj
 0001:000564c0       ??_G?$RangeTester@UFGetShadowReceiverFromHeightData@@@@UAEPAXI@Z 004574c0 f i GameLib:MapOutdoorUpdate.obj
 0001:000564c0       ??_E?$RangeTester@UFGetShadowReceiverFromHeightData@@@@UAEPAXI@Z 004574c0 f i GameLib:MapOutdoorUpdate.obj
 0001:000564c0       ??_E?$RangeTester@UFGetPickingPoint@@@@UAEPAXI@Z 004574c0 f i GameLib:MapOutdoor.obj
 0001:000564c0       ??_E?$RangeTester@UCollisionChecker@@@@UAEPAXI@Z 004574c0 f i * CIL library *:* CIL module *
 0001:000564c0       ??_E?$RangeTester@UFGetPortalID@@@@UAEPAXI@Z 004574c0 f i * CIL library *:* CIL module *
 0001:000564f0       ??$?8DU?$char_traits@D@std@@V?$allocator@D@1@@std@@YA_NQBDABV?$basic_string@DU?$char_traits@D@std@@V?$allocator@D@2@@0@@Z 004574f0 f i PythonBackground.obj
 0001:00056500       ??$_Find_lower_bound@V?$basic_string@DU?$char_traits@D@std@@V?$allocator@D@2@@std@@@?$_Tree@V?$_Tmap_traits@V?$basic_string@DU?$char_traits@D@std@@V?$allocator@D@2@@std@@P6APAVCResource@@PBD@ZU?$less@V?$basic_string@DU?$char_traits@D@std@@V?$allocator@D@2@@std@@@2@V?$allocator@U?$pair@$$CBV?$basic_string@DU?$char_traits@D@std@@V?$allocator@D@2@@std@@P6APAVCResource@@PBD@Z@std@@@2@$0A@@std@@@std@@IBE?AU?$_Tree_find_result@PAU?$_Tree_node@U?$pair@$$CBV?$basic_string@DU?$char_traits@D@std@@V?$allocator@D@2@@std@@P6APAVCResource@@PBD@Z@std@@PAX@std@@@1@ABV?$basic_string@DU?$char_traits@D@std@@V?$allocator@D@2@@1@@Z 00457500 f i EterLib:ResourceManager.obj
 0001:00056500       ??$_Find_lower_bound@V?$basic_string@DU?$char_traits@D@std@@V?$allocator@D@2@@std@@@?$_Tree@V?$_Tmap_traits@V?$basic_string@DU?$char_traits@D@std@@V?$allocator@D@2@@std@@KU?$less@V?$basic_string@DU?$char_traits@D@std@@V?$allocator@D@2@@std@@@2@V?$allocator@U?$pair@$$CBV?$basic_string@DU?$char_traits@D@std@@V?$allocator@D@2@@std@@K@std@@@2@$0A@@std@@@std@@IBE?AU?$_Tree_find_result@PAU?$_Tree_node@U?$pair@$$CBV?$basic_string@DU?$char_traits@D@std@@V?$allocator@D@2@@std@@K@std@@PAX@std@@@1@ABV?$basic_string@DU?$char_traits@D@std@@V?$allocator@D@2@@1@@Z 00457500 f i PythonSkill.obj
 0001:00056500       ??$_Find_lower_bound@V?$basic_string@DU?$char_traits@D@std@@V?$allocator@D@2@@std@@@?$_Tree@V?$_Tmap_traits@V?$basic_string@DU?$char_traits@D@std@@V?$allocator@D@2@@std@@EU?$less@V?$basic_string@DU?$char_traits@D@std@@V?$allocator@D@2@@std@@@2@V?$allocator@U?$pair@$$CBV?$basic_string@DU?$char_traits@D@std@@V?$allocator@D@2@@std@@E@std@@@2@$0A@@std@@@std@@IBE?AU?$_Tree_find_result@PAU?$_Tree_node@U?$pair@$$CBV?$basic_string@DU?$char_traits@D@std@@V?$allocator@D@2@@std@@E@std@@PAX@std@@@1@ABV?$basic_string@DU?$char_traits@D@std@@V?$allocator@D@2@@1@@Z 00457500 f i PythonMessenger.obj
 0001:00056500       ??$_Find_lower_bound@V?$basic_string@DU?$char_traits@D@std@@V?$allocator@D@2@@std@@@?$_Tree@V?$_Tmap_traits@V?$basic_string@DU?$char_traits@D@std@@V?$allocator@D@2@@std@@MU?$less@V?$basic_string@DU?$char_traits@D@std@@V?$allocator@D@2@@std@@@2@V?$allocator@U?$pair@$$CBV?$basic_string@DU?$char_traits@D@std@@V?$allocator@D@2@@std@@M@std@@@2@$0A@@std@@@std@@IBE?AU?$_Tree_find_result@PAU?$_Tree_node@U?$pair@$$CBV?$basic_string@DU?$char_traits@D@std@@V?$allocator@D@2@@std@@M@std@@PAX@std@@@1@ABV?$basic_string@DU?$char_traits@D@std@@V?$allocator@D@2@@1@@Z 00457500 f i MilesLib:SoundManager.obj
 0001:00056500       ??$_Find_lower_bound@V?$basic_string@DU?$char_traits@D@std@@V?$allocator@D@2@@std@@@?$_Tree@V?$_Tmap_traits@V?$basic_string@DU?$char_traits@D@std@@V?$allocator@D@2@@std@@PAVCGraphicImageInstance@@U?$less@V?$basic_string@DU?$char_traits@D@std@@V?$allocator@D@2@@std@@@2@V?$allocator@U?$pair@$$CBV?$basic_string@DU?$char_traits@D@std@@V?$allocator@D@2@@std@@PAVCGraphicImageInstance@@@std@@@2@$0A@@std@@@std@@IBE?AU?$_Tree_find_result@PAU?$_Tree_node@U?$pair@$$CBV?$basic_string@DU?$char_traits@D@std@@V?$allocator@D@2@@std@@PAVCGraphicImageInstance@@@std@@PAX@std@@@1@ABV?$basic_string@DU?$char_traits@D@std@@V?$allocator@D@2@@1@@Z 00457500 f i EterLib:SkyBox.obj
 0001:00056500       ??$_Find_lower_bound@V?$basic_string@DU?$char_traits@D@std@@V?$allocator@D@2@@std@@@?$_Tree@V?$_Tmap_traits@V?$basic_string@DU?$char_traits@D@std@@V?$allocator@D@2@@std@@PAVCWhisper@@U?$less@V?$basic_string@DU?$char_traits@D@std@@V?$allocator@D@2@@std@@@2@V?$allocator@U?$pair@$$CBV?$basic_string@DU?$char_traits@D@std@@V?$allocator@D@2@@std@@PAVCWhisper@@@std@@@2@$0A@@std@@@std@@IBE?AU?$_Tree_find_result@PAU?$_Tree_node@U?$pair@$$CBV?$basic_string@DU?$char_traits@D@std@@V?$allocator@D@2@@std@@PAVCWhisper@@@std@@PAX@std@@@1@ABV?$basic_string@DU?$char_traits@D@std@@V?$allocator@D@2@@1@@Z 00457500 f i PythonChat.obj
 0001:00056500       ??$_Find_lower_bound@V?$basic_string@DU?$char_traits@D@std@@V?$allocator@D@2@@std@@@?$_Tree@V?$_Tmap_traits@V?$basic_string@DU?$char_traits@D@std@@V?$allocator@D@2@@std@@HU?$less@V?$basic_string@DU?$char_traits@D@std@@V?$allocator@D@2@@std@@@2@V?$allocator@U?$pair@$$CBV?$basic_string@DU?$char_traits@D@std@@V?$allocator@D@2@@std@@H@std@@@2@$0A@@std@@@std@@IBE?AU?$_Tree_find_result@PAU?$_Tree_node@U?$pair@$$CBV?$basic_string@DU?$char_traits@D@std@@V?$allocator@D@2@@std@@H@std@@PAX@std@@@1@ABV?$basic_string@DU?$char_traits@D@std@@V?$allocator@D@2@@1@@Z 00457500 f i PythonEventManager.obj
 0001:00056500       ??$_Find_lower_bound@V?$basic_string@DU?$char_traits@D@std@@V?$allocator@D@2@@std@@@?$_Tree@V?$_Tmap_traits@V?$basic_string@DU?$char_traits@D@std@@V?$allocator@D@2@@std@@V?$vector@V?$basic_string@DU?$char_traits@D@std@@V?$allocator@D@2@@std@@V?$allocator@V?$basic_string@DU?$char_traits@D@std@@V?$allocator@D@2@@std@@@2@@2@U?$less@V?$basic_string@DU?$char_traits@D@std@@V?$allocator@D@2@@std@@@2@V?$allocator@U?$pair@$$CBV?$basic_string@DU?$char_traits@D@std@@V?$allocator@D@2@@std@@V?$vector@V?$basic_string@DU?$char_traits@D@std@@V?$allocator@D@2@@std@@V?$allocator@V?$basic_string@DU?$char_traits@D@std@@V?$allocator@D@2@@std@@@2@@2@@std@@@2@$0A@@std@@@std@@IBE?AU?$_Tree_find_result@PAU?$_Tree_node@U?$pair@$$CBV?$basic_string@DU?$char_traits@D@std@@V?$allocator@D@2@@std@@V?$vector@V?$basic_string@DU?$char_traits@D@std@@V?$allocator@D@2@@std@@V?$allocator@V?$basic_string@DU?$char_traits@D@std@@V?$allocator@D@2@@std@@@2@@2@@std@@PAX@std@@@1@ABV?$basic_string@DU?$char_traits@D@std@@V?$allocator@D@2@@1@@Z 00457500 f i PythonMiniMap.obj
 0001:00056500       ??$_Find_lower_bound@V?$basic_string@DU?$char_traits@D@std@@V?$allocator@D@2@@std@@@?$_Tree@V?$_Tset_traits@V?$basic_string@DU?$char_traits@D@std@@V?$allocator@D@2@@std@@U?$less@V?$basic_string@DU?$char_traits@D@std@@V?$allocator@D@2@@std@@@2@V?$allocator@V?$basic_string@DU?$char_traits@D@std@@V?$allocator@D@2@@std@@@2@$0A@@std@@@std@@IBE?AU?$_Tree_find_result@PAU?$_Tree_node@V?$basic_string@DU?$char_traits@D@std@@V?$allocator@D@2@@std@@PAX@std@@@1@ABV?$basic_string@DU?$char_traits@D@std@@V?$allocator@D@2@@1@@Z 00457500 f i PythonBackground.obj
 0001:00056500       ??$_Find_lower_bound@V?$basic_string@DU?$char_traits@D@std@@V?$allocator@D@2@@std@@@?$_Tree@V?$_Tmap_traits@V?$basic_string@DU?$char_traits@D@std@@V?$allocator@D@2@@std@@PAVCWindow@UI@@U?$less@V?$basic_string@DU?$char_traits@D@std@@V?$allocator@D@2@@std@@@2@V?$allocator@U?$pair@$$CBV?$basic_string@DU?$char_traits@D@std@@V?$allocator@D@2@@std@@PAVCWindow@UI@@@std@@@2@$0A@@std@@@std@@IBE?AU?$_Tree_find_result@PAU?$_Tree_node@U?$pair@$$CBV?$basic_string@DU?$char_traits@D@std@@V?$allocator@D@2@@std@@PAVCWindow@UI@@@std@@PAX@std@@@1@ABV?$basic_string@DU?$char_traits@D@std@@V?$allocator@D@2@@1@@Z 00457500 f i EterPythonLib:PythonWindowManager.obj
 0001:00056500       ??$_Find_lower_bound@V?$basic_string@DU?$char_traits@D@std@@V?$allocator@D@2@@std@@@?$_Tree@V?$_Tmap_traits@V?$basic_string@DU?$char_traits@D@std@@V?$allocator@D@2@@std@@V12@U?$less@V?$basic_string@DU?$char_traits@D@std@@V?$allocator@D@2@@std@@@2@V?$allocator@U?$pair@$$CBV?$basic_string@DU?$char_traits@D@std@@V?$allocator@D@2@@std@@V12@@std@@@2@$0A@@std@@@std@@IBE?AU?$_Tree_find_result@PAU?$_Tree_node@U?$pair@$$CBV?$basic_string@DU?$char_traits@D@std@@V?$allocator@D@2@@std@@V12@@std@@PAX@std@@@1@ABV?$basic_string@DU?$char_traits@D@std@@V?$allocator@D@2@@1@@Z 00457500 f i PythonSkill.obj
 0001:00056560       ??$_Erase_tree@V?$allocator@U?$_Tree_node@V?$basic_string@DU?$char_traits@D@std@@V?$allocator@D@2@@std@@PAX@std@@@std@@@?$_Tree_val@U?$_Tree_simple_types@V?$basic_string@DU?$char_traits@D@std@@V?$allocator@D@2@@std@@@std@@@std@@QAEXAAV?$allocator@U?$_Tree_node@V?$basic_string@DU?$char_traits@D@std@@V?$allocator@D@2@@std@@PAX@std@@@1@PAU?$_Tree_node@V?$basic_string@DU?$char_traits@D@std@@V?$allocator@D@2@@std@@PAX@1@@Z 00457560 f i PythonBackground.obj
 0001:000565d0       ??$_Find_lower_bound@H@?$_Tree@V?$_Tmap_traits@HUSPacketType@CNetworkPacketHeaderMap@@U?$less@H@std@@V?$allocator@U?$pair@$$CBHUSPacketType@CNetworkPacketHeaderMap@@@std@@@4@$0A@@std@@@std@@IBE?AU?$_Tree_find_result@PAU?$_Tree_node@U?$pair@$$CBHUSPacketType@CNetworkPacketHeaderMap@@@std@@PAX@std@@@1@ABH@Z 004575d0 f i EterLib:NetPacketHeaderMap.obj
 0001:000565d0       ??$_Find_lower_bound@H@?$_Tree@V?$_Tmap_traits@HPAEU?$less@H@std@@V?$allocator@U?$pair@$$CBHPAE@std@@@2@$0A@@std@@@std@@IBE?AU?$_Tree_find_result@PAU?$_Tree_node@U?$pair@$$CBHPAE@std@@PAX@std@@@1@ABH@Z 004575d0 f i GameLib:MapOutdoor.obj
 0001:000565d0       ??$_Find_lower_bound@H@?$_Tree@V?$_Tset_traits@HU?$less@H@std@@V?$allocator@H@2@$0A@@std@@@std@@IBE?AU?$_Tree_find_result@PAU?$_Tree_node@HPAX@std@@@1@ABH@Z 004575d0 f i PythonBackground.obj
 0001:000565d0       ??$_Find_lower_bound@H@?$_Tree@V?$_Tmap_traits@HP6APAVCResource@@PBD@ZU?$less@H@std@@V?$allocator@U?$pair@$$CBHP6APAVCResource@@PBD@Z@std@@@3@$0A@@std@@@std@@IBE?AU?$_Tree_find_result@PAU?$_Tree_node@U?$pair@$$CBHP6APAVCResource@@PBD@Z@std@@PAX@std@@@1@ABH@Z 004575d0 f i EterLib:ResourceManager.obj
 0001:000565d0       ??$_Find_lower_bound@H@?$_Tree@V?$_Tmap_traits@HPAVCWindow@UI@@U?$less@H@std@@V?$allocator@U?$pair@$$CBHPAVCWindow@UI@@@std@@@4@$0A@@std@@@std@@IBE?AU?$_Tree_find_result@PAU?$_Tree_node@U?$pair@$$CBHPAVCWindow@UI@@@std@@PAX@std@@@1@ABH@Z 004575d0 f i EterPythonLib:PythonWindowManager.obj
 0001:00056620       ??$_Copy_nodes@U_Copy_tag@?$_Tree@V?$_Tset_traits@HU?$less@H@std@@V?$allocator@H@2@$0A@@std@@@std@@@?$_Tree@V?$_Tset_traits@HU?$less@H@std@@V?$allocator@H@2@$0A@@std@@@std@@IAEPAU?$_Tree_node@HPAX@1@PAU21@0U_Copy_tag@01@@Z 00457620 f i PythonBackground.obj
 0001:00056730       ??1?$_Alloc_construct_ptr@V?$allocator@U?$_Tree_node@V?$basic_string@DU?$char_traits@D@std@@V?$allocator@D@2@@std@@PAX@std@@@std@@@std@@QAE@XZ 00457730 f i PythonBackground.obj
 0001:00056730       ??1?$_Alloc_construct_ptr@V?$allocator@U?$_List_node@USWaitChat@CPythonChat@@PAX@std@@@std@@@std@@QAE@XZ 00457730 f i PythonChat.obj
 0001:00056730       ??1?$_Alloc_construct_ptr@V?$allocator@U?$_List_node@USCmd@script@@PAX@std@@@std@@@std@@QAE@XZ 00457730 f i EterLib:parser.obj
 0001:00056750       ??$?MDU?$char_traits@D@std@@V?$allocator@D@1@@std@@YA_NABV?$basic_string@DU?$char_traits@D@std@@V?$allocator@D@2@@0@0@Z 00457750 f i PythonBackground.obj
 0001:00056790       ??1?$_Alloc_construct_ptr@V?$allocator@U?$_Tree_node@U?$pair@$$CBKUSReserveTargetEffect@CPythonBackground@@@std@@PAX@std@@@std@@@std@@QAE@XZ 00457790 f i PythonBackground.obj
 0001:00056790       ??1?$_Alloc_construct_ptr@V?$allocator@U?$_Tree_node@U?$pair@$$CBKUSIndexFlyData@CFlyingManager@@@std@@PAX@std@@@std@@@std@@QAE@XZ 00457790 f i GameLib:FlyingObjectManager.obj
 0001:00056790       ??1?$_Tree_temp_node_alloc@V?$allocator@U?$_Tree_node@U?$pair@QBUSHitData@NRaceData@@V?$map@PAVCActorInstance@@MU?$less@PAVCActorInstance@@@std@@V?$allocator@U?$pair@QAVCActorInstance@@M@std@@@3@@std@@@std@@PAX@std@@@std@@@std@@QAE@XZ 00457790 f i GameLib:ActorInstanceCollisionDetection.obj
 0001:00056790       ??1?$_Alloc_construct_ptr@V?$allocator@U?$_Tree_node@U?$pair@QBUSHitData@NRaceData@@V?$map@PAVCActorInstance@@MU?$less@PAVCActorInstance@@@std@@V?$allocator@U?$pair@QAVCActorInstance@@M@std@@@3@@std@@@std@@PAX@std@@@std@@@std@@QAE@XZ 00457790 f i GameLib:ActorInstanceCollisionDetection.obj
 0001:00056790       ??1?$_Alloc_construct_ptr@V?$allocator@U?$_Tree_node@U?$pair@$$CBHUSPacketType@CNetworkPacketHeaderMap@@@std@@PAX@std@@@std@@@std@@QAE@XZ 00457790 f i EterLib:NetPacketHeaderMap.obj
 0001:000567a3       ??_ECPythonBackground@@W3AEPAXI@Z 004577a3 f i PythonBackground.obj
 0001:000567ab       ??_ECPythonBackground@@WBEMA@AEPAXI@Z 004577ab f i PythonBackground.obj
 0001:000567c0       ?backgroundIsSoftwareTiling@@YAPAU_object@@PAU1@0@Z 004577c0 f   PythonBackgroundModule.obj
 0001:000567e0       ?backgroundEnableSoftwareTiling@@YAPAU_object@@PAU1@0@Z 004577e0 f   PythonBackgroundModule.obj
 0001:00056840       ?backgroundEnableSnow@@YAPAU_object@@PAU1@0@Z 00457840 f   PythonBackgroundModule.obj
 0001:00056890       ?backgroundLoadMap@@YAPAU_object@@PAU1@0@Z 00457890 f   PythonBackgroundModule.obj
 0001:000569d0       ?backgroundDestroy@@YAPAU_object@@PAU1@0@Z 004579d0 f   PythonBackgroundModule.obj
 0001:000569f0       ?backgroundRegisterEnvironmentData@@YAPAU_object@@PAU1@0@Z 004579f0 f   PythonBackgroundModule.obj
 0001:00056a60       ?backgroundSetEnvironmentData@@YAPAU_object@@PAU1@0@Z 00457a60 f   PythonBackgroundModule.obj
 0001:00056ac0       ?backgroundGetCurrentMapName@@YAPAU_object@@PAU1@0@Z 00457ac0 f   PythonBackgroundModule.obj
 0001:00056ae0       ?backgroundGetPickingPoint@@YAPAU_object@@PAU1@0@Z 00457ae0 f   PythonBackgroundModule.obj
 0001:00056b80       ?backgroundBeginEnvironment@@YAPAU_object@@PAU1@0@Z 00457b80 f   PythonBackgroundModule.obj
 0001:00056b90       ?backgroundEndEnvironemt@@YAPAU_object@@PAU1@0@Z 00457b90 f   PythonBackgroundModule.obj
 0001:00056ba0       ?backgroundSetCharacterDirLight@@YAPAU_object@@PAU1@0@Z 00457ba0 f   PythonBackgroundModule.obj
 0001:00056bb0       ?backgroundSetBackgroundDirLight@@YAPAU_object@@PAU1@0@Z 00457bb0 f   PythonBackgroundModule.obj
 0001:00056bc0       ?backgroundInitialize@@YAPAU_object@@PAU1@0@Z 00457bc0 f   PythonBackgroundModule.obj
 0001:00056bd0       ?backgroundUpdate@@YAPAU_object@@PAU1@0@Z 00457bd0 f   PythonBackgroundModule.obj
 0001:00056c50       ?backgroundRender@@YAPAU_object@@PAU1@0@Z 00457c50 f   PythonBackgroundModule.obj
 0001:00056c60       ?backgroundRenderPCBlocker@@YAPAU_object@@PAU1@0@Z 00457c60 f   PythonBackgroundModule.obj
 0001:00056c70       ?backgroundRenderCollision@@YAPAU_object@@PAU1@0@Z 00457c70 f   PythonBackgroundModule.obj
 0001:00056c80       ?backgroundRenderSky@@YAPAU_object@@PAU1@0@Z 00457c80 f   PythonBackgroundModule.obj
 0001:00056c90       ?backgroundRenderCloud@@YAPAU_object@@PAU1@0@Z 00457c90 f   PythonBackgroundModule.obj
 0001:00056ca0       ?backgroundRenderWater@@YAPAU_object@@PAU1@0@Z 00457ca0 f   PythonBackgroundModule.obj
 0001:00056cb0       ?backgroundRenderEffect@@YAPAU_object@@PAU1@0@Z 00457cb0 f   PythonBackgroundModule.obj
 0001:00056cc0       ?backgroundRenderBeforeLensFlare@@YAPAU_object@@PAU1@0@Z 00457cc0 f   PythonBackgroundModule.obj
 0001:00056cd0       ?backgroundRenderAfterLensFlare@@YAPAU_object@@PAU1@0@Z 00457cd0 f   PythonBackgroundModule.obj
 0001:00056ce0       ?backgroundRenderCharacterShadowToTexture@@YAPAU_object@@PAU1@0@Z 00457ce0 f   PythonBackgroundModule.obj
 0001:00056cf0       ?backgroundGetHeight@@YAPAU_object@@PAU1@0@Z 00457cf0 f   PythonBackgroundModule.obj
 0001:00056d80       ?backgroundGetRenderedSplatNum@@YAPAU_object@@PAU1@0@Z 00457d80 f   PythonBackgroundModule.obj
 0001:00056e50       ?backgroundGetRenderedGTINum@@YAPAU_object@@PAU1@0@Z 00457e50 f   PythonBackgroundModule.obj
 0001:00056e90       ?backgroundGetRenderShadowTime@@YAPAU_object@@PAU1@0@Z 00457e90 f   PythonBackgroundModule.obj
 0001:00056eb0       ?backgroundGetShadowMapcolor@@YAPAU_object@@PAU1@0@Z 00457eb0 f   PythonBackgroundModule.obj
 0001:00056f20       ?backgroundSetShadowLevel@@YAPAU_object@@PAU1@0@Z 00457f20 f   PythonBackgroundModule.obj
 0001:00056f60       ?backgroundSetVisiblePart@@YAPAU_object@@PAU1@0@Z 00457f60 f   PythonBackgroundModule.obj
 0001:00056fe0       ?backgroundSetSpaltLimit@@YAPAU_object@@PAU1@0@Z 00457fe0 f   PythonBackgroundModule.obj
 0001:00057030       ?backgroundSelectViewDistanceNum@@YAPAU_object@@PAU1@0@Z 00458030 f   PythonBackgroundModule.obj
 0001:00057070       ?backgroundSetViewDistanceSet@@YAPAU_object@@PAU1@0@Z 00458070 f   PythonBackgroundModule.obj
 0001:000570d0       ?backgroundGetFarClip@@YAPAU_object@@PAU1@0@Z 004580d0 f   PythonBackgroundModule.obj
 0001:00057100       ?backgroundGetDistanceSetInfo@@YAPAU_object@@PAU1@0@Z 00458100 f   PythonBackgroundModule.obj
 0001:00057170       ?backgroundSetBGLoading@@YAPAU_object@@PAU1@0@Z 00458170 f   PythonBackgroundModule.obj
 0001:000571a0       ?backgroundSetRenderSort@@YAPAU_object@@PAU1@0@Z 004581a0 f   PythonBackgroundModule.obj
 0001:000571e0       ?backgroundSetTransparentTree@@YAPAU_object@@PAU1@0@Z 004581e0 f   PythonBackgroundModule.obj
 0001:00057230       ?backgroundGlobalPositionToLocalPosition@@YAPAU_object@@PAU1@0@Z 00458230 f   PythonBackgroundModule.obj
 0001:000572a0       ?backgroundGlobalPositionToMapInfo@@YAPAU_object@@PAU1@0@Z 004582a0 f   PythonBackgroundModule.obj
 0001:00057330       ?backgroundWarpTest@@YAPAU_object@@PAU1@0@Z 00458330 f   PythonBackgroundModule.obj
 0001:00057390       ?backgroundSetXMasTree@@YAPAU_object@@PAU1@0@Z 00458390 f   PythonBackgroundModule.obj
 0001:000573d0       ?backgroundRegisterDungeonMapName@@YAPAU_object@@PAU1@0@Z 004583d0 f   PythonBackgroundModule.obj
 0001:00057410       ?backgroundVisibleGuildArea@@YAPAU_object@@PAU1@0@Z 00458410 f   PythonBackgroundModule.obj
 0001:00057420       ?backgroundDisableGuildArea@@YAPAU_object@@PAU1@0@Z 00458420 f   PythonBackgroundModule.obj
 0001:00057430       ?initBackground@@YAXXZ     00458430 f   PythonBackgroundModule.obj
 0001:00057560       ??1IAbstractCharacterManager@@UAE@XZ 00458560 f i PythonCharacterManager.obj
 0001:00057580       ??_E?$TAbstractSingleton@VIAbstractCharacterManager@@@@UAEPAXI@Z 00458580 f i * CIL library *:* CIL module *
 0001:00057580       ??_G?$TAbstractSingleton@VIAbstractCharacterManager@@@@UAEPAXI@Z 00458580 f i PythonCharacterManager.obj
 0001:00057580       ??_EIAbstractCharacterManager@@UAEPAXI@Z 00458580 f i * CIL library *:* CIL module *
 0001:00057580       ??_GIAbstractCharacterManager@@UAEPAXI@Z 00458580 f i PythonCharacterManager.obj
 0001:000575b0       ??1IObjectManager@@UAE@XZ  004585b0 f i PythonCharacterManager.obj
 0001:000575d0       ??_EIObjectManager@@UAEPAXI@Z 004585d0 f i * CIL library *:* CIL module *
 0001:000575d0       ??_GIObjectManager@@UAEPAXI@Z 004585d0 f i PythonCharacterManager.obj
 0001:00057610       ?AdjustCollisionWithOtherObjects@CPythonCharacterManager@@UAEXPAVCActorInstance@@@Z 00458610 f   PythonCharacterManager.obj
 0001:000576e0       ?InsertPVPKey@CPythonCharacterManager@@QAEXKK@Z 004586e0 f   PythonCharacterManager.obj
 0001:00057730       ?RemovePVPKey@CPythonCharacterManager@@QAEXKK@Z 00458730 f   PythonCharacterManager.obj
 0001:00057780       ?ChangeGVG@CPythonCharacterManager@@QAEXKK@Z 00458780 f   PythonCharacterManager.obj
 0001:000577d0       ?SetBaseTime@CTimer@@QAEXXZ 004587d0 f   EterBase:Timer.obj
 0001:000577d0       ?ClearMainInstance@CPythonCharacterManager@@QAEXXZ 004587d0 f   PythonCharacterManager.obj
 0001:000577e0       ?SetMainInstance@CPythonCharacterManager@@QAE_NK@Z 004587e0 f   PythonCharacterManager.obj
 0001:00057800       ?GetMainInstancePtr@CPythonCharacterManager@@QAEPAVCInstanceBase@@XZ 00458800 f   PythonCharacterManager.obj
 0001:00057800       ?IsNoMotion@SSkillData@CPythonSkill@@QAEHXZ 00458800 f   PythonSkill.obj
 0001:00057800       ?IsMainPlayerPrivateShop@CPythonShop@@QAEHXZ 00458800 f   PythonShop.obj
 0001:00057800       ?GetCurrentCamera@CCameraManager@@QAEPAVCCamera@@XZ 00458800 f   EterLib:Camera.obj
 0001:00057800       ?GetHeight@CGraphicTexture@@QBEHXZ 00458800 f   EterLib:GrpTexture.obj
 0001:00057800       ?GetGrannyModelPointer@CGrannyModel@@QAEPAUgranny_model@@XZ 00458800 f   EterGrnLib:Model.obj
 0001:00057800       ?do_max_length@?$codecvt@_WDU_Mbstatet@@@std@@MBEHXZ 00458800 f   EterPack:EterPack.obj
 0001:00057810       ?GetInfo@CPythonCharacterManager@@QAEXPAV?$basic_string@DU?$char_traits@D@std@@V?$allocator@D@2@@std@@@Z 00458810 f   PythonCharacterManager.obj
 0001:00057890       ?Update@CPythonCharacterManager@@QAEXXZ 00458890 f   PythonCharacterManager.obj
 0001:00057940       ?ShowPointEffect@CPythonCharacterManager@@QAEXKK@Z 00458940 f   PythonCharacterManager.obj
 0001:00057990       ?RegisterPointEffect@CPythonCharacterManager@@QAE_NKPBD@Z 00458990 f   PythonCharacterManager.obj
 0001:000579c0       ?UpdateTransform@CPythonCharacterManager@@IAEXXZ 004589c0 f   PythonCharacterManager.obj
 0001:00057a60       ?UpdateDeleting@CPythonCharacterManager@@IAEXXZ 00458a60 f   PythonCharacterManager.obj
 0001:00057ac0       ?Deform@CPythonCharacterManager@@QAEXXZ 00458ac0 f   PythonCharacterManager.obj
 0001:00057b10       ?OLD_GetPickedInstanceVID@CPythonCharacterManager@@QAE_NPAK@Z 00458b10 f   PythonCharacterManager.obj
 0001:00057b30       ?GetFlyTarget@CFlyTarget@@QAEPAVIFlyTargetableObject@@XZ 00458b30 f   GameLib:FlyTarget.obj
 0001:00057b30       ?OLD_GetPickedInstancePtr@CPythonCharacterManager@@QAEPAVCInstanceBase@@XZ 00458b30 f   PythonCharacterManager.obj
 0001:00057b30       ?GetLoopCount@CRaceMotionData@@QBEHXZ 00458b30 f   GameLib:RaceMotionData.obj
 0001:00057b30       ?GetD3DTexture@CGraphicTexture@@QBEPAUIDirect3DTexture8@@XZ 00458b30 f   EterLib:GrpTexture.obj
 0001:00057b40       ?IsRegisteredVID@CPythonCharacterManager@@QAE_NK@Z 00458b40 f   PythonCharacterManager.obj
 0001:00057b80       ?IsAliveVID@CPythonCharacterManager@@QAE_NK@Z 00458b80 f   PythonCharacterManager.obj
 0001:00057bc0       ?IsDeadVID@CPythonCharacterManager@@QAE_NK@Z 00458bc0 f   PythonCharacterManager.obj
 0001:00057c00       ?__RenderSortedAliveActorList@CPythonCharacterManager@@IAEXXZ 00458c00 f   PythonCharacterManager.obj
 0001:00057d30       ?__RenderSortedDeadActorList@CPythonCharacterManager@@IAEXXZ 00458d30 f   PythonCharacterManager.obj
 0001:00057e30       ?Render@CPythonCharacterManager@@QAEXXZ 00458e30 f   PythonCharacterManager.obj
 0001:00057f30       ?RenderShadowMainInstance@CPythonCharacterManager@@QAEXXZ 00458f30 f   PythonCharacterManager.obj
 0001:00057f50       ?RenderShadowAllInstances@CPythonCharacterManager@@QAEXXZ 00458f50 f   PythonCharacterManager.obj
 0001:00057f80       ?RenderCollision@CPythonCharacterManager@@QAEXXZ 00458f80 f   PythonCharacterManager.obj
 0001:00057fb0       ?CreateInstance@CPythonCharacterManager@@QAEPAVCInstanceBase@@ABUSCreateData@2@@Z 00458fb0 f   PythonCharacterManager.obj
 0001:00058040       ?RegisterInstance@CPythonCharacterManager@@QAEPAVCInstanceBase@@K@Z 00459040 f   PythonCharacterManager.obj
 0001:00058160       ?DeleteInstance@CPythonCharacterManager@@QAEXK@Z 00459160 f   PythonCharacterManager.obj
 0001:00058200       ?__DeleteBlendOutInstance@CPythonCharacterManager@@IAEXPAVCInstanceBase@@@Z 00459200 f   PythonCharacterManager.obj
 0001:000582d0       ?DeleteInstanceByFade@CPythonCharacterManager@@QAEXK@Z 004592d0 f   PythonCharacterManager.obj
 0001:00058330       ?SelectInstance@CPythonCharacterManager@@QAEXK@Z 00459330 f   PythonCharacterManager.obj
 0001:00058390       ?GetInstancePtr@CPythonCharacterManager@@UAEPAVCInstanceBase@@K@Z 00459390 f   PythonCharacterManager.obj
 0001:000583e0       ?GetType@CFlyTarget@@QAE?AW4EType@1@XZ 004593e0 f   GameLib:FlyTarget.obj
 0001:000583e0       ?GetSelectedInstancePtr@CPythonCharacterManager@@QAEPAVCInstanceBase@@XZ 004593e0 f   PythonCharacterManager.obj
 0001:000583e0       ?isMeshAnimationLoop@CEffectMeshScript@@QAEHXZ 004593e0 f   EffectLib:EffectMesh.obj
 0001:000583f0       ?__UpdateSortPickedActorList@CPythonCharacterManager@@IAEXXZ 004593f0 f   PythonCharacterManager.obj
 0001:00058400       ?__UpdatePickedActorList@CPythonCharacterManager@@IAEXXZ 00459400 f   PythonCharacterManager.obj
 0001:00058490       ?__SortPickedActorList@CPythonCharacterManager@@IAEXXZ 00459490 f   PythonCharacterManager.obj
 0001:00058500       ?__NEW_Pick@CPythonCharacterManager@@IAEXXZ 00459500 f   PythonCharacterManager.obj
 0001:00058610       ?PickAll@CPythonCharacterManager@@QAEHXZ 00459610 f   PythonCharacterManager.obj
 0001:00058660       ?RefreshAllPCTextTail@CPythonCharacterManager@@QAEXXZ 00459660 f   PythonCharacterManager.obj
 0001:000586a0       ?RefreshAllGuildMark@CPythonCharacterManager@@QAEXXZ 004596a0 f   PythonCharacterManager.obj
 0001:000586f0       ?DeleteAllInstances@CPythonCharacterManager@@QAEXXZ 004596f0 f   PythonCharacterManager.obj
 0001:00058700       ?DestroyAliveInstanceMap@CPythonCharacterManager@@QAEXXZ 00459700 f   PythonCharacterManager.obj
 0001:00058780       ?DestroyDeadInstanceList@CPythonCharacterManager@@QAEXXZ 00459780 f   PythonCharacterManager.obj
 0001:000587e0       ?Destroy@CPythonCharacterManager@@UAEXXZ 004597e0 f   PythonCharacterManager.obj
 0001:00058800       ?__Initialize@CPythonCharacterManager@@IAEXXZ 00459800 f   PythonCharacterManager.obj
 0001:00058840       ??0CPythonCharacterManager@@QAE@XZ 00459840 f   PythonCharacterManager.obj
 0001:00058960       ??_GCPythonCharacterManager@@UAEPAXI@Z 00459960 f i PythonCharacterManager.obj
 0001:00058960       ??_ECPythonCharacterManager@@UAEPAXI@Z 00459960 f i * CIL library *:* CIL module *
 0001:00058990       ??1CPythonCharacterManager@@UAE@XZ 00459990 f   PythonCharacterManager.obj
 0001:00058a90       ??1?$CSingleton@VCPythonCharacterManager@@@@UAE@XZ 00459a90 f i PythonCharacterManager.obj
 0001:00058ab0       ??_G?$CSingleton@VCPythonCharacterManager@@@@UAEPAXI@Z 00459ab0 f i PythonCharacterManager.obj
 0001:00058ab0       ??_E?$CSingleton@VCPythonCharacterManager@@@@UAEPAXI@Z 00459ab0 f i * CIL library *:* CIL module *
 0001:00058ae0       ??1?$_Alloc_construct_ptr@V?$allocator@U?$_List_node@PAVCInstanceBase@@PAX@std@@@std@@@std@@QAE@XZ 00459ae0 f i PythonCharacterManager.obj
 0001:00058ae0       ??1?$_Alloc_construct_ptr@V?$allocator@U?$_List_node@PAVCParticleInstance@@PAX@std@@@std@@@std@@QAE@XZ 00459ae0 f i EffectLib:ParticleSystemInstance.obj
 0001:00058ae0       ??1?$_Alloc_construct_ptr@V?$allocator@U?$_List_node@PAVCFlyingInstance@@PAX@std@@@std@@@std@@QAE@XZ 00459ae0 f i GameLib:FlyingObjectManager.obj
 0001:00058ae0       ??1?$_Alloc_construct_ptr@V?$allocator@U?$_List_node@PAUSChatLine@CPythonChat@@PAX@std@@@std@@@std@@QAE@XZ 00459ae0 f i PythonChat.obj
 0001:00058ae0       ??1?$_Alloc_construct_ptr@V?$allocator@U?$_List_node@KPAX@std@@@std@@@std@@QAE@XZ 00459ae0 f i EterPythonLib:PythonSlotWindow.obj
 0001:00058ae0       ??1?$_Alloc_construct_ptr@V?$allocator@U?$_List_node@PAUSTextTail@CPythonTextTail@@PAX@std@@@std@@@std@@QAE@XZ 00459ae0 f i PythonTextTail.obj
 0001:00058ae0       ??1?$_Alloc_construct_ptr@V?$allocator@U?$_List_node@PAVCEterPack@@PAX@std@@@std@@@std@@QAE@XZ 00459ae0 f i EterPack:EterPackManager.obj
 0001:00058ae0       ??1?$_Alloc_construct_ptr@V?$allocator@U?$_List_node@PAUSSlot@CSlotWindow@UI@@PAX@std@@@std@@@std@@QAE@XZ 00459ae0 f i EterPythonLib:PythonGridSlotWindow.obj
 0001:00058ae0       ??1?$_Alloc_construct_ptr@V?$allocator@U?$_List_node@PAUSEterPackIndex@@PAX@std@@@std@@@std@@QAE@XZ 00459ae0 f i EterPack:EterPack.obj
 0001:00058ae0       ??1?$_Alloc_construct_ptr@V?$allocator@U?$_List_node@PAVCWindow@UI@@PAX@std@@@std@@@std@@QAE@XZ 00459ae0 f i EterPythonLib:PythonWindowManager.obj
 0001:00058b00       ??$_Sort_unchecked@PAPAVCInstanceBase@@ULessCharacterInstancePtrRenderOrder@@@std@@YAXPAPAVCInstanceBase@@0HULessCharacterInstancePtrRenderOrder@@@Z 00459b00 f i PythonCharacterManager.obj
 0001:00058cf0       ??$_Sort_unchecked@PAPAVCInstanceBase@@U?$_Ref_fn@UCInstanceBase_SLessCameraDistance@@@std@@@std@@YAXPAPAVCInstanceBase@@0HU?$_Ref_fn@UCInstanceBase_SLessCameraDistance@@@0@@Z 00459cf0 f i PythonCharacterManager.obj
 0001:00058f20       ??$_Partition_by_median_guess_unchecked@PAPAVCInstanceBase@@ULessCharacterInstancePtrRenderOrder@@@std@@YA?AU?$pair@PAPAVCInstanceBase@@PAPAV1@@0@PAPAVCInstanceBase@@0ULessCharacterInstancePtrRenderOrder@@@Z 00459f20 f i PythonCharacterManager.obj
 0001:000590f0       ??$_Partition_by_median_guess_unchecked@PAPAVCInstanceBase@@U?$_Ref_fn@UCInstanceBase_SLessCameraDistance@@@std@@@std@@YA?AU?$pair@PAPAVCInstanceBase@@PAPAV1@@0@PAPAVCInstanceBase@@0U?$_Ref_fn@UCInstanceBase_SLessCameraDistance@@@0@@Z 0045a0f0 f i PythonCharacterManager.obj
 0001:00059530       ??$_Pop_heap_hole_by_index@PAPAVCInstanceBase@@PAV1@ULessCharacterInstancePtrRenderOrder@@@std@@YAXPAPAVCInstanceBase@@HH$$QAPAV1@ULessCharacterInstancePtrRenderOrder@@@Z 0045a530 f i PythonCharacterManager.obj
 0001:000595e0       ??$_Guess_median_unchecked@PAPAVCInstanceBase@@ULessCharacterInstancePtrRenderOrder@@@std@@YAXPAPAVCInstanceBase@@00ULessCharacterInstancePtrRenderOrder@@@Z 0045a5e0 f i PythonCharacterManager.obj
 0001:000597c0       ??$_Pop_heap_hole_by_index@PAPAVCInstanceBase@@PAV1@U?$_Ref_fn@UCInstanceBase_SLessCameraDistance@@@std@@@std@@YAXPAPAVCInstanceBase@@HH$$QAPAV1@U?$_Ref_fn@UCInstanceBase_SLessCameraDistance@@@0@@Z 0045a7c0 f i PythonCharacterManager.obj
 0001:00059900       ??$_Copy_backward_memmove@PAUSShopItemTable@@PAU1@@std@@YAPAUSShopItemTable@@PAU1@00@Z 0045a900 f i PythonShop.obj
 0001:00059900       ??$_Copy_backward_memmove@PAPAVCInstanceBase@@PAPAV1@@std@@YAPAPAVCInstanceBase@@PAPAV1@00@Z 0045a900 f i PythonCharacterManager.obj
 0001:00059920       ??$_Med3_unchecked@PAPAVCInstanceBase@@U?$_Ref_fn@UCInstanceBase_SLessCameraDistance@@@std@@@std@@YAXPAPAVCInstanceBase@@00U?$_Ref_fn@UCInstanceBase_SLessCameraDistance@@@0@@Z 0045a920 f i PythonCharacterManager.obj
 0001:00059a1d       ??_ECPythonCharacterManager@@W3AEPAXI@Z 0045aa1d f i PythonCharacterManager.obj
 0001:00059a25       ??_ECPythonCharacterManager@@W7AEPAXI@Z 0045aa25 f i PythonCharacterManager.obj
 0001:00059a30       ?chrmgrSetEmpireNameMode@@YAPAU_object@@PAU1@0@Z 0045aa30 f   PythonCharacterManagerModule.obj
 0001:00059a80       ?chrmgrRegisterTitleName@@YAPAU_object@@PAU1@0@Z 0045aa80 f   PythonCharacterManagerModule.obj
 0001:00059ad0       ?chrmgrRegisterNameColor@@YAPAU_object@@PAU1@0@Z 0045aad0 f   PythonCharacterManagerModule.obj
 0001:00059b50       ?chrmgrRegisterTitleColor@@YAPAU_object@@PAU1@0@Z 0045ab50 f   PythonCharacterManagerModule.obj
 0001:00059bd0       ?chrmgrGetPickedVID@@YAPAU_object@@PAU1@0@Z 0045abd0 f   PythonCharacterManagerModule.obj
 0001:00059c10       ?chrmgrGetVIDInfo@@YAPAU_object@@PAU1@0@Z 0045ac10 f   PythonCharacterManagerModule.obj
 0001:00059d50       ?chrmgrSetPathName@@YAPAU_object@@PAU1@0@Z 0045ad50 f   PythonCharacterManagerModule.obj
 0001:00059d90       ?chrmgrCreateRace@@YAPAU_object@@PAU1@0@Z 0045ad90 f   PythonCharacterManagerModule.obj
 0001:00059dd0       ?chrmgrSelectRace@@YAPAU_object@@PAU1@0@Z 0045add0 f   PythonCharacterManagerModule.obj
 0001:00059e10       ?chrmgrRegisterAttachingBoneName@@YAPAU_object@@PAU1@0@Z 0045ae10 f   PythonCharacterManagerModule.obj
 0001:00059e80       ?chrmgrRegisterMotionMode@@YAPAU_object@@PAU1@0@Z 0045ae80 f   PythonCharacterManagerModule.obj
 0001:00059ee0       ?chrmgrSetMotionRandomWeight@@YAPAU_object@@PAU1@0@Z 0045aee0 f   PythonCharacterManagerModule.obj
 0001:00059f90       ?chrmgrRegisterNormalAttack@@YAPAU_object@@PAU1@0@Z 0045af90 f   PythonCharacterManagerModule.obj
 0001:0005a000       ?chrmgrReserveComboAttack@@YAPAU_object@@PAU1@0@Z 0045b000 f   PythonCharacterManagerModule.obj
 0001:0005a080       ?chrmgrRegisterComboAttack@@YAPAU_object@@PAU1@0@Z 0045b080 f   PythonCharacterManagerModule.obj
 0001:0005a110       ?chrmgrReserveComboAttackNew@@YAPAU_object@@PAU1@0@Z 0045b110 f   PythonCharacterManagerModule.obj
 0001:0005a1a0       ?chrmgrRegisterComboAttackNew@@YAPAU_object@@PAU1@0@Z 0045b1a0 f   PythonCharacterManagerModule.obj
 0001:0005a240       ?chrmgrLoadRaceData@@YAPAU_object@@PAU1@0@Z 0045b240 f   PythonCharacterManagerModule.obj
 0001:0005a2c0       ?chrmgrLoadLocalRaceData@@YAPAU_object@@PAU1@0@Z 0045b2c0 f   PythonCharacterManagerModule.obj
 0001:0005a330       ?chrmgrRegisterCacheMotionData@@YAPAU_object@@PAU1@0@Z 0045b330 f   PythonCharacterManagerModule.obj
 0001:0005a410       ?chrmgrRegisterMotionData@@YAPAU_object@@PAU1@0@Z 0045b410 f   PythonCharacterManagerModule.obj
 0001:0005a4d0       ?chrmgrRegisterRaceSrcName@@YAPAU_object@@PAU1@0@Z 0045b4d0 f   PythonCharacterManagerModule.obj
 0001:0005a530       ?chrmgrRegisterRaceName@@YAPAU_object@@PAU1@0@Z 0045b530 f   PythonCharacterManagerModule.obj
 0001:0005a590       ?chrmgrSetShapeModel@@YAPAU_object@@PAU1@0@Z 0045b590 f   PythonCharacterManagerModule.obj
 0001:0005a600       ?chrmgrAppendShapeSkin@@YAPAU_object@@PAU1@0@Z 0045b600 f   PythonCharacterManagerModule.obj
 0001:0005a6a0       ?chrmgrSetMovingSpeed@@YAPAU_object@@PAU1@0@Z 0045b6a0 f   PythonCharacterManagerModule.obj
 0001:0005a710       ?chrmgrRegisterEffect@@YAPAU_object@@PAU1@0@Z 0045b710 f   PythonCharacterManagerModule.obj
 0001:0005a780       ?chrmgrRegisterCacheEffect@@YAPAU_object@@PAU1@0@Z 0045b780 f   PythonCharacterManagerModule.obj
 0001:0005a7f0       ?chrmgrSetDustGap@@YAPAU_object@@PAU1@0@Z 0045b7f0 f   PythonCharacterManagerModule.obj
 0001:0005a830       ?chrmgrSetHorseDustGap@@YAPAU_object@@PAU1@0@Z 0045b830 f   PythonCharacterManagerModule.obj
 0001:0005a870       ?chrmgrToggleDirectionLine@@YAPAU_object@@PAU1@0@Z 0045b870 f   PythonCharacterManagerModule.obj
 0001:0005a8a0       ?chrmgrRegisterPointEffect@@YAPAU_object@@PAU1@0@Z 0045b8a0 f   PythonCharacterManagerModule.obj
 0001:0005a900       ?chrmgrShowPointEffect@@YAPAU_object@@PAU1@0@Z 0045b900 f   PythonCharacterManagerModule.obj
 0001:0005a960       ?SCRIPT_SetAffect@CPythonCharacterManager@@QAEXKKH@Z 0045b960 f   PythonCharacterManagerModule.obj
 0001:0005a9a0       ?chrmgrSetAffect@@YAPAU_object@@PAU1@0@Z 0045b9a0 f   PythonCharacterManagerModule.obj
 0001:0005aa20       ?SetEmoticon@CPythonCharacterManager@@QAEXKK@Z 0045ba20 f   PythonCharacterManagerModule.obj
 0001:0005aa50       ?IsPossibleEmoticon@CPythonCharacterManager@@QAE_NK@Z 0045ba50 f   PythonCharacterManagerModule.obj
 0001:0005aa90       ?chrmgrSetEmoticon@@YAPAU_object@@PAU1@0@Z 0045ba90 f   PythonCharacterManagerModule.obj
 0001:0005aaf0       ?chrmgrIsPossibleEmoticon@@YAPAU_object@@PAU1@0@Z 0045baf0 f   PythonCharacterManagerModule.obj
 0001:0005ab40       ?initchrmgr@@YAXXZ         0045bb40 f   PythonCharacterManagerModule.obj
 0001:0005ae70       ?chrRaceToJob@@YAPAU_object@@PAU1@0@Z 0045be70 f   PythonCharacterModule.obj
 0001:0005aec0       ?chrRaceToSex@@YAPAU_object@@PAU1@0@Z 0045bec0 f   PythonCharacterModule.obj
 0001:0005af40       ?chrDestroy@@YAPAU_object@@PAU1@0@Z 0045bf40 f   PythonCharacterModule.obj
 0001:0005af60       ?chrUpdate@@YAPAU_object@@PAU1@0@Z 0045bf60 f   PythonCharacterModule.obj
 0001:0005af70       ?chrDeform@@YAPAU_object@@PAU1@0@Z 0045bf70 f   PythonCharacterModule.obj
 0001:0005af80       ?chrRender@@YAPAU_object@@PAU1@0@Z 0045bf80 f   PythonCharacterModule.obj
